
projectfirst.elf:     file format elf32-littlearm

Sections:
Idx Name          Size      VMA       LMA       File off  Algn
  0 .isr_vector   0000018c  08000000  08000000  00010000  2**0
                  CONTENTS, ALLOC, LOAD, READONLY, DATA
  1 .text         00007ca8  08000190  08000190  00010190  2**4
                  CONTENTS, ALLOC, LOAD, READONLY, CODE
  2 .rodata       000007c0  08007e38  08007e38  00017e38  2**3
                  CONTENTS, ALLOC, LOAD, READONLY, DATA
  3 .ARM.extab    00000000  080085f8  080085f8  00020268  2**0
                  CONTENTS
  4 .ARM          00000008  080085f8  080085f8  000185f8  2**2
                  CONTENTS, ALLOC, LOAD, READONLY, DATA
  5 .preinit_array 00000000  08008600  08008600  00020268  2**0
                  CONTENTS, ALLOC, LOAD, DATA
  6 .init_array   00000004  08008600  08008600  00018600  2**2
                  CONTENTS, ALLOC, LOAD, DATA
  7 .fini_array   00000004  08008604  08008604  00018604  2**2
                  CONTENTS, ALLOC, LOAD, DATA
  8 .data         00000268  20000000  08008608  00020000  2**2
                  CONTENTS, ALLOC, LOAD, DATA
  9 .bss          000023c8  20000268  08008870  00020268  2**2
                  ALLOC
 10 ._user_heap_stack 00000600  20002630  08008870  00022630  2**0
                  ALLOC
 11 .ARM.attributes 00000030  00000000  00000000  00020268  2**0
                  CONTENTS, READONLY
 12 .comment      00000050  00000000  00000000  00020298  2**0
                  CONTENTS, READONLY
 13 .debug_frame  000012a4  00000000  00000000  000202e8  2**2
                  CONTENTS, READONLY, DEBUGGING, OCTETS

Disassembly of section .text:

08000190 <__do_global_dtors_aux>:
 8000190:	b510      	push	{r4, lr}
 8000192:	4c05      	ldr	r4, [pc, #20]	; (80001a8 <__do_global_dtors_aux+0x18>)
 8000194:	7823      	ldrb	r3, [r4, #0]
 8000196:	b933      	cbnz	r3, 80001a6 <__do_global_dtors_aux+0x16>
 8000198:	4b04      	ldr	r3, [pc, #16]	; (80001ac <__do_global_dtors_aux+0x1c>)
 800019a:	b113      	cbz	r3, 80001a2 <__do_global_dtors_aux+0x12>
 800019c:	4804      	ldr	r0, [pc, #16]	; (80001b0 <__do_global_dtors_aux+0x20>)
 800019e:	f3af 8000 	nop.w
 80001a2:	2301      	movs	r3, #1
 80001a4:	7023      	strb	r3, [r4, #0]
 80001a6:	bd10      	pop	{r4, pc}
 80001a8:	20000268 	.word	0x20000268
 80001ac:	00000000 	.word	0x00000000
 80001b0:	08007e20 	.word	0x08007e20

080001b4 <frame_dummy>:
 80001b4:	b508      	push	{r3, lr}
 80001b6:	4b03      	ldr	r3, [pc, #12]	; (80001c4 <frame_dummy+0x10>)
 80001b8:	b11b      	cbz	r3, 80001c2 <frame_dummy+0xe>
 80001ba:	4903      	ldr	r1, [pc, #12]	; (80001c8 <frame_dummy+0x14>)
 80001bc:	4803      	ldr	r0, [pc, #12]	; (80001cc <frame_dummy+0x18>)
 80001be:	f3af 8000 	nop.w
 80001c2:	bd08      	pop	{r3, pc}
 80001c4:	00000000 	.word	0x00000000
 80001c8:	2000026c 	.word	0x2000026c
 80001cc:	08007e20 	.word	0x08007e20

080001d0 <strlen>:
 80001d0:	4603      	mov	r3, r0
 80001d2:	f813 2b01 	ldrb.w	r2, [r3], #1
 80001d6:	2a00      	cmp	r2, #0
 80001d8:	d1fb      	bne.n	80001d2 <strlen+0x2>
 80001da:	1a18      	subs	r0, r3, r0
 80001dc:	3801      	subs	r0, #1
 80001de:	4770      	bx	lr

080001e0 <memchr>:
 80001e0:	f001 01ff 	and.w	r1, r1, #255	; 0xff
 80001e4:	2a10      	cmp	r2, #16
 80001e6:	db2b      	blt.n	8000240 <memchr+0x60>
 80001e8:	f010 0f07 	tst.w	r0, #7
 80001ec:	d008      	beq.n	8000200 <memchr+0x20>
 80001ee:	f810 3b01 	ldrb.w	r3, [r0], #1
 80001f2:	3a01      	subs	r2, #1
 80001f4:	428b      	cmp	r3, r1
 80001f6:	d02d      	beq.n	8000254 <memchr+0x74>
 80001f8:	f010 0f07 	tst.w	r0, #7
 80001fc:	b342      	cbz	r2, 8000250 <memchr+0x70>
 80001fe:	d1f6      	bne.n	80001ee <memchr+0xe>
 8000200:	b4f0      	push	{r4, r5, r6, r7}
 8000202:	ea41 2101 	orr.w	r1, r1, r1, lsl #8
 8000206:	ea41 4101 	orr.w	r1, r1, r1, lsl #16
 800020a:	f022 0407 	bic.w	r4, r2, #7
 800020e:	f07f 0700 	mvns.w	r7, #0
 8000212:	2300      	movs	r3, #0
 8000214:	e8f0 5602 	ldrd	r5, r6, [r0], #8
 8000218:	3c08      	subs	r4, #8
 800021a:	ea85 0501 	eor.w	r5, r5, r1
 800021e:	ea86 0601 	eor.w	r6, r6, r1
 8000222:	fa85 f547 	uadd8	r5, r5, r7
 8000226:	faa3 f587 	sel	r5, r3, r7
 800022a:	fa86 f647 	uadd8	r6, r6, r7
 800022e:	faa5 f687 	sel	r6, r5, r7
 8000232:	b98e      	cbnz	r6, 8000258 <memchr+0x78>
 8000234:	d1ee      	bne.n	8000214 <memchr+0x34>
 8000236:	bcf0      	pop	{r4, r5, r6, r7}
 8000238:	f001 01ff 	and.w	r1, r1, #255	; 0xff
 800023c:	f002 0207 	and.w	r2, r2, #7
 8000240:	b132      	cbz	r2, 8000250 <memchr+0x70>
 8000242:	f810 3b01 	ldrb.w	r3, [r0], #1
 8000246:	3a01      	subs	r2, #1
 8000248:	ea83 0301 	eor.w	r3, r3, r1
 800024c:	b113      	cbz	r3, 8000254 <memchr+0x74>
 800024e:	d1f8      	bne.n	8000242 <memchr+0x62>
 8000250:	2000      	movs	r0, #0
 8000252:	4770      	bx	lr
 8000254:	3801      	subs	r0, #1
 8000256:	4770      	bx	lr
 8000258:	2d00      	cmp	r5, #0
 800025a:	bf06      	itte	eq
 800025c:	4635      	moveq	r5, r6
 800025e:	3803      	subeq	r0, #3
 8000260:	3807      	subne	r0, #7
 8000262:	f015 0f01 	tst.w	r5, #1
 8000266:	d107      	bne.n	8000278 <memchr+0x98>
 8000268:	3001      	adds	r0, #1
 800026a:	f415 7f80 	tst.w	r5, #256	; 0x100
 800026e:	bf02      	ittt	eq
 8000270:	3001      	addeq	r0, #1
 8000272:	f415 3fc0 	tsteq.w	r5, #98304	; 0x18000
 8000276:	3001      	addeq	r0, #1
 8000278:	bcf0      	pop	{r4, r5, r6, r7}
 800027a:	3801      	subs	r0, #1
 800027c:	4770      	bx	lr
 800027e:	bf00      	nop

08000280 <__aeabi_drsub>:
 8000280:	f081 4100 	eor.w	r1, r1, #2147483648	; 0x80000000
 8000284:	e002      	b.n	800028c <__adddf3>
 8000286:	bf00      	nop

08000288 <__aeabi_dsub>:
 8000288:	f083 4300 	eor.w	r3, r3, #2147483648	; 0x80000000

0800028c <__adddf3>:
 800028c:	b530      	push	{r4, r5, lr}
 800028e:	ea4f 0441 	mov.w	r4, r1, lsl #1
 8000292:	ea4f 0543 	mov.w	r5, r3, lsl #1
 8000296:	ea94 0f05 	teq	r4, r5
 800029a:	bf08      	it	eq
 800029c:	ea90 0f02 	teqeq	r0, r2
 80002a0:	bf1f      	itttt	ne
 80002a2:	ea54 0c00 	orrsne.w	ip, r4, r0
 80002a6:	ea55 0c02 	orrsne.w	ip, r5, r2
 80002aa:	ea7f 5c64 	mvnsne.w	ip, r4, asr #21
 80002ae:	ea7f 5c65 	mvnsne.w	ip, r5, asr #21
 80002b2:	f000 80e2 	beq.w	800047a <__adddf3+0x1ee>
 80002b6:	ea4f 5454 	mov.w	r4, r4, lsr #21
 80002ba:	ebd4 5555 	rsbs	r5, r4, r5, lsr #21
 80002be:	bfb8      	it	lt
 80002c0:	426d      	neglt	r5, r5
 80002c2:	dd0c      	ble.n	80002de <__adddf3+0x52>
 80002c4:	442c      	add	r4, r5
 80002c6:	ea80 0202 	eor.w	r2, r0, r2
 80002ca:	ea81 0303 	eor.w	r3, r1, r3
 80002ce:	ea82 0000 	eor.w	r0, r2, r0
 80002d2:	ea83 0101 	eor.w	r1, r3, r1
 80002d6:	ea80 0202 	eor.w	r2, r0, r2
 80002da:	ea81 0303 	eor.w	r3, r1, r3
 80002de:	2d36      	cmp	r5, #54	; 0x36
 80002e0:	bf88      	it	hi
 80002e2:	bd30      	pophi	{r4, r5, pc}
 80002e4:	f011 4f00 	tst.w	r1, #2147483648	; 0x80000000
 80002e8:	ea4f 3101 	mov.w	r1, r1, lsl #12
 80002ec:	f44f 1c80 	mov.w	ip, #1048576	; 0x100000
 80002f0:	ea4c 3111 	orr.w	r1, ip, r1, lsr #12
 80002f4:	d002      	beq.n	80002fc <__adddf3+0x70>
 80002f6:	4240      	negs	r0, r0
 80002f8:	eb61 0141 	sbc.w	r1, r1, r1, lsl #1
 80002fc:	f013 4f00 	tst.w	r3, #2147483648	; 0x80000000
 8000300:	ea4f 3303 	mov.w	r3, r3, lsl #12
 8000304:	ea4c 3313 	orr.w	r3, ip, r3, lsr #12
 8000308:	d002      	beq.n	8000310 <__adddf3+0x84>
 800030a:	4252      	negs	r2, r2
 800030c:	eb63 0343 	sbc.w	r3, r3, r3, lsl #1
 8000310:	ea94 0f05 	teq	r4, r5
 8000314:	f000 80a7 	beq.w	8000466 <__adddf3+0x1da>
 8000318:	f1a4 0401 	sub.w	r4, r4, #1
 800031c:	f1d5 0e20 	rsbs	lr, r5, #32
 8000320:	db0d      	blt.n	800033e <__adddf3+0xb2>
 8000322:	fa02 fc0e 	lsl.w	ip, r2, lr
 8000326:	fa22 f205 	lsr.w	r2, r2, r5
 800032a:	1880      	adds	r0, r0, r2
 800032c:	f141 0100 	adc.w	r1, r1, #0
 8000330:	fa03 f20e 	lsl.w	r2, r3, lr
 8000334:	1880      	adds	r0, r0, r2
 8000336:	fa43 f305 	asr.w	r3, r3, r5
 800033a:	4159      	adcs	r1, r3
 800033c:	e00e      	b.n	800035c <__adddf3+0xd0>
 800033e:	f1a5 0520 	sub.w	r5, r5, #32
 8000342:	f10e 0e20 	add.w	lr, lr, #32
 8000346:	2a01      	cmp	r2, #1
 8000348:	fa03 fc0e 	lsl.w	ip, r3, lr
 800034c:	bf28      	it	cs
 800034e:	f04c 0c02 	orrcs.w	ip, ip, #2
 8000352:	fa43 f305 	asr.w	r3, r3, r5
 8000356:	18c0      	adds	r0, r0, r3
 8000358:	eb51 71e3 	adcs.w	r1, r1, r3, asr #31
 800035c:	f001 4500 	and.w	r5, r1, #2147483648	; 0x80000000
 8000360:	d507      	bpl.n	8000372 <__adddf3+0xe6>
 8000362:	f04f 0e00 	mov.w	lr, #0
 8000366:	f1dc 0c00 	rsbs	ip, ip, #0
 800036a:	eb7e 0000 	sbcs.w	r0, lr, r0
 800036e:	eb6e 0101 	sbc.w	r1, lr, r1
 8000372:	f5b1 1f80 	cmp.w	r1, #1048576	; 0x100000
 8000376:	d31b      	bcc.n	80003b0 <__adddf3+0x124>
 8000378:	f5b1 1f00 	cmp.w	r1, #2097152	; 0x200000
 800037c:	d30c      	bcc.n	8000398 <__adddf3+0x10c>
 800037e:	0849      	lsrs	r1, r1, #1
 8000380:	ea5f 0030 	movs.w	r0, r0, rrx
 8000384:	ea4f 0c3c 	mov.w	ip, ip, rrx
 8000388:	f104 0401 	add.w	r4, r4, #1
 800038c:	ea4f 5244 	mov.w	r2, r4, lsl #21
 8000390:	f512 0f80 	cmn.w	r2, #4194304	; 0x400000
 8000394:	f080 809a 	bcs.w	80004cc <__adddf3+0x240>
 8000398:	f1bc 4f00 	cmp.w	ip, #2147483648	; 0x80000000
 800039c:	bf08      	it	eq
 800039e:	ea5f 0c50 	movseq.w	ip, r0, lsr #1
 80003a2:	f150 0000 	adcs.w	r0, r0, #0
 80003a6:	eb41 5104 	adc.w	r1, r1, r4, lsl #20
 80003aa:	ea41 0105 	orr.w	r1, r1, r5
 80003ae:	bd30      	pop	{r4, r5, pc}
 80003b0:	ea5f 0c4c 	movs.w	ip, ip, lsl #1
 80003b4:	4140      	adcs	r0, r0
 80003b6:	eb41 0101 	adc.w	r1, r1, r1
 80003ba:	3c01      	subs	r4, #1
 80003bc:	bf28      	it	cs
 80003be:	f5b1 1f80 	cmpcs.w	r1, #1048576	; 0x100000
 80003c2:	d2e9      	bcs.n	8000398 <__adddf3+0x10c>
 80003c4:	f091 0f00 	teq	r1, #0
 80003c8:	bf04      	itt	eq
 80003ca:	4601      	moveq	r1, r0
 80003cc:	2000      	moveq	r0, #0
 80003ce:	fab1 f381 	clz	r3, r1
 80003d2:	bf08      	it	eq
 80003d4:	3320      	addeq	r3, #32
 80003d6:	f1a3 030b 	sub.w	r3, r3, #11
 80003da:	f1b3 0220 	subs.w	r2, r3, #32
 80003de:	da0c      	bge.n	80003fa <__adddf3+0x16e>
 80003e0:	320c      	adds	r2, #12
 80003e2:	dd08      	ble.n	80003f6 <__adddf3+0x16a>
 80003e4:	f102 0c14 	add.w	ip, r2, #20
 80003e8:	f1c2 020c 	rsb	r2, r2, #12
 80003ec:	fa01 f00c 	lsl.w	r0, r1, ip
 80003f0:	fa21 f102 	lsr.w	r1, r1, r2
 80003f4:	e00c      	b.n	8000410 <__adddf3+0x184>
 80003f6:	f102 0214 	add.w	r2, r2, #20
 80003fa:	bfd8      	it	le
 80003fc:	f1c2 0c20 	rsble	ip, r2, #32
 8000400:	fa01 f102 	lsl.w	r1, r1, r2
 8000404:	fa20 fc0c 	lsr.w	ip, r0, ip
 8000408:	bfdc      	itt	le
 800040a:	ea41 010c 	orrle.w	r1, r1, ip
 800040e:	4090      	lslle	r0, r2
 8000410:	1ae4      	subs	r4, r4, r3
 8000412:	bfa2      	ittt	ge
 8000414:	eb01 5104 	addge.w	r1, r1, r4, lsl #20
 8000418:	4329      	orrge	r1, r5
 800041a:	bd30      	popge	{r4, r5, pc}
 800041c:	ea6f 0404 	mvn.w	r4, r4
 8000420:	3c1f      	subs	r4, #31
 8000422:	da1c      	bge.n	800045e <__adddf3+0x1d2>
 8000424:	340c      	adds	r4, #12
 8000426:	dc0e      	bgt.n	8000446 <__adddf3+0x1ba>
 8000428:	f104 0414 	add.w	r4, r4, #20
 800042c:	f1c4 0220 	rsb	r2, r4, #32
 8000430:	fa20 f004 	lsr.w	r0, r0, r4
 8000434:	fa01 f302 	lsl.w	r3, r1, r2
 8000438:	ea40 0003 	orr.w	r0, r0, r3
 800043c:	fa21 f304 	lsr.w	r3, r1, r4
 8000440:	ea45 0103 	orr.w	r1, r5, r3
 8000444:	bd30      	pop	{r4, r5, pc}
 8000446:	f1c4 040c 	rsb	r4, r4, #12
 800044a:	f1c4 0220 	rsb	r2, r4, #32
 800044e:	fa20 f002 	lsr.w	r0, r0, r2
 8000452:	fa01 f304 	lsl.w	r3, r1, r4
 8000456:	ea40 0003 	orr.w	r0, r0, r3
 800045a:	4629      	mov	r1, r5
 800045c:	bd30      	pop	{r4, r5, pc}
 800045e:	fa21 f004 	lsr.w	r0, r1, r4
 8000462:	4629      	mov	r1, r5
 8000464:	bd30      	pop	{r4, r5, pc}
 8000466:	f094 0f00 	teq	r4, #0
 800046a:	f483 1380 	eor.w	r3, r3, #1048576	; 0x100000
 800046e:	bf06      	itte	eq
 8000470:	f481 1180 	eoreq.w	r1, r1, #1048576	; 0x100000
 8000474:	3401      	addeq	r4, #1
 8000476:	3d01      	subne	r5, #1
 8000478:	e74e      	b.n	8000318 <__adddf3+0x8c>
 800047a:	ea7f 5c64 	mvns.w	ip, r4, asr #21
 800047e:	bf18      	it	ne
 8000480:	ea7f 5c65 	mvnsne.w	ip, r5, asr #21
 8000484:	d029      	beq.n	80004da <__adddf3+0x24e>
 8000486:	ea94 0f05 	teq	r4, r5
 800048a:	bf08      	it	eq
 800048c:	ea90 0f02 	teqeq	r0, r2
 8000490:	d005      	beq.n	800049e <__adddf3+0x212>
 8000492:	ea54 0c00 	orrs.w	ip, r4, r0
 8000496:	bf04      	itt	eq
 8000498:	4619      	moveq	r1, r3
 800049a:	4610      	moveq	r0, r2
 800049c:	bd30      	pop	{r4, r5, pc}
 800049e:	ea91 0f03 	teq	r1, r3
 80004a2:	bf1e      	ittt	ne
 80004a4:	2100      	movne	r1, #0
 80004a6:	2000      	movne	r0, #0
 80004a8:	bd30      	popne	{r4, r5, pc}
 80004aa:	ea5f 5c54 	movs.w	ip, r4, lsr #21
 80004ae:	d105      	bne.n	80004bc <__adddf3+0x230>
 80004b0:	0040      	lsls	r0, r0, #1
 80004b2:	4149      	adcs	r1, r1
 80004b4:	bf28      	it	cs
 80004b6:	f041 4100 	orrcs.w	r1, r1, #2147483648	; 0x80000000
 80004ba:	bd30      	pop	{r4, r5, pc}
 80004bc:	f514 0480 	adds.w	r4, r4, #4194304	; 0x400000
 80004c0:	bf3c      	itt	cc
 80004c2:	f501 1180 	addcc.w	r1, r1, #1048576	; 0x100000
 80004c6:	bd30      	popcc	{r4, r5, pc}
 80004c8:	f001 4500 	and.w	r5, r1, #2147483648	; 0x80000000
 80004cc:	f045 41fe 	orr.w	r1, r5, #2130706432	; 0x7f000000
 80004d0:	f441 0170 	orr.w	r1, r1, #15728640	; 0xf00000
 80004d4:	f04f 0000 	mov.w	r0, #0
 80004d8:	bd30      	pop	{r4, r5, pc}
 80004da:	ea7f 5c64 	mvns.w	ip, r4, asr #21
 80004de:	bf1a      	itte	ne
 80004e0:	4619      	movne	r1, r3
 80004e2:	4610      	movne	r0, r2
 80004e4:	ea7f 5c65 	mvnseq.w	ip, r5, asr #21
 80004e8:	bf1c      	itt	ne
 80004ea:	460b      	movne	r3, r1
 80004ec:	4602      	movne	r2, r0
 80004ee:	ea50 3401 	orrs.w	r4, r0, r1, lsl #12
 80004f2:	bf06      	itte	eq
 80004f4:	ea52 3503 	orrseq.w	r5, r2, r3, lsl #12
 80004f8:	ea91 0f03 	teqeq	r1, r3
 80004fc:	f441 2100 	orrne.w	r1, r1, #524288	; 0x80000
 8000500:	bd30      	pop	{r4, r5, pc}
 8000502:	bf00      	nop

08000504 <__aeabi_ui2d>:
 8000504:	f090 0f00 	teq	r0, #0
 8000508:	bf04      	itt	eq
 800050a:	2100      	moveq	r1, #0
 800050c:	4770      	bxeq	lr
 800050e:	b530      	push	{r4, r5, lr}
 8000510:	f44f 6480 	mov.w	r4, #1024	; 0x400
 8000514:	f104 0432 	add.w	r4, r4, #50	; 0x32
 8000518:	f04f 0500 	mov.w	r5, #0
 800051c:	f04f 0100 	mov.w	r1, #0
 8000520:	e750      	b.n	80003c4 <__adddf3+0x138>
 8000522:	bf00      	nop

08000524 <__aeabi_i2d>:
 8000524:	f090 0f00 	teq	r0, #0
 8000528:	bf04      	itt	eq
 800052a:	2100      	moveq	r1, #0
 800052c:	4770      	bxeq	lr
 800052e:	b530      	push	{r4, r5, lr}
 8000530:	f44f 6480 	mov.w	r4, #1024	; 0x400
 8000534:	f104 0432 	add.w	r4, r4, #50	; 0x32
 8000538:	f010 4500 	ands.w	r5, r0, #2147483648	; 0x80000000
 800053c:	bf48      	it	mi
 800053e:	4240      	negmi	r0, r0
 8000540:	f04f 0100 	mov.w	r1, #0
 8000544:	e73e      	b.n	80003c4 <__adddf3+0x138>
 8000546:	bf00      	nop

08000548 <__aeabi_f2d>:
 8000548:	0042      	lsls	r2, r0, #1
 800054a:	ea4f 01e2 	mov.w	r1, r2, asr #3
 800054e:	ea4f 0131 	mov.w	r1, r1, rrx
 8000552:	ea4f 7002 	mov.w	r0, r2, lsl #28
 8000556:	bf1f      	itttt	ne
 8000558:	f012 437f 	andsne.w	r3, r2, #4278190080	; 0xff000000
 800055c:	f093 4f7f 	teqne	r3, #4278190080	; 0xff000000
 8000560:	f081 5160 	eorne.w	r1, r1, #939524096	; 0x38000000
 8000564:	4770      	bxne	lr
 8000566:	f032 427f 	bics.w	r2, r2, #4278190080	; 0xff000000
 800056a:	bf08      	it	eq
 800056c:	4770      	bxeq	lr
 800056e:	f093 4f7f 	teq	r3, #4278190080	; 0xff000000
 8000572:	bf04      	itt	eq
 8000574:	f441 2100 	orreq.w	r1, r1, #524288	; 0x80000
 8000578:	4770      	bxeq	lr
 800057a:	b530      	push	{r4, r5, lr}
 800057c:	f44f 7460 	mov.w	r4, #896	; 0x380
 8000580:	f001 4500 	and.w	r5, r1, #2147483648	; 0x80000000
 8000584:	f021 4100 	bic.w	r1, r1, #2147483648	; 0x80000000
 8000588:	e71c      	b.n	80003c4 <__adddf3+0x138>
 800058a:	bf00      	nop

0800058c <__aeabi_ul2d>:
 800058c:	ea50 0201 	orrs.w	r2, r0, r1
 8000590:	bf08      	it	eq
 8000592:	4770      	bxeq	lr
 8000594:	b530      	push	{r4, r5, lr}
 8000596:	f04f 0500 	mov.w	r5, #0
 800059a:	e00a      	b.n	80005b2 <__aeabi_l2d+0x16>

0800059c <__aeabi_l2d>:
 800059c:	ea50 0201 	orrs.w	r2, r0, r1
 80005a0:	bf08      	it	eq
 80005a2:	4770      	bxeq	lr
 80005a4:	b530      	push	{r4, r5, lr}
 80005a6:	f011 4500 	ands.w	r5, r1, #2147483648	; 0x80000000
 80005aa:	d502      	bpl.n	80005b2 <__aeabi_l2d+0x16>
 80005ac:	4240      	negs	r0, r0
 80005ae:	eb61 0141 	sbc.w	r1, r1, r1, lsl #1
 80005b2:	f44f 6480 	mov.w	r4, #1024	; 0x400
 80005b6:	f104 0432 	add.w	r4, r4, #50	; 0x32
 80005ba:	ea5f 5c91 	movs.w	ip, r1, lsr #22
 80005be:	f43f aed8 	beq.w	8000372 <__adddf3+0xe6>
 80005c2:	f04f 0203 	mov.w	r2, #3
 80005c6:	ea5f 0cdc 	movs.w	ip, ip, lsr #3
 80005ca:	bf18      	it	ne
 80005cc:	3203      	addne	r2, #3
 80005ce:	ea5f 0cdc 	movs.w	ip, ip, lsr #3
 80005d2:	bf18      	it	ne
 80005d4:	3203      	addne	r2, #3
 80005d6:	eb02 02dc 	add.w	r2, r2, ip, lsr #3
 80005da:	f1c2 0320 	rsb	r3, r2, #32
 80005de:	fa00 fc03 	lsl.w	ip, r0, r3
 80005e2:	fa20 f002 	lsr.w	r0, r0, r2
 80005e6:	fa01 fe03 	lsl.w	lr, r1, r3
 80005ea:	ea40 000e 	orr.w	r0, r0, lr
 80005ee:	fa21 f102 	lsr.w	r1, r1, r2
 80005f2:	4414      	add	r4, r2
 80005f4:	e6bd      	b.n	8000372 <__adddf3+0xe6>
 80005f6:	bf00      	nop

080005f8 <__aeabi_dmul>:
 80005f8:	b570      	push	{r4, r5, r6, lr}
 80005fa:	f04f 0cff 	mov.w	ip, #255	; 0xff
 80005fe:	f44c 6ce0 	orr.w	ip, ip, #1792	; 0x700
 8000602:	ea1c 5411 	ands.w	r4, ip, r1, lsr #20
 8000606:	bf1d      	ittte	ne
 8000608:	ea1c 5513 	andsne.w	r5, ip, r3, lsr #20
 800060c:	ea94 0f0c 	teqne	r4, ip
 8000610:	ea95 0f0c 	teqne	r5, ip
 8000614:	f000 f8de 	bleq	80007d4 <__aeabi_dmul+0x1dc>
 8000618:	442c      	add	r4, r5
 800061a:	ea81 0603 	eor.w	r6, r1, r3
 800061e:	ea21 514c 	bic.w	r1, r1, ip, lsl #21
 8000622:	ea23 534c 	bic.w	r3, r3, ip, lsl #21
 8000626:	ea50 3501 	orrs.w	r5, r0, r1, lsl #12
 800062a:	bf18      	it	ne
 800062c:	ea52 3503 	orrsne.w	r5, r2, r3, lsl #12
 8000630:	f441 1180 	orr.w	r1, r1, #1048576	; 0x100000
 8000634:	f443 1380 	orr.w	r3, r3, #1048576	; 0x100000
 8000638:	d038      	beq.n	80006ac <__aeabi_dmul+0xb4>
 800063a:	fba0 ce02 	umull	ip, lr, r0, r2
 800063e:	f04f 0500 	mov.w	r5, #0
 8000642:	fbe1 e502 	umlal	lr, r5, r1, r2
 8000646:	f006 4200 	and.w	r2, r6, #2147483648	; 0x80000000
 800064a:	fbe0 e503 	umlal	lr, r5, r0, r3
 800064e:	f04f 0600 	mov.w	r6, #0
 8000652:	fbe1 5603 	umlal	r5, r6, r1, r3
 8000656:	f09c 0f00 	teq	ip, #0
 800065a:	bf18      	it	ne
 800065c:	f04e 0e01 	orrne.w	lr, lr, #1
 8000660:	f1a4 04ff 	sub.w	r4, r4, #255	; 0xff
 8000664:	f5b6 7f00 	cmp.w	r6, #512	; 0x200
 8000668:	f564 7440 	sbc.w	r4, r4, #768	; 0x300
 800066c:	d204      	bcs.n	8000678 <__aeabi_dmul+0x80>
 800066e:	ea5f 0e4e 	movs.w	lr, lr, lsl #1
 8000672:	416d      	adcs	r5, r5
 8000674:	eb46 0606 	adc.w	r6, r6, r6
 8000678:	ea42 21c6 	orr.w	r1, r2, r6, lsl #11
 800067c:	ea41 5155 	orr.w	r1, r1, r5, lsr #21
 8000680:	ea4f 20c5 	mov.w	r0, r5, lsl #11
 8000684:	ea40 505e 	orr.w	r0, r0, lr, lsr #21
 8000688:	ea4f 2ece 	mov.w	lr, lr, lsl #11
 800068c:	f1b4 0cfd 	subs.w	ip, r4, #253	; 0xfd
 8000690:	bf88      	it	hi
 8000692:	f5bc 6fe0 	cmphi.w	ip, #1792	; 0x700
 8000696:	d81e      	bhi.n	80006d6 <__aeabi_dmul+0xde>
 8000698:	f1be 4f00 	cmp.w	lr, #2147483648	; 0x80000000
 800069c:	bf08      	it	eq
 800069e:	ea5f 0e50 	movseq.w	lr, r0, lsr #1
 80006a2:	f150 0000 	adcs.w	r0, r0, #0
 80006a6:	eb41 5104 	adc.w	r1, r1, r4, lsl #20
 80006aa:	bd70      	pop	{r4, r5, r6, pc}
 80006ac:	f006 4600 	and.w	r6, r6, #2147483648	; 0x80000000
 80006b0:	ea46 0101 	orr.w	r1, r6, r1
 80006b4:	ea40 0002 	orr.w	r0, r0, r2
 80006b8:	ea81 0103 	eor.w	r1, r1, r3
 80006bc:	ebb4 045c 	subs.w	r4, r4, ip, lsr #1
 80006c0:	bfc2      	ittt	gt
 80006c2:	ebd4 050c 	rsbsgt	r5, r4, ip
 80006c6:	ea41 5104 	orrgt.w	r1, r1, r4, lsl #20
 80006ca:	bd70      	popgt	{r4, r5, r6, pc}
 80006cc:	f441 1180 	orr.w	r1, r1, #1048576	; 0x100000
 80006d0:	f04f 0e00 	mov.w	lr, #0
 80006d4:	3c01      	subs	r4, #1
 80006d6:	f300 80ab 	bgt.w	8000830 <__aeabi_dmul+0x238>
 80006da:	f114 0f36 	cmn.w	r4, #54	; 0x36
 80006de:	bfde      	ittt	le
 80006e0:	2000      	movle	r0, #0
 80006e2:	f001 4100 	andle.w	r1, r1, #2147483648	; 0x80000000
 80006e6:	bd70      	pople	{r4, r5, r6, pc}
 80006e8:	f1c4 0400 	rsb	r4, r4, #0
 80006ec:	3c20      	subs	r4, #32
 80006ee:	da35      	bge.n	800075c <__aeabi_dmul+0x164>
 80006f0:	340c      	adds	r4, #12
 80006f2:	dc1b      	bgt.n	800072c <__aeabi_dmul+0x134>
 80006f4:	f104 0414 	add.w	r4, r4, #20
 80006f8:	f1c4 0520 	rsb	r5, r4, #32
 80006fc:	fa00 f305 	lsl.w	r3, r0, r5
 8000700:	fa20 f004 	lsr.w	r0, r0, r4
 8000704:	fa01 f205 	lsl.w	r2, r1, r5
 8000708:	ea40 0002 	orr.w	r0, r0, r2
 800070c:	f001 4200 	and.w	r2, r1, #2147483648	; 0x80000000
 8000710:	f021 4100 	bic.w	r1, r1, #2147483648	; 0x80000000
 8000714:	eb10 70d3 	adds.w	r0, r0, r3, lsr #31
 8000718:	fa21 f604 	lsr.w	r6, r1, r4
 800071c:	eb42 0106 	adc.w	r1, r2, r6
 8000720:	ea5e 0e43 	orrs.w	lr, lr, r3, lsl #1
 8000724:	bf08      	it	eq
 8000726:	ea20 70d3 	biceq.w	r0, r0, r3, lsr #31
 800072a:	bd70      	pop	{r4, r5, r6, pc}
 800072c:	f1c4 040c 	rsb	r4, r4, #12
 8000730:	f1c4 0520 	rsb	r5, r4, #32
 8000734:	fa00 f304 	lsl.w	r3, r0, r4
 8000738:	fa20 f005 	lsr.w	r0, r0, r5
 800073c:	fa01 f204 	lsl.w	r2, r1, r4
 8000740:	ea40 0002 	orr.w	r0, r0, r2
 8000744:	f001 4100 	and.w	r1, r1, #2147483648	; 0x80000000
 8000748:	eb10 70d3 	adds.w	r0, r0, r3, lsr #31
 800074c:	f141 0100 	adc.w	r1, r1, #0
 8000750:	ea5e 0e43 	orrs.w	lr, lr, r3, lsl #1
 8000754:	bf08      	it	eq
 8000756:	ea20 70d3 	biceq.w	r0, r0, r3, lsr #31
 800075a:	bd70      	pop	{r4, r5, r6, pc}
 800075c:	f1c4 0520 	rsb	r5, r4, #32
 8000760:	fa00 f205 	lsl.w	r2, r0, r5
 8000764:	ea4e 0e02 	orr.w	lr, lr, r2
 8000768:	fa20 f304 	lsr.w	r3, r0, r4
 800076c:	fa01 f205 	lsl.w	r2, r1, r5
 8000770:	ea43 0302 	orr.w	r3, r3, r2
 8000774:	fa21 f004 	lsr.w	r0, r1, r4
 8000778:	f001 4100 	and.w	r1, r1, #2147483648	; 0x80000000
 800077c:	fa21 f204 	lsr.w	r2, r1, r4
 8000780:	ea20 0002 	bic.w	r0, r0, r2
 8000784:	eb00 70d3 	add.w	r0, r0, r3, lsr #31
 8000788:	ea5e 0e43 	orrs.w	lr, lr, r3, lsl #1
 800078c:	bf08      	it	eq
 800078e:	ea20 70d3 	biceq.w	r0, r0, r3, lsr #31
 8000792:	bd70      	pop	{r4, r5, r6, pc}
 8000794:	f094 0f00 	teq	r4, #0
 8000798:	d10f      	bne.n	80007ba <__aeabi_dmul+0x1c2>
 800079a:	f001 4600 	and.w	r6, r1, #2147483648	; 0x80000000
 800079e:	0040      	lsls	r0, r0, #1
 80007a0:	eb41 0101 	adc.w	r1, r1, r1
 80007a4:	f411 1f80 	tst.w	r1, #1048576	; 0x100000
 80007a8:	bf08      	it	eq
 80007aa:	3c01      	subeq	r4, #1
 80007ac:	d0f7      	beq.n	800079e <__aeabi_dmul+0x1a6>
 80007ae:	ea41 0106 	orr.w	r1, r1, r6
 80007b2:	f095 0f00 	teq	r5, #0
 80007b6:	bf18      	it	ne
 80007b8:	4770      	bxne	lr
 80007ba:	f003 4600 	and.w	r6, r3, #2147483648	; 0x80000000
 80007be:	0052      	lsls	r2, r2, #1
 80007c0:	eb43 0303 	adc.w	r3, r3, r3
 80007c4:	f413 1f80 	tst.w	r3, #1048576	; 0x100000
 80007c8:	bf08      	it	eq
 80007ca:	3d01      	subeq	r5, #1
 80007cc:	d0f7      	beq.n	80007be <__aeabi_dmul+0x1c6>
 80007ce:	ea43 0306 	orr.w	r3, r3, r6
 80007d2:	4770      	bx	lr
 80007d4:	ea94 0f0c 	teq	r4, ip
 80007d8:	ea0c 5513 	and.w	r5, ip, r3, lsr #20
 80007dc:	bf18      	it	ne
 80007de:	ea95 0f0c 	teqne	r5, ip
 80007e2:	d00c      	beq.n	80007fe <__aeabi_dmul+0x206>
 80007e4:	ea50 0641 	orrs.w	r6, r0, r1, lsl #1
 80007e8:	bf18      	it	ne
 80007ea:	ea52 0643 	orrsne.w	r6, r2, r3, lsl #1
 80007ee:	d1d1      	bne.n	8000794 <__aeabi_dmul+0x19c>
 80007f0:	ea81 0103 	eor.w	r1, r1, r3
 80007f4:	f001 4100 	and.w	r1, r1, #2147483648	; 0x80000000
 80007f8:	f04f 0000 	mov.w	r0, #0
 80007fc:	bd70      	pop	{r4, r5, r6, pc}
 80007fe:	ea50 0641 	orrs.w	r6, r0, r1, lsl #1
 8000802:	bf06      	itte	eq
 8000804:	4610      	moveq	r0, r2
 8000806:	4619      	moveq	r1, r3
 8000808:	ea52 0643 	orrsne.w	r6, r2, r3, lsl #1
 800080c:	d019      	beq.n	8000842 <__aeabi_dmul+0x24a>
 800080e:	ea94 0f0c 	teq	r4, ip
 8000812:	d102      	bne.n	800081a <__aeabi_dmul+0x222>
 8000814:	ea50 3601 	orrs.w	r6, r0, r1, lsl #12
 8000818:	d113      	bne.n	8000842 <__aeabi_dmul+0x24a>
 800081a:	ea95 0f0c 	teq	r5, ip
 800081e:	d105      	bne.n	800082c <__aeabi_dmul+0x234>
 8000820:	ea52 3603 	orrs.w	r6, r2, r3, lsl #12
 8000824:	bf1c      	itt	ne
 8000826:	4610      	movne	r0, r2
 8000828:	4619      	movne	r1, r3
 800082a:	d10a      	bne.n	8000842 <__aeabi_dmul+0x24a>
 800082c:	ea81 0103 	eor.w	r1, r1, r3
 8000830:	f001 4100 	and.w	r1, r1, #2147483648	; 0x80000000
 8000834:	f041 41fe 	orr.w	r1, r1, #2130706432	; 0x7f000000
 8000838:	f441 0170 	orr.w	r1, r1, #15728640	; 0xf00000
 800083c:	f04f 0000 	mov.w	r0, #0
 8000840:	bd70      	pop	{r4, r5, r6, pc}
 8000842:	f041 41fe 	orr.w	r1, r1, #2130706432	; 0x7f000000
 8000846:	f441 0178 	orr.w	r1, r1, #16252928	; 0xf80000
 800084a:	bd70      	pop	{r4, r5, r6, pc}

0800084c <__aeabi_ddiv>:
 800084c:	b570      	push	{r4, r5, r6, lr}
 800084e:	f04f 0cff 	mov.w	ip, #255	; 0xff
 8000852:	f44c 6ce0 	orr.w	ip, ip, #1792	; 0x700
 8000856:	ea1c 5411 	ands.w	r4, ip, r1, lsr #20
 800085a:	bf1d      	ittte	ne
 800085c:	ea1c 5513 	andsne.w	r5, ip, r3, lsr #20
 8000860:	ea94 0f0c 	teqne	r4, ip
 8000864:	ea95 0f0c 	teqne	r5, ip
 8000868:	f000 f8a7 	bleq	80009ba <__aeabi_ddiv+0x16e>
 800086c:	eba4 0405 	sub.w	r4, r4, r5
 8000870:	ea81 0e03 	eor.w	lr, r1, r3
 8000874:	ea52 3503 	orrs.w	r5, r2, r3, lsl #12
 8000878:	ea4f 3101 	mov.w	r1, r1, lsl #12
 800087c:	f000 8088 	beq.w	8000990 <__aeabi_ddiv+0x144>
 8000880:	ea4f 3303 	mov.w	r3, r3, lsl #12
 8000884:	f04f 5580 	mov.w	r5, #268435456	; 0x10000000
 8000888:	ea45 1313 	orr.w	r3, r5, r3, lsr #4
 800088c:	ea43 6312 	orr.w	r3, r3, r2, lsr #24
 8000890:	ea4f 2202 	mov.w	r2, r2, lsl #8
 8000894:	ea45 1511 	orr.w	r5, r5, r1, lsr #4
 8000898:	ea45 6510 	orr.w	r5, r5, r0, lsr #24
 800089c:	ea4f 2600 	mov.w	r6, r0, lsl #8
 80008a0:	f00e 4100 	and.w	r1, lr, #2147483648	; 0x80000000
 80008a4:	429d      	cmp	r5, r3
 80008a6:	bf08      	it	eq
 80008a8:	4296      	cmpeq	r6, r2
 80008aa:	f144 04fd 	adc.w	r4, r4, #253	; 0xfd
 80008ae:	f504 7440 	add.w	r4, r4, #768	; 0x300
 80008b2:	d202      	bcs.n	80008ba <__aeabi_ddiv+0x6e>
 80008b4:	085b      	lsrs	r3, r3, #1
 80008b6:	ea4f 0232 	mov.w	r2, r2, rrx
 80008ba:	1ab6      	subs	r6, r6, r2
 80008bc:	eb65 0503 	sbc.w	r5, r5, r3
 80008c0:	085b      	lsrs	r3, r3, #1
 80008c2:	ea4f 0232 	mov.w	r2, r2, rrx
 80008c6:	f44f 1080 	mov.w	r0, #1048576	; 0x100000
 80008ca:	f44f 2c00 	mov.w	ip, #524288	; 0x80000
 80008ce:	ebb6 0e02 	subs.w	lr, r6, r2
 80008d2:	eb75 0e03 	sbcs.w	lr, r5, r3
 80008d6:	bf22      	ittt	cs
 80008d8:	1ab6      	subcs	r6, r6, r2
 80008da:	4675      	movcs	r5, lr
 80008dc:	ea40 000c 	orrcs.w	r0, r0, ip
 80008e0:	085b      	lsrs	r3, r3, #1
 80008e2:	ea4f 0232 	mov.w	r2, r2, rrx
 80008e6:	ebb6 0e02 	subs.w	lr, r6, r2
 80008ea:	eb75 0e03 	sbcs.w	lr, r5, r3
 80008ee:	bf22      	ittt	cs
 80008f0:	1ab6      	subcs	r6, r6, r2
 80008f2:	4675      	movcs	r5, lr
 80008f4:	ea40 005c 	orrcs.w	r0, r0, ip, lsr #1
 80008f8:	085b      	lsrs	r3, r3, #1
 80008fa:	ea4f 0232 	mov.w	r2, r2, rrx
 80008fe:	ebb6 0e02 	subs.w	lr, r6, r2
 8000902:	eb75 0e03 	sbcs.w	lr, r5, r3
 8000906:	bf22      	ittt	cs
 8000908:	1ab6      	subcs	r6, r6, r2
 800090a:	4675      	movcs	r5, lr
 800090c:	ea40 009c 	orrcs.w	r0, r0, ip, lsr #2
 8000910:	085b      	lsrs	r3, r3, #1
 8000912:	ea4f 0232 	mov.w	r2, r2, rrx
 8000916:	ebb6 0e02 	subs.w	lr, r6, r2
 800091a:	eb75 0e03 	sbcs.w	lr, r5, r3
 800091e:	bf22      	ittt	cs
 8000920:	1ab6      	subcs	r6, r6, r2
 8000922:	4675      	movcs	r5, lr
 8000924:	ea40 00dc 	orrcs.w	r0, r0, ip, lsr #3
 8000928:	ea55 0e06 	orrs.w	lr, r5, r6
 800092c:	d018      	beq.n	8000960 <__aeabi_ddiv+0x114>
 800092e:	ea4f 1505 	mov.w	r5, r5, lsl #4
 8000932:	ea45 7516 	orr.w	r5, r5, r6, lsr #28
 8000936:	ea4f 1606 	mov.w	r6, r6, lsl #4
 800093a:	ea4f 03c3 	mov.w	r3, r3, lsl #3
 800093e:	ea43 7352 	orr.w	r3, r3, r2, lsr #29
 8000942:	ea4f 02c2 	mov.w	r2, r2, lsl #3
 8000946:	ea5f 1c1c 	movs.w	ip, ip, lsr #4
 800094a:	d1c0      	bne.n	80008ce <__aeabi_ddiv+0x82>
 800094c:	f411 1f80 	tst.w	r1, #1048576	; 0x100000
 8000950:	d10b      	bne.n	800096a <__aeabi_ddiv+0x11e>
 8000952:	ea41 0100 	orr.w	r1, r1, r0
 8000956:	f04f 0000 	mov.w	r0, #0
 800095a:	f04f 4c00 	mov.w	ip, #2147483648	; 0x80000000
 800095e:	e7b6      	b.n	80008ce <__aeabi_ddiv+0x82>
 8000960:	f411 1f80 	tst.w	r1, #1048576	; 0x100000
 8000964:	bf04      	itt	eq
 8000966:	4301      	orreq	r1, r0
 8000968:	2000      	moveq	r0, #0
 800096a:	f1b4 0cfd 	subs.w	ip, r4, #253	; 0xfd
 800096e:	bf88      	it	hi
 8000970:	f5bc 6fe0 	cmphi.w	ip, #1792	; 0x700
 8000974:	f63f aeaf 	bhi.w	80006d6 <__aeabi_dmul+0xde>
 8000978:	ebb5 0c03 	subs.w	ip, r5, r3
 800097c:	bf04      	itt	eq
 800097e:	ebb6 0c02 	subseq.w	ip, r6, r2
 8000982:	ea5f 0c50 	movseq.w	ip, r0, lsr #1
 8000986:	f150 0000 	adcs.w	r0, r0, #0
 800098a:	eb41 5104 	adc.w	r1, r1, r4, lsl #20
 800098e:	bd70      	pop	{r4, r5, r6, pc}
 8000990:	f00e 4e00 	and.w	lr, lr, #2147483648	; 0x80000000
 8000994:	ea4e 3111 	orr.w	r1, lr, r1, lsr #12
 8000998:	eb14 045c 	adds.w	r4, r4, ip, lsr #1
 800099c:	bfc2      	ittt	gt
 800099e:	ebd4 050c 	rsbsgt	r5, r4, ip
 80009a2:	ea41 5104 	orrgt.w	r1, r1, r4, lsl #20
 80009a6:	bd70      	popgt	{r4, r5, r6, pc}
 80009a8:	f441 1180 	orr.w	r1, r1, #1048576	; 0x100000
 80009ac:	f04f 0e00 	mov.w	lr, #0
 80009b0:	3c01      	subs	r4, #1
 80009b2:	e690      	b.n	80006d6 <__aeabi_dmul+0xde>
 80009b4:	ea45 0e06 	orr.w	lr, r5, r6
 80009b8:	e68d      	b.n	80006d6 <__aeabi_dmul+0xde>
 80009ba:	ea0c 5513 	and.w	r5, ip, r3, lsr #20
 80009be:	ea94 0f0c 	teq	r4, ip
 80009c2:	bf08      	it	eq
 80009c4:	ea95 0f0c 	teqeq	r5, ip
 80009c8:	f43f af3b 	beq.w	8000842 <__aeabi_dmul+0x24a>
 80009cc:	ea94 0f0c 	teq	r4, ip
 80009d0:	d10a      	bne.n	80009e8 <__aeabi_ddiv+0x19c>
 80009d2:	ea50 3401 	orrs.w	r4, r0, r1, lsl #12
 80009d6:	f47f af34 	bne.w	8000842 <__aeabi_dmul+0x24a>
 80009da:	ea95 0f0c 	teq	r5, ip
 80009de:	f47f af25 	bne.w	800082c <__aeabi_dmul+0x234>
 80009e2:	4610      	mov	r0, r2
 80009e4:	4619      	mov	r1, r3
 80009e6:	e72c      	b.n	8000842 <__aeabi_dmul+0x24a>
 80009e8:	ea95 0f0c 	teq	r5, ip
 80009ec:	d106      	bne.n	80009fc <__aeabi_ddiv+0x1b0>
 80009ee:	ea52 3503 	orrs.w	r5, r2, r3, lsl #12
 80009f2:	f43f aefd 	beq.w	80007f0 <__aeabi_dmul+0x1f8>
 80009f6:	4610      	mov	r0, r2
 80009f8:	4619      	mov	r1, r3
 80009fa:	e722      	b.n	8000842 <__aeabi_dmul+0x24a>
 80009fc:	ea50 0641 	orrs.w	r6, r0, r1, lsl #1
 8000a00:	bf18      	it	ne
 8000a02:	ea52 0643 	orrsne.w	r6, r2, r3, lsl #1
 8000a06:	f47f aec5 	bne.w	8000794 <__aeabi_dmul+0x19c>
 8000a0a:	ea50 0441 	orrs.w	r4, r0, r1, lsl #1
 8000a0e:	f47f af0d 	bne.w	800082c <__aeabi_dmul+0x234>
 8000a12:	ea52 0543 	orrs.w	r5, r2, r3, lsl #1
 8000a16:	f47f aeeb 	bne.w	80007f0 <__aeabi_dmul+0x1f8>
 8000a1a:	e712      	b.n	8000842 <__aeabi_dmul+0x24a>

08000a1c <__gedf2>:
 8000a1c:	f04f 3cff 	mov.w	ip, #4294967295
 8000a20:	e006      	b.n	8000a30 <__cmpdf2+0x4>
 8000a22:	bf00      	nop

08000a24 <__ledf2>:
 8000a24:	f04f 0c01 	mov.w	ip, #1
 8000a28:	e002      	b.n	8000a30 <__cmpdf2+0x4>
 8000a2a:	bf00      	nop

08000a2c <__cmpdf2>:
 8000a2c:	f04f 0c01 	mov.w	ip, #1
 8000a30:	f84d cd04 	str.w	ip, [sp, #-4]!
 8000a34:	ea4f 0c41 	mov.w	ip, r1, lsl #1
 8000a38:	ea7f 5c6c 	mvns.w	ip, ip, asr #21
 8000a3c:	ea4f 0c43 	mov.w	ip, r3, lsl #1
 8000a40:	bf18      	it	ne
 8000a42:	ea7f 5c6c 	mvnsne.w	ip, ip, asr #21
 8000a46:	d01b      	beq.n	8000a80 <__cmpdf2+0x54>
 8000a48:	b001      	add	sp, #4
 8000a4a:	ea50 0c41 	orrs.w	ip, r0, r1, lsl #1
 8000a4e:	bf0c      	ite	eq
 8000a50:	ea52 0c43 	orrseq.w	ip, r2, r3, lsl #1
 8000a54:	ea91 0f03 	teqne	r1, r3
 8000a58:	bf02      	ittt	eq
 8000a5a:	ea90 0f02 	teqeq	r0, r2
 8000a5e:	2000      	moveq	r0, #0
 8000a60:	4770      	bxeq	lr
 8000a62:	f110 0f00 	cmn.w	r0, #0
 8000a66:	ea91 0f03 	teq	r1, r3
 8000a6a:	bf58      	it	pl
 8000a6c:	4299      	cmppl	r1, r3
 8000a6e:	bf08      	it	eq
 8000a70:	4290      	cmpeq	r0, r2
 8000a72:	bf2c      	ite	cs
 8000a74:	17d8      	asrcs	r0, r3, #31
 8000a76:	ea6f 70e3 	mvncc.w	r0, r3, asr #31
 8000a7a:	f040 0001 	orr.w	r0, r0, #1
 8000a7e:	4770      	bx	lr
 8000a80:	ea4f 0c41 	mov.w	ip, r1, lsl #1
 8000a84:	ea7f 5c6c 	mvns.w	ip, ip, asr #21
 8000a88:	d102      	bne.n	8000a90 <__cmpdf2+0x64>
 8000a8a:	ea50 3c01 	orrs.w	ip, r0, r1, lsl #12
 8000a8e:	d107      	bne.n	8000aa0 <__cmpdf2+0x74>
 8000a90:	ea4f 0c43 	mov.w	ip, r3, lsl #1
 8000a94:	ea7f 5c6c 	mvns.w	ip, ip, asr #21
 8000a98:	d1d6      	bne.n	8000a48 <__cmpdf2+0x1c>
 8000a9a:	ea52 3c03 	orrs.w	ip, r2, r3, lsl #12
 8000a9e:	d0d3      	beq.n	8000a48 <__cmpdf2+0x1c>
 8000aa0:	f85d 0b04 	ldr.w	r0, [sp], #4
 8000aa4:	4770      	bx	lr
 8000aa6:	bf00      	nop

08000aa8 <__aeabi_cdrcmple>:
 8000aa8:	4684      	mov	ip, r0
 8000aaa:	4610      	mov	r0, r2
 8000aac:	4662      	mov	r2, ip
 8000aae:	468c      	mov	ip, r1
 8000ab0:	4619      	mov	r1, r3
 8000ab2:	4663      	mov	r3, ip
 8000ab4:	e000      	b.n	8000ab8 <__aeabi_cdcmpeq>
 8000ab6:	bf00      	nop

08000ab8 <__aeabi_cdcmpeq>:
 8000ab8:	b501      	push	{r0, lr}
 8000aba:	f7ff ffb7 	bl	8000a2c <__cmpdf2>
 8000abe:	2800      	cmp	r0, #0
 8000ac0:	bf48      	it	mi
 8000ac2:	f110 0f00 	cmnmi.w	r0, #0
 8000ac6:	bd01      	pop	{r0, pc}

08000ac8 <__aeabi_dcmpeq>:
 8000ac8:	f84d ed08 	str.w	lr, [sp, #-8]!
 8000acc:	f7ff fff4 	bl	8000ab8 <__aeabi_cdcmpeq>
 8000ad0:	bf0c      	ite	eq
 8000ad2:	2001      	moveq	r0, #1
 8000ad4:	2000      	movne	r0, #0
 8000ad6:	f85d fb08 	ldr.w	pc, [sp], #8
 8000ada:	bf00      	nop

08000adc <__aeabi_dcmplt>:
 8000adc:	f84d ed08 	str.w	lr, [sp, #-8]!
 8000ae0:	f7ff ffea 	bl	8000ab8 <__aeabi_cdcmpeq>
 8000ae4:	bf34      	ite	cc
 8000ae6:	2001      	movcc	r0, #1
 8000ae8:	2000      	movcs	r0, #0
 8000aea:	f85d fb08 	ldr.w	pc, [sp], #8
 8000aee:	bf00      	nop

08000af0 <__aeabi_dcmple>:
 8000af0:	f84d ed08 	str.w	lr, [sp, #-8]!
 8000af4:	f7ff ffe0 	bl	8000ab8 <__aeabi_cdcmpeq>
 8000af8:	bf94      	ite	ls
 8000afa:	2001      	movls	r0, #1
 8000afc:	2000      	movhi	r0, #0
 8000afe:	f85d fb08 	ldr.w	pc, [sp], #8
 8000b02:	bf00      	nop

08000b04 <__aeabi_dcmpge>:
 8000b04:	f84d ed08 	str.w	lr, [sp, #-8]!
 8000b08:	f7ff ffce 	bl	8000aa8 <__aeabi_cdrcmple>
 8000b0c:	bf94      	ite	ls
 8000b0e:	2001      	movls	r0, #1
 8000b10:	2000      	movhi	r0, #0
 8000b12:	f85d fb08 	ldr.w	pc, [sp], #8
 8000b16:	bf00      	nop

08000b18 <__aeabi_dcmpgt>:
 8000b18:	f84d ed08 	str.w	lr, [sp, #-8]!
 8000b1c:	f7ff ffc4 	bl	8000aa8 <__aeabi_cdrcmple>
 8000b20:	bf34      	ite	cc
 8000b22:	2001      	movcc	r0, #1
 8000b24:	2000      	movcs	r0, #0
 8000b26:	f85d fb08 	ldr.w	pc, [sp], #8
 8000b2a:	bf00      	nop

08000b2c <__aeabi_dcmpun>:
 8000b2c:	ea4f 0c41 	mov.w	ip, r1, lsl #1
 8000b30:	ea7f 5c6c 	mvns.w	ip, ip, asr #21
 8000b34:	d102      	bne.n	8000b3c <__aeabi_dcmpun+0x10>
 8000b36:	ea50 3c01 	orrs.w	ip, r0, r1, lsl #12
 8000b3a:	d10a      	bne.n	8000b52 <__aeabi_dcmpun+0x26>
 8000b3c:	ea4f 0c43 	mov.w	ip, r3, lsl #1
 8000b40:	ea7f 5c6c 	mvns.w	ip, ip, asr #21
 8000b44:	d102      	bne.n	8000b4c <__aeabi_dcmpun+0x20>
 8000b46:	ea52 3c03 	orrs.w	ip, r2, r3, lsl #12
 8000b4a:	d102      	bne.n	8000b52 <__aeabi_dcmpun+0x26>
 8000b4c:	f04f 0000 	mov.w	r0, #0
 8000b50:	4770      	bx	lr
 8000b52:	f04f 0001 	mov.w	r0, #1
 8000b56:	4770      	bx	lr

08000b58 <__aeabi_d2iz>:
 8000b58:	ea4f 0241 	mov.w	r2, r1, lsl #1
 8000b5c:	f512 1200 	adds.w	r2, r2, #2097152	; 0x200000
 8000b60:	d215      	bcs.n	8000b8e <__aeabi_d2iz+0x36>
 8000b62:	d511      	bpl.n	8000b88 <__aeabi_d2iz+0x30>
 8000b64:	f46f 7378 	mvn.w	r3, #992	; 0x3e0
 8000b68:	ebb3 5262 	subs.w	r2, r3, r2, asr #21
 8000b6c:	d912      	bls.n	8000b94 <__aeabi_d2iz+0x3c>
 8000b6e:	ea4f 23c1 	mov.w	r3, r1, lsl #11
 8000b72:	f043 4300 	orr.w	r3, r3, #2147483648	; 0x80000000
 8000b76:	ea43 5350 	orr.w	r3, r3, r0, lsr #21
 8000b7a:	f011 4f00 	tst.w	r1, #2147483648	; 0x80000000
 8000b7e:	fa23 f002 	lsr.w	r0, r3, r2
 8000b82:	bf18      	it	ne
 8000b84:	4240      	negne	r0, r0
 8000b86:	4770      	bx	lr
 8000b88:	f04f 0000 	mov.w	r0, #0
 8000b8c:	4770      	bx	lr
 8000b8e:	ea50 3001 	orrs.w	r0, r0, r1, lsl #12
 8000b92:	d105      	bne.n	8000ba0 <__aeabi_d2iz+0x48>
 8000b94:	f011 4000 	ands.w	r0, r1, #2147483648	; 0x80000000
 8000b98:	bf08      	it	eq
 8000b9a:	f06f 4000 	mvneq.w	r0, #2147483648	; 0x80000000
 8000b9e:	4770      	bx	lr
 8000ba0:	f04f 0000 	mov.w	r0, #0
 8000ba4:	4770      	bx	lr
 8000ba6:	bf00      	nop

08000ba8 <__aeabi_uldivmod>:
 8000ba8:	b953      	cbnz	r3, 8000bc0 <__aeabi_uldivmod+0x18>
 8000baa:	b94a      	cbnz	r2, 8000bc0 <__aeabi_uldivmod+0x18>
 8000bac:	2900      	cmp	r1, #0
 8000bae:	bf08      	it	eq
 8000bb0:	2800      	cmpeq	r0, #0
 8000bb2:	bf1c      	itt	ne
 8000bb4:	f04f 31ff 	movne.w	r1, #4294967295
 8000bb8:	f04f 30ff 	movne.w	r0, #4294967295
 8000bbc:	f000 b974 	b.w	8000ea8 <__aeabi_idiv0>
 8000bc0:	f1ad 0c08 	sub.w	ip, sp, #8
 8000bc4:	e96d ce04 	strd	ip, lr, [sp, #-16]!
 8000bc8:	f000 f806 	bl	8000bd8 <__udivmoddi4>
 8000bcc:	f8dd e004 	ldr.w	lr, [sp, #4]
 8000bd0:	e9dd 2302 	ldrd	r2, r3, [sp, #8]
 8000bd4:	b004      	add	sp, #16
 8000bd6:	4770      	bx	lr

08000bd8 <__udivmoddi4>:
 8000bd8:	e92d 47f0 	stmdb	sp!, {r4, r5, r6, r7, r8, r9, sl, lr}
 8000bdc:	9d08      	ldr	r5, [sp, #32]
 8000bde:	4604      	mov	r4, r0
 8000be0:	468e      	mov	lr, r1
 8000be2:	2b00      	cmp	r3, #0
 8000be4:	d14d      	bne.n	8000c82 <__udivmoddi4+0xaa>
 8000be6:	428a      	cmp	r2, r1
 8000be8:	4694      	mov	ip, r2
 8000bea:	d969      	bls.n	8000cc0 <__udivmoddi4+0xe8>
 8000bec:	fab2 f282 	clz	r2, r2
 8000bf0:	b152      	cbz	r2, 8000c08 <__udivmoddi4+0x30>
 8000bf2:	fa01 f302 	lsl.w	r3, r1, r2
 8000bf6:	f1c2 0120 	rsb	r1, r2, #32
 8000bfa:	fa20 f101 	lsr.w	r1, r0, r1
 8000bfe:	fa0c fc02 	lsl.w	ip, ip, r2
 8000c02:	ea41 0e03 	orr.w	lr, r1, r3
 8000c06:	4094      	lsls	r4, r2
 8000c08:	ea4f 481c 	mov.w	r8, ip, lsr #16
 8000c0c:	0c21      	lsrs	r1, r4, #16
 8000c0e:	fbbe f6f8 	udiv	r6, lr, r8
 8000c12:	fa1f f78c 	uxth.w	r7, ip
 8000c16:	fb08 e316 	mls	r3, r8, r6, lr
 8000c1a:	ea41 4303 	orr.w	r3, r1, r3, lsl #16
 8000c1e:	fb06 f107 	mul.w	r1, r6, r7
 8000c22:	4299      	cmp	r1, r3
 8000c24:	d90a      	bls.n	8000c3c <__udivmoddi4+0x64>
 8000c26:	eb1c 0303 	adds.w	r3, ip, r3
 8000c2a:	f106 30ff 	add.w	r0, r6, #4294967295
 8000c2e:	f080 811f 	bcs.w	8000e70 <__udivmoddi4+0x298>
 8000c32:	4299      	cmp	r1, r3
 8000c34:	f240 811c 	bls.w	8000e70 <__udivmoddi4+0x298>
 8000c38:	3e02      	subs	r6, #2
 8000c3a:	4463      	add	r3, ip
 8000c3c:	1a5b      	subs	r3, r3, r1
 8000c3e:	b2a4      	uxth	r4, r4
 8000c40:	fbb3 f0f8 	udiv	r0, r3, r8
 8000c44:	fb08 3310 	mls	r3, r8, r0, r3
 8000c48:	ea44 4403 	orr.w	r4, r4, r3, lsl #16
 8000c4c:	fb00 f707 	mul.w	r7, r0, r7
 8000c50:	42a7      	cmp	r7, r4
 8000c52:	d90a      	bls.n	8000c6a <__udivmoddi4+0x92>
 8000c54:	eb1c 0404 	adds.w	r4, ip, r4
 8000c58:	f100 33ff 	add.w	r3, r0, #4294967295
 8000c5c:	f080 810a 	bcs.w	8000e74 <__udivmoddi4+0x29c>
 8000c60:	42a7      	cmp	r7, r4
 8000c62:	f240 8107 	bls.w	8000e74 <__udivmoddi4+0x29c>
 8000c66:	4464      	add	r4, ip
 8000c68:	3802      	subs	r0, #2
 8000c6a:	ea40 4006 	orr.w	r0, r0, r6, lsl #16
 8000c6e:	1be4      	subs	r4, r4, r7
 8000c70:	2600      	movs	r6, #0
 8000c72:	b11d      	cbz	r5, 8000c7c <__udivmoddi4+0xa4>
 8000c74:	40d4      	lsrs	r4, r2
 8000c76:	2300      	movs	r3, #0
 8000c78:	e9c5 4300 	strd	r4, r3, [r5]
 8000c7c:	4631      	mov	r1, r6
 8000c7e:	e8bd 87f0 	ldmia.w	sp!, {r4, r5, r6, r7, r8, r9, sl, pc}
 8000c82:	428b      	cmp	r3, r1
 8000c84:	d909      	bls.n	8000c9a <__udivmoddi4+0xc2>
 8000c86:	2d00      	cmp	r5, #0
 8000c88:	f000 80ef 	beq.w	8000e6a <__udivmoddi4+0x292>
 8000c8c:	2600      	movs	r6, #0
 8000c8e:	e9c5 0100 	strd	r0, r1, [r5]
 8000c92:	4630      	mov	r0, r6
 8000c94:	4631      	mov	r1, r6
 8000c96:	e8bd 87f0 	ldmia.w	sp!, {r4, r5, r6, r7, r8, r9, sl, pc}
 8000c9a:	fab3 f683 	clz	r6, r3
 8000c9e:	2e00      	cmp	r6, #0
 8000ca0:	d14a      	bne.n	8000d38 <__udivmoddi4+0x160>
 8000ca2:	428b      	cmp	r3, r1
 8000ca4:	d302      	bcc.n	8000cac <__udivmoddi4+0xd4>
 8000ca6:	4282      	cmp	r2, r0
 8000ca8:	f200 80f9 	bhi.w	8000e9e <__udivmoddi4+0x2c6>
 8000cac:	1a84      	subs	r4, r0, r2
 8000cae:	eb61 0303 	sbc.w	r3, r1, r3
 8000cb2:	2001      	movs	r0, #1
 8000cb4:	469e      	mov	lr, r3
 8000cb6:	2d00      	cmp	r5, #0
 8000cb8:	d0e0      	beq.n	8000c7c <__udivmoddi4+0xa4>
 8000cba:	e9c5 4e00 	strd	r4, lr, [r5]
 8000cbe:	e7dd      	b.n	8000c7c <__udivmoddi4+0xa4>
 8000cc0:	b902      	cbnz	r2, 8000cc4 <__udivmoddi4+0xec>
 8000cc2:	deff      	udf	#255	; 0xff
 8000cc4:	fab2 f282 	clz	r2, r2
 8000cc8:	2a00      	cmp	r2, #0
 8000cca:	f040 8092 	bne.w	8000df2 <__udivmoddi4+0x21a>
 8000cce:	eba1 010c 	sub.w	r1, r1, ip
 8000cd2:	ea4f 471c 	mov.w	r7, ip, lsr #16
 8000cd6:	fa1f fe8c 	uxth.w	lr, ip
 8000cda:	2601      	movs	r6, #1
 8000cdc:	0c20      	lsrs	r0, r4, #16
 8000cde:	fbb1 f3f7 	udiv	r3, r1, r7
 8000ce2:	fb07 1113 	mls	r1, r7, r3, r1
 8000ce6:	ea40 4101 	orr.w	r1, r0, r1, lsl #16
 8000cea:	fb0e f003 	mul.w	r0, lr, r3
 8000cee:	4288      	cmp	r0, r1
 8000cf0:	d908      	bls.n	8000d04 <__udivmoddi4+0x12c>
 8000cf2:	eb1c 0101 	adds.w	r1, ip, r1
 8000cf6:	f103 38ff 	add.w	r8, r3, #4294967295
 8000cfa:	d202      	bcs.n	8000d02 <__udivmoddi4+0x12a>
 8000cfc:	4288      	cmp	r0, r1
 8000cfe:	f200 80cb 	bhi.w	8000e98 <__udivmoddi4+0x2c0>
 8000d02:	4643      	mov	r3, r8
 8000d04:	1a09      	subs	r1, r1, r0
 8000d06:	b2a4      	uxth	r4, r4
 8000d08:	fbb1 f0f7 	udiv	r0, r1, r7
 8000d0c:	fb07 1110 	mls	r1, r7, r0, r1
 8000d10:	ea44 4401 	orr.w	r4, r4, r1, lsl #16
 8000d14:	fb0e fe00 	mul.w	lr, lr, r0
 8000d18:	45a6      	cmp	lr, r4
 8000d1a:	d908      	bls.n	8000d2e <__udivmoddi4+0x156>
 8000d1c:	eb1c 0404 	adds.w	r4, ip, r4
 8000d20:	f100 31ff 	add.w	r1, r0, #4294967295
 8000d24:	d202      	bcs.n	8000d2c <__udivmoddi4+0x154>
 8000d26:	45a6      	cmp	lr, r4
 8000d28:	f200 80bb 	bhi.w	8000ea2 <__udivmoddi4+0x2ca>
 8000d2c:	4608      	mov	r0, r1
 8000d2e:	eba4 040e 	sub.w	r4, r4, lr
 8000d32:	ea40 4003 	orr.w	r0, r0, r3, lsl #16
 8000d36:	e79c      	b.n	8000c72 <__udivmoddi4+0x9a>
 8000d38:	f1c6 0720 	rsb	r7, r6, #32
 8000d3c:	40b3      	lsls	r3, r6
 8000d3e:	fa22 fc07 	lsr.w	ip, r2, r7
 8000d42:	ea4c 0c03 	orr.w	ip, ip, r3
 8000d46:	fa20 f407 	lsr.w	r4, r0, r7
 8000d4a:	fa01 f306 	lsl.w	r3, r1, r6
 8000d4e:	431c      	orrs	r4, r3
 8000d50:	40f9      	lsrs	r1, r7
 8000d52:	ea4f 491c 	mov.w	r9, ip, lsr #16
 8000d56:	fa00 f306 	lsl.w	r3, r0, r6
 8000d5a:	fbb1 f8f9 	udiv	r8, r1, r9
 8000d5e:	0c20      	lsrs	r0, r4, #16
 8000d60:	fa1f fe8c 	uxth.w	lr, ip
 8000d64:	fb09 1118 	mls	r1, r9, r8, r1
 8000d68:	ea40 4101 	orr.w	r1, r0, r1, lsl #16
 8000d6c:	fb08 f00e 	mul.w	r0, r8, lr
 8000d70:	4288      	cmp	r0, r1
 8000d72:	fa02 f206 	lsl.w	r2, r2, r6
 8000d76:	d90b      	bls.n	8000d90 <__udivmoddi4+0x1b8>
 8000d78:	eb1c 0101 	adds.w	r1, ip, r1
 8000d7c:	f108 3aff 	add.w	sl, r8, #4294967295
 8000d80:	f080 8088 	bcs.w	8000e94 <__udivmoddi4+0x2bc>
 8000d84:	4288      	cmp	r0, r1
 8000d86:	f240 8085 	bls.w	8000e94 <__udivmoddi4+0x2bc>
 8000d8a:	f1a8 0802 	sub.w	r8, r8, #2
 8000d8e:	4461      	add	r1, ip
 8000d90:	1a09      	subs	r1, r1, r0
 8000d92:	b2a4      	uxth	r4, r4
 8000d94:	fbb1 f0f9 	udiv	r0, r1, r9
 8000d98:	fb09 1110 	mls	r1, r9, r0, r1
 8000d9c:	ea44 4101 	orr.w	r1, r4, r1, lsl #16
 8000da0:	fb00 fe0e 	mul.w	lr, r0, lr
 8000da4:	458e      	cmp	lr, r1
 8000da6:	d908      	bls.n	8000dba <__udivmoddi4+0x1e2>
 8000da8:	eb1c 0101 	adds.w	r1, ip, r1
 8000dac:	f100 34ff 	add.w	r4, r0, #4294967295
 8000db0:	d26c      	bcs.n	8000e8c <__udivmoddi4+0x2b4>
 8000db2:	458e      	cmp	lr, r1
 8000db4:	d96a      	bls.n	8000e8c <__udivmoddi4+0x2b4>
 8000db6:	3802      	subs	r0, #2
 8000db8:	4461      	add	r1, ip
 8000dba:	ea40 4008 	orr.w	r0, r0, r8, lsl #16
 8000dbe:	fba0 9402 	umull	r9, r4, r0, r2
 8000dc2:	eba1 010e 	sub.w	r1, r1, lr
 8000dc6:	42a1      	cmp	r1, r4
 8000dc8:	46c8      	mov	r8, r9
 8000dca:	46a6      	mov	lr, r4
 8000dcc:	d356      	bcc.n	8000e7c <__udivmoddi4+0x2a4>
 8000dce:	d053      	beq.n	8000e78 <__udivmoddi4+0x2a0>
 8000dd0:	b15d      	cbz	r5, 8000dea <__udivmoddi4+0x212>
 8000dd2:	ebb3 0208 	subs.w	r2, r3, r8
 8000dd6:	eb61 010e 	sbc.w	r1, r1, lr
 8000dda:	fa01 f707 	lsl.w	r7, r1, r7
 8000dde:	fa22 f306 	lsr.w	r3, r2, r6
 8000de2:	40f1      	lsrs	r1, r6
 8000de4:	431f      	orrs	r7, r3
 8000de6:	e9c5 7100 	strd	r7, r1, [r5]
 8000dea:	2600      	movs	r6, #0
 8000dec:	4631      	mov	r1, r6
 8000dee:	e8bd 87f0 	ldmia.w	sp!, {r4, r5, r6, r7, r8, r9, sl, pc}
 8000df2:	f1c2 0320 	rsb	r3, r2, #32
 8000df6:	40d8      	lsrs	r0, r3
 8000df8:	fa0c fc02 	lsl.w	ip, ip, r2
 8000dfc:	fa21 f303 	lsr.w	r3, r1, r3
 8000e00:	4091      	lsls	r1, r2
 8000e02:	4301      	orrs	r1, r0
 8000e04:	ea4f 471c 	mov.w	r7, ip, lsr #16
 8000e08:	fa1f fe8c 	uxth.w	lr, ip
 8000e0c:	fbb3 f0f7 	udiv	r0, r3, r7
 8000e10:	fb07 3610 	mls	r6, r7, r0, r3
 8000e14:	0c0b      	lsrs	r3, r1, #16
 8000e16:	ea43 4306 	orr.w	r3, r3, r6, lsl #16
 8000e1a:	fb00 f60e 	mul.w	r6, r0, lr
 8000e1e:	429e      	cmp	r6, r3
 8000e20:	fa04 f402 	lsl.w	r4, r4, r2
 8000e24:	d908      	bls.n	8000e38 <__udivmoddi4+0x260>
 8000e26:	eb1c 0303 	adds.w	r3, ip, r3
 8000e2a:	f100 38ff 	add.w	r8, r0, #4294967295
 8000e2e:	d22f      	bcs.n	8000e90 <__udivmoddi4+0x2b8>
 8000e30:	429e      	cmp	r6, r3
 8000e32:	d92d      	bls.n	8000e90 <__udivmoddi4+0x2b8>
 8000e34:	3802      	subs	r0, #2
 8000e36:	4463      	add	r3, ip
 8000e38:	1b9b      	subs	r3, r3, r6
 8000e3a:	b289      	uxth	r1, r1
 8000e3c:	fbb3 f6f7 	udiv	r6, r3, r7
 8000e40:	fb07 3316 	mls	r3, r7, r6, r3
 8000e44:	ea41 4103 	orr.w	r1, r1, r3, lsl #16
 8000e48:	fb06 f30e 	mul.w	r3, r6, lr
 8000e4c:	428b      	cmp	r3, r1
 8000e4e:	d908      	bls.n	8000e62 <__udivmoddi4+0x28a>
 8000e50:	eb1c 0101 	adds.w	r1, ip, r1
 8000e54:	f106 38ff 	add.w	r8, r6, #4294967295
 8000e58:	d216      	bcs.n	8000e88 <__udivmoddi4+0x2b0>
 8000e5a:	428b      	cmp	r3, r1
 8000e5c:	d914      	bls.n	8000e88 <__udivmoddi4+0x2b0>
 8000e5e:	3e02      	subs	r6, #2
 8000e60:	4461      	add	r1, ip
 8000e62:	1ac9      	subs	r1, r1, r3
 8000e64:	ea46 4600 	orr.w	r6, r6, r0, lsl #16
 8000e68:	e738      	b.n	8000cdc <__udivmoddi4+0x104>
 8000e6a:	462e      	mov	r6, r5
 8000e6c:	4628      	mov	r0, r5
 8000e6e:	e705      	b.n	8000c7c <__udivmoddi4+0xa4>
 8000e70:	4606      	mov	r6, r0
 8000e72:	e6e3      	b.n	8000c3c <__udivmoddi4+0x64>
 8000e74:	4618      	mov	r0, r3
 8000e76:	e6f8      	b.n	8000c6a <__udivmoddi4+0x92>
 8000e78:	454b      	cmp	r3, r9
 8000e7a:	d2a9      	bcs.n	8000dd0 <__udivmoddi4+0x1f8>
 8000e7c:	ebb9 0802 	subs.w	r8, r9, r2
 8000e80:	eb64 0e0c 	sbc.w	lr, r4, ip
 8000e84:	3801      	subs	r0, #1
 8000e86:	e7a3      	b.n	8000dd0 <__udivmoddi4+0x1f8>
 8000e88:	4646      	mov	r6, r8
 8000e8a:	e7ea      	b.n	8000e62 <__udivmoddi4+0x28a>
 8000e8c:	4620      	mov	r0, r4
 8000e8e:	e794      	b.n	8000dba <__udivmoddi4+0x1e2>
 8000e90:	4640      	mov	r0, r8
 8000e92:	e7d1      	b.n	8000e38 <__udivmoddi4+0x260>
 8000e94:	46d0      	mov	r8, sl
 8000e96:	e77b      	b.n	8000d90 <__udivmoddi4+0x1b8>
 8000e98:	3b02      	subs	r3, #2
 8000e9a:	4461      	add	r1, ip
 8000e9c:	e732      	b.n	8000d04 <__udivmoddi4+0x12c>
 8000e9e:	4630      	mov	r0, r6
 8000ea0:	e709      	b.n	8000cb6 <__udivmoddi4+0xde>
 8000ea2:	4464      	add	r4, ip
 8000ea4:	3802      	subs	r0, #2
 8000ea6:	e742      	b.n	8000d2e <__udivmoddi4+0x156>

08000ea8 <__aeabi_idiv0>:
 8000ea8:	4770      	bx	lr
 8000eaa:	bf00      	nop

08000eac <SystemClock_Config>:
 8000eac:	b500      	push	{lr}
 8000eae:	b097      	sub	sp, #92	; 0x5c
 8000eb0:	2244      	movs	r2, #68	; 0x44
 8000eb2:	2100      	movs	r1, #0
 8000eb4:	a805      	add	r0, sp, #20
 8000eb6:	f004 f901 	bl	80050bc <memset>
 8000eba:	2214      	movs	r2, #20
 8000ebc:	2100      	movs	r1, #0
 8000ebe:	4668      	mov	r0, sp
 8000ec0:	f004 f8fc 	bl	80050bc <memset>
 8000ec4:	f44f 7000 	mov.w	r0, #512	; 0x200
 8000ec8:	f000 fdd8 	bl	8001a7c <HAL_PWREx_ControlVoltageScaling>
 8000ecc:	b108      	cbz	r0, 8000ed2 <SystemClock_Config+0x26>
 8000ece:	b672      	cpsid	i
 8000ed0:	e7fe      	b.n	8000ed0 <SystemClock_Config+0x24>
 8000ed2:	2322      	movs	r3, #34	; 0x22
 8000ed4:	9305      	str	r3, [sp, #20]
 8000ed6:	f44f 7380 	mov.w	r3, #256	; 0x100
 8000eda:	2201      	movs	r2, #1
 8000edc:	9308      	str	r3, [sp, #32]
 8000ede:	2310      	movs	r3, #16
 8000ee0:	920e      	str	r2, [sp, #56]	; 0x38
 8000ee2:	9309      	str	r3, [sp, #36]	; 0x24
 8000ee4:	9211      	str	r2, [sp, #68]	; 0x44
 8000ee6:	2302      	movs	r3, #2
 8000ee8:	f04f 0c0a 	mov.w	ip, #10
 8000eec:	2207      	movs	r2, #7
 8000eee:	a805      	add	r0, sp, #20
 8000ef0:	e9cd 330f 	strd	r3, r3, [sp, #60]	; 0x3c
 8000ef4:	e9cd c212 	strd	ip, r2, [sp, #72]	; 0x48
 8000ef8:	e9cd 3314 	strd	r3, r3, [sp, #80]	; 0x50
 8000efc:	f000 feac 	bl	8001c58 <HAL_RCC_OscConfig>
 8000f00:	b108      	cbz	r0, 8000f06 <SystemClock_Config+0x5a>
 8000f02:	b672      	cpsid	i
 8000f04:	e7fe      	b.n	8000f04 <SystemClock_Config+0x58>
 8000f06:	220f      	movs	r2, #15
 8000f08:	2303      	movs	r3, #3
 8000f0a:	e9cd 2300 	strd	r2, r3, [sp]
 8000f0e:	f44f 6380 	mov.w	r3, #1024	; 0x400
 8000f12:	e9cd 3003 	strd	r3, r0, [sp, #12]
 8000f16:	9002      	str	r0, [sp, #8]
 8000f18:	2104      	movs	r1, #4
 8000f1a:	4668      	mov	r0, sp
 8000f1c:	f001 f940 	bl	80021a0 <HAL_RCC_ClockConfig>
 8000f20:	4602      	mov	r2, r0
 8000f22:	b108      	cbz	r0, 8000f28 <SystemClock_Config+0x7c>
 8000f24:	b672      	cpsid	i
 8000f26:	e7fe      	b.n	8000f26 <SystemClock_Config+0x7a>
 8000f28:	f04f 6100 	mov.w	r1, #134217728	; 0x8000000
 8000f2c:	f000 fe1e 	bl	8001b6c <HAL_RCC_MCOConfig>
 8000f30:	b017      	add	sp, #92	; 0x5c
 8000f32:	f85d fb04 	ldr.w	pc, [sp], #4
	...

08000f38 <main>:
 8000f38:	b5f0      	push	{r4, r5, r6, r7, lr}
 8000f3a:	b097      	sub	sp, #92	; 0x5c
 8000f3c:	f000 fbf6 	bl	800172c <HAL_Init>
 8000f40:	f7ff ffb4 	bl	8000eac <SystemClock_Config>
 8000f44:	2214      	movs	r2, #20
 8000f46:	2100      	movs	r1, #0
 8000f48:	a811      	add	r0, sp, #68	; 0x44
 8000f4a:	f004 f8b7 	bl	80050bc <memset>
 8000f4e:	4b7f      	ldr	r3, [pc, #508]	; (800114c <main+0x214>)
 8000f50:	4d7f      	ldr	r5, [pc, #508]	; (8001150 <main+0x218>)
 8000f52:	6cda      	ldr	r2, [r3, #76]	; 0x4c
 8000f54:	f042 0204 	orr.w	r2, r2, #4
 8000f58:	64da      	str	r2, [r3, #76]	; 0x4c
 8000f5a:	6cda      	ldr	r2, [r3, #76]	; 0x4c
 8000f5c:	f002 0204 	and.w	r2, r2, #4
 8000f60:	9203      	str	r2, [sp, #12]
 8000f62:	9a03      	ldr	r2, [sp, #12]
 8000f64:	6cda      	ldr	r2, [r3, #76]	; 0x4c
 8000f66:	f042 0201 	orr.w	r2, r2, #1
 8000f6a:	64da      	str	r2, [r3, #76]	; 0x4c
 8000f6c:	6cda      	ldr	r2, [r3, #76]	; 0x4c
 8000f6e:	f002 0201 	and.w	r2, r2, #1
 8000f72:	9204      	str	r2, [sp, #16]
 8000f74:	9a04      	ldr	r2, [sp, #16]
 8000f76:	6cda      	ldr	r2, [r3, #76]	; 0x4c
 8000f78:	f042 0202 	orr.w	r2, r2, #2
 8000f7c:	64da      	str	r2, [r3, #76]	; 0x4c
 8000f7e:	6cdb      	ldr	r3, [r3, #76]	; 0x4c
 8000f80:	f003 0302 	and.w	r3, r3, #2
 8000f84:	2200      	movs	r2, #0
 8000f86:	9305      	str	r3, [sp, #20]
 8000f88:	f640 0102 	movw	r1, #2050	; 0x802
 8000f8c:	f04f 4090 	mov.w	r0, #1207959552	; 0x48000000
 8000f90:	2400      	movs	r4, #0
 8000f92:	9b05      	ldr	r3, [sp, #20]
 8000f94:	2701      	movs	r7, #1
 8000f96:	f000 fd63 	bl	8001a60 <HAL_GPIO_WritePin>
 8000f9a:	f640 0302 	movw	r3, #2050	; 0x802
 8000f9e:	a911      	add	r1, sp, #68	; 0x44
 8000fa0:	f04f 4090 	mov.w	r0, #1207959552	; 0x48000000
 8000fa4:	e9cd 3711 	strd	r3, r7, [sp, #68]	; 0x44
 8000fa8:	2602      	movs	r6, #2
 8000faa:	e9cd 4413 	strd	r4, r4, [sp, #76]	; 0x4c
 8000fae:	f000 fc93 	bl	80018d8 <HAL_GPIO_Init>
 8000fb2:	f44f 7380 	mov.w	r3, #256	; 0x100
 8000fb6:	a911      	add	r1, sp, #68	; 0x44
 8000fb8:	f04f 4090 	mov.w	r0, #1207959552	; 0x48000000
 8000fbc:	e9cd 3611 	strd	r3, r6, [sp, #68]	; 0x44
 8000fc0:	e9cd 4613 	strd	r4, r6, [sp, #76]	; 0x4c
 8000fc4:	9415      	str	r4, [sp, #84]	; 0x54
 8000fc6:	f000 fc87 	bl	80018d8 <HAL_GPIO_Init>
 8000fca:	4862      	ldr	r0, [pc, #392]	; (8001154 <main+0x21c>)
 8000fcc:	f44f 7382 	mov.w	r3, #260	; 0x104
 8000fd0:	e9c0 5300 	strd	r5, r3, [r0]
 8000fd4:	f44f 6370 	mov.w	r3, #3840	; 0xf00
 8000fd8:	e9c0 3403 	strd	r3, r4, [r0, #12]
 8000fdc:	f44f 7c00 	mov.w	ip, #512	; 0x200
 8000fe0:	2338      	movs	r3, #56	; 0x38
 8000fe2:	e9c0 c306 	strd	ip, r3, [r0, #24]
 8000fe6:	2307      	movs	r3, #7
 8000fe8:	e9c0 4408 	strd	r4, r4, [r0, #32]
 8000fec:	e9c0 340b 	strd	r3, r4, [r0, #44]	; 0x2c
 8000ff0:	6084      	str	r4, [r0, #8]
 8000ff2:	6147      	str	r7, [r0, #20]
 8000ff4:	6284      	str	r4, [r0, #40]	; 0x28
 8000ff6:	6344      	str	r4, [r0, #52]	; 0x34
 8000ff8:	f001 fc61 	bl	80028be <HAL_SPI_Init>
 8000ffc:	4605      	mov	r5, r0
 8000ffe:	b108      	cbz	r0, 8001004 <main+0xcc>
 8001000:	b672      	cpsid	i
 8001002:	e7fe      	b.n	8001002 <main+0xca>
 8001004:	4601      	mov	r1, r0
 8001006:	2210      	movs	r2, #16
 8001008:	a809      	add	r0, sp, #36	; 0x24
 800100a:	f004 f857 	bl	80050bc <memset>
 800100e:	2214      	movs	r2, #20
 8001010:	4629      	mov	r1, r5
 8001012:	a811      	add	r0, sp, #68	; 0x44
 8001014:	f004 f852 	bl	80050bc <memset>
 8001018:	4c4f      	ldr	r4, [pc, #316]	; (8001158 <main+0x220>)
 800101a:	2210      	movs	r2, #16
 800101c:	4629      	mov	r1, r5
 800101e:	a80d      	add	r0, sp, #52	; 0x34
 8001020:	f004 f84c 	bl	80050bc <memset>
 8001024:	f04f 4380 	mov.w	r3, #1073741824	; 0x40000000
 8001028:	e9c4 3500 	strd	r3, r5, [r4]
 800102c:	f04f 33ff 	mov.w	r3, #4294967295
 8001030:	e9c4 3503 	strd	r3, r5, [r4, #12]
 8001034:	4620      	mov	r0, r4
 8001036:	2380      	movs	r3, #128	; 0x80
 8001038:	e9cd 5506 	strd	r5, r5, [sp, #24]
 800103c:	9508      	str	r5, [sp, #32]
 800103e:	60a5      	str	r5, [r4, #8]
 8001040:	61a3      	str	r3, [r4, #24]
 8001042:	f001 feb5 	bl	8002db0 <HAL_TIM_Base_Init>
 8001046:	b108      	cbz	r0, 800104c <main+0x114>
 8001048:	b672      	cpsid	i
 800104a:	e7fe      	b.n	800104a <main+0x112>
 800104c:	f44f 5380 	mov.w	r3, #4096	; 0x1000
 8001050:	a909      	add	r1, sp, #36	; 0x24
 8001052:	4620      	mov	r0, r4
 8001054:	9309      	str	r3, [sp, #36]	; 0x24
 8001056:	f001 ffcf 	bl	8002ff8 <HAL_TIM_ConfigClockSource>
 800105a:	b108      	cbz	r0, 8001060 <main+0x128>
 800105c:	b672      	cpsid	i
 800105e:	e7fe      	b.n	800105e <main+0x126>
 8001060:	4620      	mov	r0, r4
 8001062:	f001 fed5 	bl	8002e10 <HAL_TIM_IC_Init>
 8001066:	b108      	cbz	r0, 800106c <main+0x134>
 8001068:	b672      	cpsid	i
 800106a:	e7fe      	b.n	800106a <main+0x132>
 800106c:	e9cd 0013 	strd	r0, r0, [sp, #76]	; 0x4c
 8001070:	2350      	movs	r3, #80	; 0x50
 8001072:	9015      	str	r0, [sp, #84]	; 0x54
 8001074:	2504      	movs	r5, #4
 8001076:	a911      	add	r1, sp, #68	; 0x44
 8001078:	4620      	mov	r0, r4
 800107a:	e9cd 5311 	strd	r5, r3, [sp, #68]	; 0x44
 800107e:	f002 f8b9 	bl	80031f4 <HAL_TIM_SlaveConfigSynchro>
 8001082:	4602      	mov	r2, r0
 8001084:	b108      	cbz	r0, 800108a <main+0x152>
 8001086:	b672      	cpsid	i
 8001088:	e7fe      	b.n	8001088 <main+0x150>
 800108a:	e9cd 070d 	strd	r0, r7, [sp, #52]	; 0x34
 800108e:	e9cd 000f 	strd	r0, r0, [sp, #60]	; 0x3c
 8001092:	a90d      	add	r1, sp, #52	; 0x34
 8001094:	4620      	mov	r0, r4
 8001096:	f001 ff11 	bl	8002ebc <HAL_TIM_IC_ConfigChannel>
 800109a:	b108      	cbz	r0, 80010a0 <main+0x168>
 800109c:	b672      	cpsid	i
 800109e:	e7fe      	b.n	800109e <main+0x166>
 80010a0:	462a      	mov	r2, r5
 80010a2:	a90d      	add	r1, sp, #52	; 0x34
 80010a4:	4620      	mov	r0, r4
 80010a6:	e9cd 660d 	strd	r6, r6, [sp, #52]	; 0x34
 80010aa:	f001 ff07 	bl	8002ebc <HAL_TIM_IC_ConfigChannel>
 80010ae:	b108      	cbz	r0, 80010b4 <main+0x17c>
 80010b0:	b672      	cpsid	i
 80010b2:	e7fe      	b.n	80010b2 <main+0x17a>
 80010b4:	9006      	str	r0, [sp, #24]
 80010b6:	9008      	str	r0, [sp, #32]
 80010b8:	a906      	add	r1, sp, #24
 80010ba:	4620      	mov	r0, r4
 80010bc:	f002 f9cc 	bl	8003458 <HAL_TIMEx_MasterConfigSynchronization>
 80010c0:	4603      	mov	r3, r0
 80010c2:	b108      	cbz	r0, 80010c8 <main+0x190>
 80010c4:	b672      	cpsid	i
 80010c6:	e7fe      	b.n	80010c6 <main+0x18e>
 80010c8:	4824      	ldr	r0, [pc, #144]	; (800115c <main+0x224>)
 80010ca:	4925      	ldr	r1, [pc, #148]	; (8001160 <main+0x228>)
 80010cc:	6103      	str	r3, [r0, #16]
 80010ce:	f44f 5216 	mov.w	r2, #9600	; 0x2580
 80010d2:	e9c0 1200 	strd	r1, r2, [r0]
 80010d6:	220c      	movs	r2, #12
 80010d8:	e9c0 3302 	strd	r3, r3, [r0, #8]
 80010dc:	e9c0 2305 	strd	r2, r3, [r0, #20]
 80010e0:	e9c0 3307 	strd	r3, r3, [r0, #28]
 80010e4:	6243      	str	r3, [r0, #36]	; 0x24
 80010e6:	f002 ff28 	bl	8003f3a <HAL_UART_Init>
 80010ea:	4604      	mov	r4, r0
 80010ec:	b108      	cbz	r0, 80010f2 <main+0x1ba>
 80010ee:	b672      	cpsid	i
 80010f0:	e7fe      	b.n	80010f0 <main+0x1b8>
 80010f2:	2210      	movs	r2, #16
 80010f4:	4601      	mov	r1, r0
 80010f6:	a811      	add	r0, sp, #68	; 0x44
 80010f8:	f003 ffe0 	bl	80050bc <memset>
 80010fc:	4819      	ldr	r0, [pc, #100]	; (8001164 <main+0x22c>)
 80010fe:	4a1a      	ldr	r2, [pc, #104]	; (8001168 <main+0x230>)
 8001100:	940f      	str	r4, [sp, #60]	; 0x3c
 8001102:	234f      	movs	r3, #79	; 0x4f
 8001104:	e9c0 2300 	strd	r2, r3, [r0]
 8001108:	2331      	movs	r3, #49	; 0x31
 800110a:	e9cd 440d 	strd	r4, r4, [sp, #52]	; 0x34
 800110e:	e9c0 3403 	strd	r3, r4, [r0, #12]
 8001112:	e9c0 4405 	strd	r4, r4, [r0, #20]
 8001116:	6084      	str	r4, [r0, #8]
 8001118:	f001 fe4a 	bl	8002db0 <HAL_TIM_Base_Init>
 800111c:	b108      	cbz	r0, 8001122 <main+0x1ea>
 800111e:	b672      	cpsid	i
 8001120:	e7fe      	b.n	8001120 <main+0x1e8>
 8001122:	f44f 5380 	mov.w	r3, #4096	; 0x1000
 8001126:	480f      	ldr	r0, [pc, #60]	; (8001164 <main+0x22c>)
 8001128:	9311      	str	r3, [sp, #68]	; 0x44
 800112a:	a911      	add	r1, sp, #68	; 0x44
 800112c:	f001 ff64 	bl	8002ff8 <HAL_TIM_ConfigClockSource>
 8001130:	b108      	cbz	r0, 8001136 <main+0x1fe>
 8001132:	b672      	cpsid	i
 8001134:	e7fe      	b.n	8001134 <main+0x1fc>
 8001136:	e9cd 000d 	strd	r0, r0, [sp, #52]	; 0x34
 800113a:	900f      	str	r0, [sp, #60]	; 0x3c
 800113c:	a90d      	add	r1, sp, #52	; 0x34
 800113e:	4809      	ldr	r0, [pc, #36]	; (8001164 <main+0x22c>)
 8001140:	f002 f98a 	bl	8003458 <HAL_TIMEx_MasterConfigSynchronization>
 8001144:	4604      	mov	r4, r0
 8001146:	b188      	cbz	r0, 800116c <main+0x234>
 8001148:	b672      	cpsid	i
 800114a:	e7fe      	b.n	800114a <main+0x212>
 800114c:	40021000 	.word	0x40021000
 8001150:	40003c00 	.word	0x40003c00
 8001154:	20000294 	.word	0x20000294
 8001158:	20000344 	.word	0x20000344
 800115c:	20000390 	.word	0x20000390
 8001160:	40004400 	.word	0x40004400
 8001164:	200002f8 	.word	0x200002f8
 8001168:	40012c00 	.word	0x40012c00
 800116c:	483c      	ldr	r0, [pc, #240]	; (8001260 <main+0x328>)
 800116e:	4f3d      	ldr	r7, [pc, #244]	; (8001264 <main+0x32c>)
 8001170:	4e3d      	ldr	r6, [pc, #244]	; (8001268 <main+0x330>)
 8001172:	4d3e      	ldr	r5, [pc, #248]	; (800126c <main+0x334>)
 8001174:	f003 fcd2 	bl	8004b1c <MT_PORT_SetTimerModule>
 8001178:	483d      	ldr	r0, [pc, #244]	; (8001270 <main+0x338>)
 800117a:	f003 fcd5 	bl	8004b28 <MT_PORT_SetUartModule>
 800117e:	4622      	mov	r2, r4
 8001180:	f44f 5316 	mov.w	r3, #9600	; 0x2580
 8001184:	210a      	movs	r1, #10
 8001186:	9400      	str	r4, [sp, #0]
 8001188:	4620      	mov	r0, r4
 800118a:	f003 fbd3 	bl	8004934 <eMBInit>
 800118e:	f003 fc2b 	bl	80049e8 <eMBEnable>
 8001192:	4621      	mov	r1, r4
 8001194:	4837      	ldr	r0, [pc, #220]	; (8001274 <main+0x33c>)
 8001196:	f002 f8d7 	bl	8003348 <HAL_TIM_IC_Start_IT>
 800119a:	2104      	movs	r1, #4
 800119c:	4835      	ldr	r0, [pc, #212]	; (8001274 <main+0x33c>)
 800119e:	f002 f85f 	bl	8003260 <HAL_TIM_IC_Start>
 80011a2:	4935      	ldr	r1, [pc, #212]	; (8001278 <main+0x340>)
 80011a4:	4835      	ldr	r0, [pc, #212]	; (800127c <main+0x344>)
 80011a6:	f241 03ff 	movw	r3, #4351	; 0x10ff
 80011aa:	800b      	strh	r3, [r1, #0]
 80011ac:	f241 13ff 	movw	r3, #4607	; 0x11ff
 80011b0:	803b      	strh	r3, [r7, #0]
 80011b2:	f241 23ff 	movw	r3, #4863	; 0x12ff
 80011b6:	8033      	strh	r3, [r6, #0]
 80011b8:	f241 33ff 	movw	r3, #5119	; 0x13ff
 80011bc:	802b      	strh	r3, [r5, #0]
 80011be:	4b30      	ldr	r3, [pc, #192]	; (8001280 <main+0x348>)
 80011c0:	f44f 5240 	mov.w	r2, #12288	; 0x3000
 80011c4:	801a      	strh	r2, [r3, #0]
 80011c6:	4b2f      	ldr	r3, [pc, #188]	; (8001284 <main+0x34c>)
 80011c8:	801c      	strh	r4, [r3, #0]
 80011ca:	f04f 4490 	mov.w	r4, #1207959552	; 0x48000000
 80011ce:	2201      	movs	r2, #1
 80011d0:	69a3      	ldr	r3, [r4, #24]
 80011d2:	f043 6300 	orr.w	r3, r3, #134217728	; 0x8000000
 80011d6:	61a3      	str	r3, [r4, #24]
 80011d8:	f04f 33ff 	mov.w	r3, #4294967295
 80011dc:	f001 fbd9 	bl	8002992 <HAL_SPI_Transmit>
 80011e0:	69a3      	ldr	r3, [r4, #24]
 80011e2:	4826      	ldr	r0, [pc, #152]	; (800127c <main+0x344>)
 80011e4:	f443 6300 	orr.w	r3, r3, #2048	; 0x800
 80011e8:	61a3      	str	r3, [r4, #24]
 80011ea:	69a3      	ldr	r3, [r4, #24]
 80011ec:	f043 6300 	orr.w	r3, r3, #134217728	; 0x8000000
 80011f0:	61a3      	str	r3, [r4, #24]
 80011f2:	2201      	movs	r2, #1
 80011f4:	f04f 33ff 	mov.w	r3, #4294967295
 80011f8:	4639      	mov	r1, r7
 80011fa:	f001 fbca 	bl	8002992 <HAL_SPI_Transmit>
 80011fe:	69a3      	ldr	r3, [r4, #24]
 8001200:	481e      	ldr	r0, [pc, #120]	; (800127c <main+0x344>)
 8001202:	f443 6300 	orr.w	r3, r3, #2048	; 0x800
 8001206:	61a3      	str	r3, [r4, #24]
 8001208:	69a3      	ldr	r3, [r4, #24]
 800120a:	f043 6300 	orr.w	r3, r3, #134217728	; 0x8000000
 800120e:	61a3      	str	r3, [r4, #24]
 8001210:	2201      	movs	r2, #1
 8001212:	f04f 33ff 	mov.w	r3, #4294967295
 8001216:	4631      	mov	r1, r6
 8001218:	f001 fbbb 	bl	8002992 <HAL_SPI_Transmit>
 800121c:	69a3      	ldr	r3, [r4, #24]
 800121e:	4817      	ldr	r0, [pc, #92]	; (800127c <main+0x344>)
 8001220:	f443 6300 	orr.w	r3, r3, #2048	; 0x800
 8001224:	61a3      	str	r3, [r4, #24]
 8001226:	69a3      	ldr	r3, [r4, #24]
 8001228:	f043 6300 	orr.w	r3, r3, #134217728	; 0x8000000
 800122c:	61a3      	str	r3, [r4, #24]
 800122e:	4629      	mov	r1, r5
 8001230:	f04f 33ff 	mov.w	r3, #4294967295
 8001234:	2201      	movs	r2, #1
 8001236:	f001 fbac 	bl	8002992 <HAL_SPI_Transmit>
 800123a:	69a3      	ldr	r3, [r4, #24]
 800123c:	f443 6300 	orr.w	r3, r3, #2048	; 0x800
 8001240:	61a3      	str	r3, [r4, #24]
 8001242:	4c11      	ldr	r4, [pc, #68]	; (8001288 <main+0x350>)
 8001244:	f44f 757a 	mov.w	r5, #1000	; 0x3e8
 8001248:	f003 fbe0 	bl	8004a0c <eMBPoll>
 800124c:	f000 fa8a 	bl	8001764 <HAL_GetTick>
 8001250:	fbb0 f0f5 	udiv	r0, r0, r5
 8001254:	8060      	strh	r0, [r4, #2]
 8001256:	f000 fa85 	bl	8001764 <HAL_GetTick>
 800125a:	80a0      	strh	r0, [r4, #4]
 800125c:	e7f4      	b.n	8001248 <main+0x310>
 800125e:	bf00      	nop
 8001260:	200002f8 	.word	0x200002f8
 8001264:	20000418 	.word	0x20000418
 8001268:	2000041a 	.word	0x2000041a
 800126c:	2000041c 	.word	0x2000041c
 8001270:	20000390 	.word	0x20000390
 8001274:	20000344 	.word	0x20000344
 8001278:	20000416 	.word	0x20000416
 800127c:	20000294 	.word	0x20000294
 8001280:	20000290 	.word	0x20000290
 8001284:	20000414 	.word	0x20000414
 8001288:	20000000 	.word	0x20000000

0800128c <eMBRegInputCB>:
 800128c:	f5b1 7f7a 	cmp.w	r1, #1000	; 0x3e8
 8001290:	b510      	push	{r4, lr}
 8001292:	d318      	bcc.n	80012c6 <eMBRegInputCB+0x3a>
 8001294:	188b      	adds	r3, r1, r2
 8001296:	f5b3 7f7b 	cmp.w	r3, #1004	; 0x3ec
 800129a:	da14      	bge.n	80012c6 <eMBRegInputCB+0x3a>
 800129c:	4b0b      	ldr	r3, [pc, #44]	; (80012cc <eMBRegInputCB+0x40>)
 800129e:	f101 4100 	add.w	r1, r1, #2147483648	; 0x80000000
 80012a2:	f5a1 717a 	sub.w	r1, r1, #1000	; 0x3e8
 80012a6:	eb03 0141 	add.w	r1, r3, r1, lsl #1
 80012aa:	3002      	adds	r0, #2
 80012ac:	b90a      	cbnz	r2, 80012b2 <eMBRegInputCB+0x26>
 80012ae:	4610      	mov	r0, r2
 80012b0:	bd10      	pop	{r4, pc}
 80012b2:	f831 3b02 	ldrh.w	r3, [r1], #2
 80012b6:	f800 3c01 	strb.w	r3, [r0, #-1]
 80012ba:	0a1c      	lsrs	r4, r3, #8
 80012bc:	3a01      	subs	r2, #1
 80012be:	f800 4c02 	strb.w	r4, [r0, #-2]
 80012c2:	b292      	uxth	r2, r2
 80012c4:	e7f1      	b.n	80012aa <eMBRegInputCB+0x1e>
 80012c6:	2001      	movs	r0, #1
 80012c8:	e7f2      	b.n	80012b0 <eMBRegInputCB+0x24>
 80012ca:	bf00      	nop
 80012cc:	20000000 	.word	0x20000000

080012d0 <eMBRegHoldingCB>:
 80012d0:	2001      	movs	r0, #1
 80012d2:	4770      	bx	lr

080012d4 <eMBRegCoilsCB>:
 80012d4:	2001      	movs	r0, #1
 80012d6:	4770      	bx	lr

080012d8 <eMBRegDiscreteCB>:
 80012d8:	2001      	movs	r0, #1
 80012da:	4770      	bx	lr

080012dc <HAL_TIM_IC_CaptureCallback>:
 80012dc:	b530      	push	{r4, r5, lr}
 80012de:	ed2d 8b02 	vpush	{d8}
 80012e2:	7f03      	ldrb	r3, [r0, #28]
 80012e4:	2b01      	cmp	r3, #1
 80012e6:	b0e1      	sub	sp, #388	; 0x184
 80012e8:	4604      	mov	r4, r0
 80012ea:	d140      	bne.n	800136e <HAL_TIM_IC_CaptureCallback+0x92>
 80012ec:	2100      	movs	r1, #0
 80012ee:	f001 fc5c 	bl	8002baa <HAL_TIM_ReadCapturedValue>
 80012f2:	ee07 0a90 	vmov	s15, r0
 80012f6:	eef8 7a67 	vcvt.f32.u32	s15, s15
 80012fa:	4d1f      	ldr	r5, [pc, #124]	; (8001378 <HAL_TIM_IC_CaptureCallback+0x9c>)
 80012fc:	eef5 7a40 	vcmp.f32	s15, #0.0
 8001300:	eef1 fa10 	vmrs	APSR_nzcv, fpscr
 8001304:	edc5 7a00 	vstr	s15, [r5]
 8001308:	d031      	beq.n	800136e <HAL_TIM_IC_CaptureCallback+0x92>
 800130a:	2104      	movs	r1, #4
 800130c:	4620      	mov	r0, r4
 800130e:	f001 fc4c 	bl	8002baa <HAL_TIM_ReadCapturedValue>
 8001312:	2364      	movs	r3, #100	; 0x64
 8001314:	4358      	muls	r0, r3
 8001316:	ee07 0a90 	vmov	s15, r0
 800131a:	ed95 7a00 	vldr	s14, [r5]
 800131e:	4b17      	ldr	r3, [pc, #92]	; (800137c <HAL_TIM_IC_CaptureCallback+0xa0>)
 8001320:	eef8 7a67 	vcvt.f32.u32	s15, s15
 8001324:	f44f 72c0 	mov.w	r2, #384	; 0x180
 8001328:	eec7 6a87 	vdiv.f32	s13, s15, s14
 800132c:	2100      	movs	r1, #0
 800132e:	4668      	mov	r0, sp
 8001330:	eddf 7a13 	vldr	s15, [pc, #76]	; 8001380 <HAL_TIM_IC_CaptureCallback+0xa4>
 8001334:	edc3 6a00 	vstr	s13, [r3]
 8001338:	ee87 8a87 	vdiv.f32	s16, s15, s14
 800133c:	4b11      	ldr	r3, [pc, #68]	; (8001384 <HAL_TIM_IC_CaptureCallback+0xa8>)
 800133e:	ed83 8a00 	vstr	s16, [r3]
 8001342:	f003 febb 	bl	80050bc <memset>
 8001346:	ee18 0a10 	vmov	r0, s16
 800134a:	f7ff f8fd 	bl	8000548 <__aeabi_f2d>
 800134e:	4602      	mov	r2, r0
 8001350:	460b      	mov	r3, r1
 8001352:	4668      	mov	r0, sp
 8001354:	490c      	ldr	r1, [pc, #48]	; (8001388 <HAL_TIM_IC_CaptureCallback+0xac>)
 8001356:	f004 fc7d 	bl	8005c54 <siprintf>
 800135a:	4669      	mov	r1, sp
 800135c:	f44f 72c0 	mov.w	r2, #384	; 0x180
 8001360:	2000      	movs	r0, #0
 8001362:	f003 f91f 	bl	80045a4 <SEGGER_RTT_printf>
 8001366:	4909      	ldr	r1, [pc, #36]	; (800138c <HAL_TIM_IC_CaptureCallback+0xb0>)
 8001368:	2000      	movs	r0, #0
 800136a:	f003 f91b 	bl	80045a4 <SEGGER_RTT_printf>
 800136e:	b061      	add	sp, #388	; 0x184
 8001370:	ecbd 8b02 	vpop	{d8}
 8001374:	bd30      	pop	{r4, r5, pc}
 8001376:	bf00      	nop
 8001378:	2000028c 	.word	0x2000028c
 800137c:	20000284 	.word	0x20000284
 8001380:	4c989680 	.word	0x4c989680
 8001384:	20000288 	.word	0x20000288
 8001388:	08007e38 	.word	0x08007e38
 800138c:	08007e4c 	.word	0x08007e4c

08001390 <Error_Handler>:
 8001390:	b672      	cpsid	i
 8001392:	e7fe      	b.n	8001392 <Error_Handler+0x2>

08001394 <HAL_MspInit>:
 8001394:	4b0a      	ldr	r3, [pc, #40]	; (80013c0 <HAL_MspInit+0x2c>)
 8001396:	6e1a      	ldr	r2, [r3, #96]	; 0x60
 8001398:	f042 0201 	orr.w	r2, r2, #1
 800139c:	661a      	str	r2, [r3, #96]	; 0x60
 800139e:	6e1a      	ldr	r2, [r3, #96]	; 0x60
 80013a0:	b082      	sub	sp, #8
 80013a2:	f002 0201 	and.w	r2, r2, #1
 80013a6:	9200      	str	r2, [sp, #0]
 80013a8:	9a00      	ldr	r2, [sp, #0]
 80013aa:	6d9a      	ldr	r2, [r3, #88]	; 0x58
 80013ac:	f042 5280 	orr.w	r2, r2, #268435456	; 0x10000000
 80013b0:	659a      	str	r2, [r3, #88]	; 0x58
 80013b2:	6d9b      	ldr	r3, [r3, #88]	; 0x58
 80013b4:	f003 5380 	and.w	r3, r3, #268435456	; 0x10000000
 80013b8:	9301      	str	r3, [sp, #4]
 80013ba:	9b01      	ldr	r3, [sp, #4]
 80013bc:	b002      	add	sp, #8
 80013be:	4770      	bx	lr
 80013c0:	40021000 	.word	0x40021000

080013c4 <HAL_SPI_MspInit>:
 80013c4:	b510      	push	{r4, lr}
 80013c6:	4604      	mov	r4, r0
 80013c8:	b088      	sub	sp, #32
 80013ca:	2214      	movs	r2, #20
 80013cc:	2100      	movs	r1, #0
 80013ce:	a803      	add	r0, sp, #12
 80013d0:	f003 fe74 	bl	80050bc <memset>
 80013d4:	6822      	ldr	r2, [r4, #0]
 80013d6:	4b12      	ldr	r3, [pc, #72]	; (8001420 <HAL_SPI_MspInit+0x5c>)
 80013d8:	429a      	cmp	r2, r3
 80013da:	d11f      	bne.n	800141c <HAL_SPI_MspInit+0x58>
 80013dc:	f503 33ea 	add.w	r3, r3, #119808	; 0x1d400
 80013e0:	2103      	movs	r1, #3
 80013e2:	6d9a      	ldr	r2, [r3, #88]	; 0x58
 80013e4:	480f      	ldr	r0, [pc, #60]	; (8001424 <HAL_SPI_MspInit+0x60>)
 80013e6:	f442 4200 	orr.w	r2, r2, #32768	; 0x8000
 80013ea:	659a      	str	r2, [r3, #88]	; 0x58
 80013ec:	6d9a      	ldr	r2, [r3, #88]	; 0x58
 80013ee:	f402 4200 	and.w	r2, r2, #32768	; 0x8000
 80013f2:	9201      	str	r2, [sp, #4]
 80013f4:	9a01      	ldr	r2, [sp, #4]
 80013f6:	6cda      	ldr	r2, [r3, #76]	; 0x4c
 80013f8:	f042 0202 	orr.w	r2, r2, #2
 80013fc:	64da      	str	r2, [r3, #76]	; 0x4c
 80013fe:	6cdb      	ldr	r3, [r3, #76]	; 0x4c
 8001400:	f003 0302 	and.w	r3, r3, #2
 8001404:	9302      	str	r3, [sp, #8]
 8001406:	9b02      	ldr	r3, [sp, #8]
 8001408:	2238      	movs	r2, #56	; 0x38
 800140a:	2302      	movs	r3, #2
 800140c:	e9cd 2303 	strd	r2, r3, [sp, #12]
 8001410:	2306      	movs	r3, #6
 8001412:	e9cd 1306 	strd	r1, r3, [sp, #24]
 8001416:	a903      	add	r1, sp, #12
 8001418:	f000 fa5e 	bl	80018d8 <HAL_GPIO_Init>
 800141c:	b008      	add	sp, #32
 800141e:	bd10      	pop	{r4, pc}
 8001420:	40003c00 	.word	0x40003c00
 8001424:	48000400 	.word	0x48000400

08001428 <HAL_TIM_Base_MspInit>:
 8001428:	b510      	push	{r4, lr}
 800142a:	4604      	mov	r4, r0
 800142c:	b088      	sub	sp, #32
 800142e:	2214      	movs	r2, #20
 8001430:	2100      	movs	r1, #0
 8001432:	a803      	add	r0, sp, #12
 8001434:	f003 fe42 	bl	80050bc <memset>
 8001438:	6823      	ldr	r3, [r4, #0]
 800143a:	4a1f      	ldr	r2, [pc, #124]	; (80014b8 <HAL_TIM_Base_MspInit+0x90>)
 800143c:	4293      	cmp	r3, r2
 800143e:	d113      	bne.n	8001468 <HAL_TIM_Base_MspInit+0x40>
 8001440:	4b1e      	ldr	r3, [pc, #120]	; (80014bc <HAL_TIM_Base_MspInit+0x94>)
 8001442:	6e1a      	ldr	r2, [r3, #96]	; 0x60
 8001444:	f442 6200 	orr.w	r2, r2, #2048	; 0x800
 8001448:	661a      	str	r2, [r3, #96]	; 0x60
 800144a:	6e1b      	ldr	r3, [r3, #96]	; 0x60
 800144c:	2200      	movs	r2, #0
 800144e:	f403 6300 	and.w	r3, r3, #2048	; 0x800
 8001452:	9300      	str	r3, [sp, #0]
 8001454:	2019      	movs	r0, #25
 8001456:	4611      	mov	r1, r2
 8001458:	9b00      	ldr	r3, [sp, #0]
 800145a:	f000 f99b 	bl	8001794 <HAL_NVIC_SetPriority>
 800145e:	2019      	movs	r0, #25
 8001460:	f000 f9ca 	bl	80017f8 <HAL_NVIC_EnableIRQ>
 8001464:	b008      	add	sp, #32
 8001466:	bd10      	pop	{r4, pc}
 8001468:	f1b3 4f80 	cmp.w	r3, #1073741824	; 0x40000000
 800146c:	d1fa      	bne.n	8001464 <HAL_TIM_Base_MspInit+0x3c>
 800146e:	f503 3304 	add.w	r3, r3, #135168	; 0x21000
 8001472:	a903      	add	r1, sp, #12
 8001474:	6d9a      	ldr	r2, [r3, #88]	; 0x58
 8001476:	f042 0201 	orr.w	r2, r2, #1
 800147a:	659a      	str	r2, [r3, #88]	; 0x58
 800147c:	6d9a      	ldr	r2, [r3, #88]	; 0x58
 800147e:	f002 0201 	and.w	r2, r2, #1
 8001482:	9201      	str	r2, [sp, #4]
 8001484:	9a01      	ldr	r2, [sp, #4]
 8001486:	6cda      	ldr	r2, [r3, #76]	; 0x4c
 8001488:	f042 0201 	orr.w	r2, r2, #1
 800148c:	64da      	str	r2, [r3, #76]	; 0x4c
 800148e:	6cdb      	ldr	r3, [r3, #76]	; 0x4c
 8001490:	f003 0301 	and.w	r3, r3, #1
 8001494:	9302      	str	r3, [sp, #8]
 8001496:	2202      	movs	r2, #2
 8001498:	9b02      	ldr	r3, [sp, #8]
 800149a:	f04f 4090 	mov.w	r0, #1207959552	; 0x48000000
 800149e:	2301      	movs	r3, #1
 80014a0:	e9cd 3203 	strd	r3, r2, [sp, #12]
 80014a4:	9307      	str	r3, [sp, #28]
 80014a6:	f000 fa17 	bl	80018d8 <HAL_GPIO_Init>
 80014aa:	2200      	movs	r2, #0
 80014ac:	201c      	movs	r0, #28
 80014ae:	4611      	mov	r1, r2
 80014b0:	f000 f970 	bl	8001794 <HAL_NVIC_SetPriority>
 80014b4:	201c      	movs	r0, #28
 80014b6:	e7d3      	b.n	8001460 <HAL_TIM_Base_MspInit+0x38>
 80014b8:	40012c00 	.word	0x40012c00
 80014bc:	40021000 	.word	0x40021000

080014c0 <HAL_UART_MspInit>:
 80014c0:	b510      	push	{r4, lr}
 80014c2:	b09e      	sub	sp, #120	; 0x78
 80014c4:	4604      	mov	r4, r0
 80014c6:	2214      	movs	r2, #20
 80014c8:	2100      	movs	r1, #0
 80014ca:	a802      	add	r0, sp, #8
 80014cc:	f003 fdf6 	bl	80050bc <memset>
 80014d0:	225c      	movs	r2, #92	; 0x5c
 80014d2:	2100      	movs	r1, #0
 80014d4:	a807      	add	r0, sp, #28
 80014d6:	f003 fdf1 	bl	80050bc <memset>
 80014da:	6822      	ldr	r2, [r4, #0]
 80014dc:	4b1b      	ldr	r3, [pc, #108]	; (800154c <HAL_UART_MspInit+0x8c>)
 80014de:	429a      	cmp	r2, r3
 80014e0:	d131      	bne.n	8001546 <HAL_UART_MspInit+0x86>
 80014e2:	2302      	movs	r3, #2
 80014e4:	a807      	add	r0, sp, #28
 80014e6:	9307      	str	r3, [sp, #28]
 80014e8:	f000 ffb2 	bl	8002450 <HAL_RCCEx_PeriphCLKConfig>
 80014ec:	b108      	cbz	r0, 80014f2 <HAL_UART_MspInit+0x32>
 80014ee:	f7ff ff4f 	bl	8001390 <Error_Handler>
 80014f2:	4b17      	ldr	r3, [pc, #92]	; (8001550 <HAL_UART_MspInit+0x90>)
 80014f4:	6d9a      	ldr	r2, [r3, #88]	; 0x58
 80014f6:	f442 3200 	orr.w	r2, r2, #131072	; 0x20000
 80014fa:	659a      	str	r2, [r3, #88]	; 0x58
 80014fc:	6d9a      	ldr	r2, [r3, #88]	; 0x58
 80014fe:	f402 3200 	and.w	r2, r2, #131072	; 0x20000
 8001502:	9200      	str	r2, [sp, #0]
 8001504:	9a00      	ldr	r2, [sp, #0]
 8001506:	6cda      	ldr	r2, [r3, #76]	; 0x4c
 8001508:	f042 0201 	orr.w	r2, r2, #1
 800150c:	64da      	str	r2, [r3, #76]	; 0x4c
 800150e:	6cdb      	ldr	r3, [r3, #76]	; 0x4c
 8001510:	f003 0301 	and.w	r3, r3, #1
 8001514:	9301      	str	r3, [sp, #4]
 8001516:	220c      	movs	r2, #12
 8001518:	9b01      	ldr	r3, [sp, #4]
 800151a:	2302      	movs	r3, #2
 800151c:	e9cd 2302 	strd	r2, r3, [sp, #8]
 8001520:	2400      	movs	r4, #0
 8001522:	2303      	movs	r3, #3
 8001524:	e9cd 4304 	strd	r4, r3, [sp, #16]
 8001528:	a902      	add	r1, sp, #8
 800152a:	2307      	movs	r3, #7
 800152c:	f04f 4090 	mov.w	r0, #1207959552	; 0x48000000
 8001530:	9306      	str	r3, [sp, #24]
 8001532:	f000 f9d1 	bl	80018d8 <HAL_GPIO_Init>
 8001536:	2026      	movs	r0, #38	; 0x26
 8001538:	4622      	mov	r2, r4
 800153a:	4621      	mov	r1, r4
 800153c:	f000 f92a 	bl	8001794 <HAL_NVIC_SetPriority>
 8001540:	2026      	movs	r0, #38	; 0x26
 8001542:	f000 f959 	bl	80017f8 <HAL_NVIC_EnableIRQ>
 8001546:	b01e      	add	sp, #120	; 0x78
 8001548:	bd10      	pop	{r4, pc}
 800154a:	bf00      	nop
 800154c:	40004400 	.word	0x40004400
 8001550:	40021000 	.word	0x40021000

08001554 <NMI_Handler>:
 8001554:	e7fe      	b.n	8001554 <NMI_Handler>

08001556 <HardFault_Handler>:
 8001556:	e7fe      	b.n	8001556 <HardFault_Handler>

08001558 <MemManage_Handler>:
 8001558:	e7fe      	b.n	8001558 <MemManage_Handler>

0800155a <BusFault_Handler>:
 800155a:	e7fe      	b.n	800155a <BusFault_Handler>

0800155c <UsageFault_Handler>:
 800155c:	e7fe      	b.n	800155c <UsageFault_Handler>

0800155e <SVC_Handler>:
 800155e:	4770      	bx	lr

08001560 <DebugMon_Handler>:
 8001560:	4770      	bx	lr

08001562 <PendSV_Handler>:
 8001562:	4770      	bx	lr

08001564 <SysTick_Handler>:
 8001564:	b508      	push	{r3, lr}
 8001566:	f000 f8f1 	bl	800174c <HAL_IncTick>
 800156a:	e8bd 4008 	ldmia.w	sp!, {r3, lr}
 800156e:	f000 b966 	b.w	800183e <HAL_SYSTICK_IRQHandler>
	...

08001574 <TIM1_UP_TIM16_IRQHandler>:
 8001574:	4801      	ldr	r0, [pc, #4]	; (800157c <TIM1_UP_TIM16_IRQHandler+0x8>)
 8001576:	f001 bb31 	b.w	8002bdc <HAL_TIM_IRQHandler>
 800157a:	bf00      	nop
 800157c:	200002f8 	.word	0x200002f8

08001580 <TIM2_IRQHandler>:
 8001580:	4801      	ldr	r0, [pc, #4]	; (8001588 <TIM2_IRQHandler+0x8>)
 8001582:	f001 bb2b 	b.w	8002bdc <HAL_TIM_IRQHandler>
 8001586:	bf00      	nop
 8001588:	20000344 	.word	0x20000344

0800158c <USART2_IRQHandler>:
 800158c:	4801      	ldr	r0, [pc, #4]	; (8001594 <USART2_IRQHandler+0x8>)
 800158e:	f002 b8f9 	b.w	8003784 <HAL_UART_IRQHandler>
 8001592:	bf00      	nop
 8001594:	20000390 	.word	0x20000390

08001598 <_getpid>:
 8001598:	2001      	movs	r0, #1
 800159a:	4770      	bx	lr

0800159c <_kill>:
 800159c:	b508      	push	{r3, lr}
 800159e:	f003 fd43 	bl	8005028 <__errno>
 80015a2:	2316      	movs	r3, #22
 80015a4:	6003      	str	r3, [r0, #0]
 80015a6:	f04f 30ff 	mov.w	r0, #4294967295
 80015aa:	bd08      	pop	{r3, pc}

080015ac <_exit>:
 80015ac:	b508      	push	{r3, lr}
 80015ae:	f003 fd3b 	bl	8005028 <__errno>
 80015b2:	2316      	movs	r3, #22
 80015b4:	6003      	str	r3, [r0, #0]
 80015b6:	e7fe      	b.n	80015b6 <_exit+0xa>

080015b8 <_read>:
 80015b8:	b570      	push	{r4, r5, r6, lr}
 80015ba:	460d      	mov	r5, r1
 80015bc:	4614      	mov	r4, r2
 80015be:	460e      	mov	r6, r1
 80015c0:	1b73      	subs	r3, r6, r5
 80015c2:	429c      	cmp	r4, r3
 80015c4:	dc01      	bgt.n	80015ca <_read+0x12>
 80015c6:	4620      	mov	r0, r4
 80015c8:	bd70      	pop	{r4, r5, r6, pc}
 80015ca:	f3af 8000 	nop.w
 80015ce:	f806 0b01 	strb.w	r0, [r6], #1
 80015d2:	e7f5      	b.n	80015c0 <_read+0x8>

080015d4 <_write>:
 80015d4:	b570      	push	{r4, r5, r6, lr}
 80015d6:	460d      	mov	r5, r1
 80015d8:	4614      	mov	r4, r2
 80015da:	460e      	mov	r6, r1
 80015dc:	1b73      	subs	r3, r6, r5
 80015de:	429c      	cmp	r4, r3
 80015e0:	dc01      	bgt.n	80015e6 <_write+0x12>
 80015e2:	4620      	mov	r0, r4
 80015e4:	bd70      	pop	{r4, r5, r6, pc}
 80015e6:	f816 0b01 	ldrb.w	r0, [r6], #1
 80015ea:	f3af 8000 	nop.w
 80015ee:	e7f5      	b.n	80015dc <_write+0x8>

080015f0 <_close>:
 80015f0:	f04f 30ff 	mov.w	r0, #4294967295
 80015f4:	4770      	bx	lr

080015f6 <_fstat>:
 80015f6:	f44f 5300 	mov.w	r3, #8192	; 0x2000
 80015fa:	604b      	str	r3, [r1, #4]
 80015fc:	2000      	movs	r0, #0
 80015fe:	4770      	bx	lr

08001600 <_isatty>:
 8001600:	2001      	movs	r0, #1
 8001602:	4770      	bx	lr

08001604 <_lseek>:
 8001604:	2000      	movs	r0, #0
 8001606:	4770      	bx	lr

08001608 <_sbrk>:
 8001608:	4a0b      	ldr	r2, [pc, #44]	; (8001638 <_sbrk+0x30>)
 800160a:	6811      	ldr	r1, [r2, #0]
 800160c:	b510      	push	{r4, lr}
 800160e:	4603      	mov	r3, r0
 8001610:	b909      	cbnz	r1, 8001616 <_sbrk+0xe>
 8001612:	490a      	ldr	r1, [pc, #40]	; (800163c <_sbrk+0x34>)
 8001614:	6011      	str	r1, [r2, #0]
 8001616:	6810      	ldr	r0, [r2, #0]
 8001618:	4909      	ldr	r1, [pc, #36]	; (8001640 <_sbrk+0x38>)
 800161a:	4c0a      	ldr	r4, [pc, #40]	; (8001644 <_sbrk+0x3c>)
 800161c:	4403      	add	r3, r0
 800161e:	1b09      	subs	r1, r1, r4
 8001620:	428b      	cmp	r3, r1
 8001622:	d906      	bls.n	8001632 <_sbrk+0x2a>
 8001624:	f003 fd00 	bl	8005028 <__errno>
 8001628:	230c      	movs	r3, #12
 800162a:	6003      	str	r3, [r0, #0]
 800162c:	f04f 30ff 	mov.w	r0, #4294967295
 8001630:	bd10      	pop	{r4, pc}
 8001632:	6013      	str	r3, [r2, #0]
 8001634:	e7fc      	b.n	8001630 <_sbrk+0x28>
 8001636:	bf00      	nop
 8001638:	20000420 	.word	0x20000420
 800163c:	20002630 	.word	0x20002630
 8001640:	20010000 	.word	0x20010000
 8001644:	00000400 	.word	0x00000400

08001648 <SystemInit>:
 8001648:	4a0e      	ldr	r2, [pc, #56]	; (8001684 <SystemInit+0x3c>)
 800164a:	f8d2 3088 	ldr.w	r3, [r2, #136]	; 0x88
 800164e:	f443 0370 	orr.w	r3, r3, #15728640	; 0xf00000
 8001652:	f8c2 3088 	str.w	r3, [r2, #136]	; 0x88
 8001656:	4b0c      	ldr	r3, [pc, #48]	; (8001688 <SystemInit+0x40>)
 8001658:	681a      	ldr	r2, [r3, #0]
 800165a:	2100      	movs	r1, #0
 800165c:	f042 0201 	orr.w	r2, r2, #1
 8001660:	601a      	str	r2, [r3, #0]
 8001662:	6099      	str	r1, [r3, #8]
 8001664:	681a      	ldr	r2, [r3, #0]
 8001666:	f022 52a8 	bic.w	r2, r2, #352321536	; 0x15000000
 800166a:	f422 2210 	bic.w	r2, r2, #589824	; 0x90000
 800166e:	601a      	str	r2, [r3, #0]
 8001670:	f44f 5280 	mov.w	r2, #4096	; 0x1000
 8001674:	60da      	str	r2, [r3, #12]
 8001676:	681a      	ldr	r2, [r3, #0]
 8001678:	f422 2280 	bic.w	r2, r2, #262144	; 0x40000
 800167c:	601a      	str	r2, [r3, #0]
 800167e:	6199      	str	r1, [r3, #24]
 8001680:	4770      	bx	lr
 8001682:	bf00      	nop
 8001684:	e000ed00 	.word	0xe000ed00
 8001688:	40021000 	.word	0x40021000

0800168c <Reset_Handler>:
 800168c:	f8df d034 	ldr.w	sp, [pc, #52]	; 80016c4 <LoopForever+0x2>
 8001690:	f7ff ffda 	bl	8001648 <SystemInit>
 8001694:	2100      	movs	r1, #0
 8001696:	e003      	b.n	80016a0 <LoopCopyDataInit>

08001698 <CopyDataInit>:
 8001698:	4b0b      	ldr	r3, [pc, #44]	; (80016c8 <LoopForever+0x6>)
 800169a:	585b      	ldr	r3, [r3, r1]
 800169c:	5043      	str	r3, [r0, r1]
 800169e:	3104      	adds	r1, #4

080016a0 <LoopCopyDataInit>:
 80016a0:	480a      	ldr	r0, [pc, #40]	; (80016cc <LoopForever+0xa>)
 80016a2:	4b0b      	ldr	r3, [pc, #44]	; (80016d0 <LoopForever+0xe>)
 80016a4:	1842      	adds	r2, r0, r1
 80016a6:	429a      	cmp	r2, r3
 80016a8:	d3f6      	bcc.n	8001698 <CopyDataInit>
 80016aa:	4a0a      	ldr	r2, [pc, #40]	; (80016d4 <LoopForever+0x12>)
 80016ac:	e002      	b.n	80016b4 <LoopFillZerobss>

080016ae <FillZerobss>:
 80016ae:	2300      	movs	r3, #0
 80016b0:	f842 3b04 	str.w	r3, [r2], #4

080016b4 <LoopFillZerobss>:
 80016b4:	4b08      	ldr	r3, [pc, #32]	; (80016d8 <LoopForever+0x16>)
 80016b6:	429a      	cmp	r2, r3
 80016b8:	d3f9      	bcc.n	80016ae <FillZerobss>
 80016ba:	f003 fccd 	bl	8005058 <__libc_init_array>
 80016be:	f7ff fc3b 	bl	8000f38 <main>

080016c2 <LoopForever>:
 80016c2:	e7fe      	b.n	80016c2 <LoopForever>
 80016c4:	20010000 	.word	0x20010000
 80016c8:	08008608 	.word	0x08008608
 80016cc:	20000000 	.word	0x20000000
 80016d0:	20000268 	.word	0x20000268
 80016d4:	20000268 	.word	0x20000268
 80016d8:	20002630 	.word	0x20002630

080016dc <ADC1_IRQHandler>:
 80016dc:	e7fe      	b.n	80016dc <ADC1_IRQHandler>
	...

080016e0 <HAL_InitTick>:
 80016e0:	b538      	push	{r3, r4, r5, lr}
 80016e2:	4b0f      	ldr	r3, [pc, #60]	; (8001720 <HAL_InitTick+0x40>)
 80016e4:	4605      	mov	r5, r0
 80016e6:	7818      	ldrb	r0, [r3, #0]
 80016e8:	b908      	cbnz	r0, 80016ee <HAL_InitTick+0xe>
 80016ea:	2001      	movs	r0, #1
 80016ec:	bd38      	pop	{r3, r4, r5, pc}
 80016ee:	4a0d      	ldr	r2, [pc, #52]	; (8001724 <HAL_InitTick+0x44>)
 80016f0:	f44f 737a 	mov.w	r3, #1000	; 0x3e8
 80016f4:	fbb3 f3f0 	udiv	r3, r3, r0
 80016f8:	6810      	ldr	r0, [r2, #0]
 80016fa:	fbb0 f0f3 	udiv	r0, r0, r3
 80016fe:	f000 f889 	bl	8001814 <HAL_SYSTICK_Config>
 8001702:	4604      	mov	r4, r0
 8001704:	2800      	cmp	r0, #0
 8001706:	d1f0      	bne.n	80016ea <HAL_InitTick+0xa>
 8001708:	2d0f      	cmp	r5, #15
 800170a:	d8ee      	bhi.n	80016ea <HAL_InitTick+0xa>
 800170c:	4602      	mov	r2, r0
 800170e:	4629      	mov	r1, r5
 8001710:	f04f 30ff 	mov.w	r0, #4294967295
 8001714:	f000 f83e 	bl	8001794 <HAL_NVIC_SetPriority>
 8001718:	4b03      	ldr	r3, [pc, #12]	; (8001728 <HAL_InitTick+0x48>)
 800171a:	4620      	mov	r0, r4
 800171c:	601d      	str	r5, [r3, #0]
 800171e:	e7e5      	b.n	80016ec <HAL_InitTick+0xc>
 8001720:	2000000c 	.word	0x2000000c
 8001724:	20000008 	.word	0x20000008
 8001728:	20000010 	.word	0x20000010

0800172c <HAL_Init>:
 800172c:	b510      	push	{r4, lr}
 800172e:	2003      	movs	r0, #3
 8001730:	f000 f81e 	bl	8001770 <HAL_NVIC_SetPriorityGrouping>
 8001734:	2000      	movs	r0, #0
 8001736:	f7ff ffd3 	bl	80016e0 <HAL_InitTick>
 800173a:	4604      	mov	r4, r0
 800173c:	b918      	cbnz	r0, 8001746 <HAL_Init+0x1a>
 800173e:	f7ff fe29 	bl	8001394 <HAL_MspInit>
 8001742:	4620      	mov	r0, r4
 8001744:	bd10      	pop	{r4, pc}
 8001746:	2401      	movs	r4, #1
 8001748:	e7fb      	b.n	8001742 <HAL_Init+0x16>
	...

0800174c <HAL_IncTick>:
 800174c:	4a03      	ldr	r2, [pc, #12]	; (800175c <HAL_IncTick+0x10>)
 800174e:	4b04      	ldr	r3, [pc, #16]	; (8001760 <HAL_IncTick+0x14>)
 8001750:	6811      	ldr	r1, [r2, #0]
 8001752:	781b      	ldrb	r3, [r3, #0]
 8001754:	440b      	add	r3, r1
 8001756:	6013      	str	r3, [r2, #0]
 8001758:	4770      	bx	lr
 800175a:	bf00      	nop
 800175c:	20000424 	.word	0x20000424
 8001760:	2000000c 	.word	0x2000000c

08001764 <HAL_GetTick>:
 8001764:	4b01      	ldr	r3, [pc, #4]	; (800176c <HAL_GetTick+0x8>)
 8001766:	6818      	ldr	r0, [r3, #0]
 8001768:	4770      	bx	lr
 800176a:	bf00      	nop
 800176c:	20000424 	.word	0x20000424

08001770 <HAL_NVIC_SetPriorityGrouping>:
 8001770:	4907      	ldr	r1, [pc, #28]	; (8001790 <HAL_NVIC_SetPriorityGrouping+0x20>)
 8001772:	68ca      	ldr	r2, [r1, #12]
 8001774:	f422 62e0 	bic.w	r2, r2, #1792	; 0x700
 8001778:	0203      	lsls	r3, r0, #8
 800177a:	0412      	lsls	r2, r2, #16
 800177c:	f403 63e0 	and.w	r3, r3, #1792	; 0x700
 8001780:	0c12      	lsrs	r2, r2, #16
 8001782:	4313      	orrs	r3, r2
 8001784:	f043 63bf 	orr.w	r3, r3, #100139008	; 0x5f80000
 8001788:	f443 3300 	orr.w	r3, r3, #131072	; 0x20000
 800178c:	60cb      	str	r3, [r1, #12]
 800178e:	4770      	bx	lr
 8001790:	e000ed00 	.word	0xe000ed00

08001794 <HAL_NVIC_SetPriority>:
 8001794:	4b16      	ldr	r3, [pc, #88]	; (80017f0 <HAL_NVIC_SetPriority+0x5c>)
 8001796:	b530      	push	{r4, r5, lr}
 8001798:	68dc      	ldr	r4, [r3, #12]
 800179a:	f3c4 2402 	ubfx	r4, r4, #8, #3
 800179e:	f1c4 0507 	rsb	r5, r4, #7
 80017a2:	1d23      	adds	r3, r4, #4
 80017a4:	2d04      	cmp	r5, #4
 80017a6:	bf28      	it	cs
 80017a8:	2504      	movcs	r5, #4
 80017aa:	2b06      	cmp	r3, #6
 80017ac:	f04f 33ff 	mov.w	r3, #4294967295
 80017b0:	bf8c      	ite	hi
 80017b2:	3c03      	subhi	r4, #3
 80017b4:	2400      	movls	r4, #0
 80017b6:	fa03 f505 	lsl.w	r5, r3, r5
 80017ba:	ea21 0105 	bic.w	r1, r1, r5
 80017be:	40a3      	lsls	r3, r4
 80017c0:	ea22 0203 	bic.w	r2, r2, r3
 80017c4:	40a1      	lsls	r1, r4
 80017c6:	2800      	cmp	r0, #0
 80017c8:	ea41 0302 	orr.w	r3, r1, r2
 80017cc:	bfac      	ite	ge
 80017ce:	f100 4060 	addge.w	r0, r0, #3758096384	; 0xe0000000
 80017d2:	4a08      	ldrlt	r2, [pc, #32]	; (80017f4 <HAL_NVIC_SetPriority+0x60>)
 80017d4:	ea4f 1303 	mov.w	r3, r3, lsl #4
 80017d8:	bfb8      	it	lt
 80017da:	f000 000f 	andlt.w	r0, r0, #15
 80017de:	b2db      	uxtb	r3, r3
 80017e0:	bfaa      	itet	ge
 80017e2:	f500 4061 	addge.w	r0, r0, #57600	; 0xe100
 80017e6:	5413      	strblt	r3, [r2, r0]
 80017e8:	f880 3300 	strbge.w	r3, [r0, #768]	; 0x300
 80017ec:	bd30      	pop	{r4, r5, pc}
 80017ee:	bf00      	nop
 80017f0:	e000ed00 	.word	0xe000ed00
 80017f4:	e000ed14 	.word	0xe000ed14

080017f8 <HAL_NVIC_EnableIRQ>:
 80017f8:	2800      	cmp	r0, #0
 80017fa:	db08      	blt.n	800180e <HAL_NVIC_EnableIRQ+0x16>
 80017fc:	2301      	movs	r3, #1
 80017fe:	0942      	lsrs	r2, r0, #5
 8001800:	f000 001f 	and.w	r0, r0, #31
 8001804:	fa03 f000 	lsl.w	r0, r3, r0
 8001808:	4b01      	ldr	r3, [pc, #4]	; (8001810 <HAL_NVIC_EnableIRQ+0x18>)
 800180a:	f843 0022 	str.w	r0, [r3, r2, lsl #2]
 800180e:	4770      	bx	lr
 8001810:	e000e100 	.word	0xe000e100

08001814 <HAL_SYSTICK_Config>:
 8001814:	3801      	subs	r0, #1
 8001816:	f1b0 7f80 	cmp.w	r0, #16777216	; 0x1000000
 800181a:	d20b      	bcs.n	8001834 <HAL_SYSTICK_Config+0x20>
 800181c:	f04f 23e0 	mov.w	r3, #3758153728	; 0xe000e000
 8001820:	4a05      	ldr	r2, [pc, #20]	; (8001838 <HAL_SYSTICK_Config+0x24>)
 8001822:	6158      	str	r0, [r3, #20]
 8001824:	21f0      	movs	r1, #240	; 0xf0
 8001826:	f882 1023 	strb.w	r1, [r2, #35]	; 0x23
 800182a:	2000      	movs	r0, #0
 800182c:	2207      	movs	r2, #7
 800182e:	6198      	str	r0, [r3, #24]
 8001830:	611a      	str	r2, [r3, #16]
 8001832:	4770      	bx	lr
 8001834:	2001      	movs	r0, #1
 8001836:	4770      	bx	lr
 8001838:	e000ed00 	.word	0xe000ed00

0800183c <HAL_SYSTICK_Callback>:
 800183c:	4770      	bx	lr

0800183e <HAL_SYSTICK_IRQHandler>:
 800183e:	b508      	push	{r3, lr}
 8001840:	f7ff fffc 	bl	800183c <HAL_SYSTICK_Callback>
 8001844:	bd08      	pop	{r3, pc}

08001846 <HAL_DMA_Abort>:
 8001846:	f890 3025 	ldrb.w	r3, [r0, #37]	; 0x25
 800184a:	2b02      	cmp	r3, #2
 800184c:	d006      	beq.n	800185c <HAL_DMA_Abort+0x16>
 800184e:	2304      	movs	r3, #4
 8001850:	63c3      	str	r3, [r0, #60]	; 0x3c
 8001852:	2300      	movs	r3, #0
 8001854:	f880 3024 	strb.w	r3, [r0, #36]	; 0x24
 8001858:	2001      	movs	r0, #1
 800185a:	4770      	bx	lr
 800185c:	6803      	ldr	r3, [r0, #0]
 800185e:	681a      	ldr	r2, [r3, #0]
 8001860:	f022 020e 	bic.w	r2, r2, #14
 8001864:	601a      	str	r2, [r3, #0]
 8001866:	681a      	ldr	r2, [r3, #0]
 8001868:	f022 0201 	bic.w	r2, r2, #1
 800186c:	601a      	str	r2, [r3, #0]
 800186e:	e9d0 1310 	ldrd	r1, r3, [r0, #64]	; 0x40
 8001872:	2201      	movs	r2, #1
 8001874:	f003 031c 	and.w	r3, r3, #28
 8001878:	fa02 f303 	lsl.w	r3, r2, r3
 800187c:	604b      	str	r3, [r1, #4]
 800187e:	2300      	movs	r3, #0
 8001880:	f880 2025 	strb.w	r2, [r0, #37]	; 0x25
 8001884:	f880 3024 	strb.w	r3, [r0, #36]	; 0x24
 8001888:	4618      	mov	r0, r3
 800188a:	4770      	bx	lr

0800188c <HAL_DMA_Abort_IT>:
 800188c:	b510      	push	{r4, lr}
 800188e:	f890 2025 	ldrb.w	r2, [r0, #37]	; 0x25
 8001892:	2a02      	cmp	r2, #2
 8001894:	d003      	beq.n	800189e <HAL_DMA_Abort_IT+0x12>
 8001896:	2204      	movs	r2, #4
 8001898:	63c2      	str	r2, [r0, #60]	; 0x3c
 800189a:	2001      	movs	r0, #1
 800189c:	bd10      	pop	{r4, pc}
 800189e:	6802      	ldr	r2, [r0, #0]
 80018a0:	6b83      	ldr	r3, [r0, #56]	; 0x38
 80018a2:	6811      	ldr	r1, [r2, #0]
 80018a4:	f021 010e 	bic.w	r1, r1, #14
 80018a8:	6011      	str	r1, [r2, #0]
 80018aa:	6811      	ldr	r1, [r2, #0]
 80018ac:	f021 0101 	bic.w	r1, r1, #1
 80018b0:	6011      	str	r1, [r2, #0]
 80018b2:	e9d0 4210 	ldrd	r4, r2, [r0, #64]	; 0x40
 80018b6:	2101      	movs	r1, #1
 80018b8:	f002 021c 	and.w	r2, r2, #28
 80018bc:	fa01 f202 	lsl.w	r2, r1, r2
 80018c0:	6062      	str	r2, [r4, #4]
 80018c2:	2400      	movs	r4, #0
 80018c4:	f880 1025 	strb.w	r1, [r0, #37]	; 0x25
 80018c8:	f880 4024 	strb.w	r4, [r0, #36]	; 0x24
 80018cc:	b113      	cbz	r3, 80018d4 <HAL_DMA_Abort_IT+0x48>
 80018ce:	4798      	blx	r3
 80018d0:	4620      	mov	r0, r4
 80018d2:	e7e3      	b.n	800189c <HAL_DMA_Abort_IT+0x10>
 80018d4:	4618      	mov	r0, r3
 80018d6:	e7e1      	b.n	800189c <HAL_DMA_Abort_IT+0x10>

080018d8 <HAL_GPIO_Init>:
 80018d8:	e92d 4ff7 	stmdb	sp!, {r0, r1, r2, r4, r5, r6, r7, r8, r9, sl, fp, lr}
 80018dc:	f8df 917c 	ldr.w	r9, [pc, #380]	; 8001a5c <HAL_GPIO_Init+0x184>
 80018e0:	4c5c      	ldr	r4, [pc, #368]	; (8001a54 <HAL_GPIO_Init+0x17c>)
 80018e2:	2300      	movs	r3, #0
 80018e4:	680a      	ldr	r2, [r1, #0]
 80018e6:	fa32 f503 	lsrs.w	r5, r2, r3
 80018ea:	d102      	bne.n	80018f2 <HAL_GPIO_Init+0x1a>
 80018ec:	b003      	add	sp, #12
 80018ee:	e8bd 8ff0 	ldmia.w	sp!, {r4, r5, r6, r7, r8, r9, sl, fp, pc}
 80018f2:	2501      	movs	r5, #1
 80018f4:	fa05 fe03 	lsl.w	lr, r5, r3
 80018f8:	ea1e 0202 	ands.w	r2, lr, r2
 80018fc:	f000 80a0 	beq.w	8001a40 <HAL_GPIO_Init+0x168>
 8001900:	684e      	ldr	r6, [r1, #4]
 8001902:	2703      	movs	r7, #3
 8001904:	f006 0503 	and.w	r5, r6, #3
 8001908:	ea4f 0843 	mov.w	r8, r3, lsl #1
 800190c:	fa07 fc08 	lsl.w	ip, r7, r8
 8001910:	1e6f      	subs	r7, r5, #1
 8001912:	2f01      	cmp	r7, #1
 8001914:	ea6f 0c0c 	mvn.w	ip, ip
 8001918:	d834      	bhi.n	8001984 <HAL_GPIO_Init+0xac>
 800191a:	6887      	ldr	r7, [r0, #8]
 800191c:	ea07 0a0c 	and.w	sl, r7, ip
 8001920:	68cf      	ldr	r7, [r1, #12]
 8001922:	fa07 f708 	lsl.w	r7, r7, r8
 8001926:	ea47 070a 	orr.w	r7, r7, sl
 800192a:	6087      	str	r7, [r0, #8]
 800192c:	6847      	ldr	r7, [r0, #4]
 800192e:	ea27 0e0e 	bic.w	lr, r7, lr
 8001932:	f3c6 1700 	ubfx	r7, r6, #4, #1
 8001936:	409f      	lsls	r7, r3
 8001938:	ea47 070e 	orr.w	r7, r7, lr
 800193c:	6047      	str	r7, [r0, #4]
 800193e:	68c7      	ldr	r7, [r0, #12]
 8001940:	ea07 0e0c 	and.w	lr, r7, ip
 8001944:	688f      	ldr	r7, [r1, #8]
 8001946:	fa07 f708 	lsl.w	r7, r7, r8
 800194a:	ea47 070e 	orr.w	r7, r7, lr
 800194e:	2d02      	cmp	r5, #2
 8001950:	60c7      	str	r7, [r0, #12]
 8001952:	d119      	bne.n	8001988 <HAL_GPIO_Init+0xb0>
 8001954:	ea4f 0ad3 	mov.w	sl, r3, lsr #3
 8001958:	eb00 0a8a 	add.w	sl, r0, sl, lsl #2
 800195c:	f003 0b07 	and.w	fp, r3, #7
 8001960:	f8da 7020 	ldr.w	r7, [sl, #32]
 8001964:	ea4f 0b8b 	mov.w	fp, fp, lsl #2
 8001968:	f04f 0e0f 	mov.w	lr, #15
 800196c:	fa0e fe0b 	lsl.w	lr, lr, fp
 8001970:	ea27 0e0e 	bic.w	lr, r7, lr
 8001974:	690f      	ldr	r7, [r1, #16]
 8001976:	fa07 f70b 	lsl.w	r7, r7, fp
 800197a:	ea47 070e 	orr.w	r7, r7, lr
 800197e:	f8ca 7020 	str.w	r7, [sl, #32]
 8001982:	e001      	b.n	8001988 <HAL_GPIO_Init+0xb0>
 8001984:	2d03      	cmp	r5, #3
 8001986:	d1da      	bne.n	800193e <HAL_GPIO_Init+0x66>
 8001988:	6807      	ldr	r7, [r0, #0]
 800198a:	fa05 f508 	lsl.w	r5, r5, r8
 800198e:	ea07 070c 	and.w	r7, r7, ip
 8001992:	432f      	orrs	r7, r5
 8001994:	f416 3f40 	tst.w	r6, #196608	; 0x30000
 8001998:	6007      	str	r7, [r0, #0]
 800199a:	d051      	beq.n	8001a40 <HAL_GPIO_Init+0x168>
 800199c:	f8d9 5060 	ldr.w	r5, [r9, #96]	; 0x60
 80019a0:	f045 0501 	orr.w	r5, r5, #1
 80019a4:	f8c9 5060 	str.w	r5, [r9, #96]	; 0x60
 80019a8:	f8d9 5060 	ldr.w	r5, [r9, #96]	; 0x60
 80019ac:	f023 0703 	bic.w	r7, r3, #3
 80019b0:	f107 4780 	add.w	r7, r7, #1073741824	; 0x40000000
 80019b4:	f005 0501 	and.w	r5, r5, #1
 80019b8:	f507 3780 	add.w	r7, r7, #65536	; 0x10000
 80019bc:	9501      	str	r5, [sp, #4]
 80019be:	f003 0e03 	and.w	lr, r3, #3
 80019c2:	9d01      	ldr	r5, [sp, #4]
 80019c4:	68bd      	ldr	r5, [r7, #8]
 80019c6:	ea4f 0e8e 	mov.w	lr, lr, lsl #2
 80019ca:	f04f 0c0f 	mov.w	ip, #15
 80019ce:	fa0c fc0e 	lsl.w	ip, ip, lr
 80019d2:	f1b0 4f90 	cmp.w	r0, #1207959552	; 0x48000000
 80019d6:	ea25 0c0c 	bic.w	ip, r5, ip
 80019da:	d033      	beq.n	8001a44 <HAL_GPIO_Init+0x16c>
 80019dc:	4d1e      	ldr	r5, [pc, #120]	; (8001a58 <HAL_GPIO_Init+0x180>)
 80019de:	42a8      	cmp	r0, r5
 80019e0:	d032      	beq.n	8001a48 <HAL_GPIO_Init+0x170>
 80019e2:	f505 6580 	add.w	r5, r5, #1024	; 0x400
 80019e6:	42a8      	cmp	r0, r5
 80019e8:	d030      	beq.n	8001a4c <HAL_GPIO_Init+0x174>
 80019ea:	f505 6580 	add.w	r5, r5, #1024	; 0x400
 80019ee:	42a8      	cmp	r0, r5
 80019f0:	d02e      	beq.n	8001a50 <HAL_GPIO_Init+0x178>
 80019f2:	f505 6580 	add.w	r5, r5, #1024	; 0x400
 80019f6:	42a8      	cmp	r0, r5
 80019f8:	bf0c      	ite	eq
 80019fa:	2504      	moveq	r5, #4
 80019fc:	2507      	movne	r5, #7
 80019fe:	fa05 f50e 	lsl.w	r5, r5, lr
 8001a02:	ea45 050c 	orr.w	r5, r5, ip
 8001a06:	60bd      	str	r5, [r7, #8]
 8001a08:	68a5      	ldr	r5, [r4, #8]
 8001a0a:	43d7      	mvns	r7, r2
 8001a0c:	f416 1f80 	tst.w	r6, #1048576	; 0x100000
 8001a10:	bf0c      	ite	eq
 8001a12:	403d      	andeq	r5, r7
 8001a14:	4315      	orrne	r5, r2
 8001a16:	60a5      	str	r5, [r4, #8]
 8001a18:	68e5      	ldr	r5, [r4, #12]
 8001a1a:	f416 1f00 	tst.w	r6, #2097152	; 0x200000
 8001a1e:	bf0c      	ite	eq
 8001a20:	403d      	andeq	r5, r7
 8001a22:	4315      	orrne	r5, r2
 8001a24:	60e5      	str	r5, [r4, #12]
 8001a26:	6865      	ldr	r5, [r4, #4]
 8001a28:	f416 3f00 	tst.w	r6, #131072	; 0x20000
 8001a2c:	bf0c      	ite	eq
 8001a2e:	403d      	andeq	r5, r7
 8001a30:	4315      	orrne	r5, r2
 8001a32:	6065      	str	r5, [r4, #4]
 8001a34:	6825      	ldr	r5, [r4, #0]
 8001a36:	03f6      	lsls	r6, r6, #15
 8001a38:	bf54      	ite	pl
 8001a3a:	403d      	andpl	r5, r7
 8001a3c:	4315      	orrmi	r5, r2
 8001a3e:	6025      	str	r5, [r4, #0]
 8001a40:	3301      	adds	r3, #1
 8001a42:	e74f      	b.n	80018e4 <HAL_GPIO_Init+0xc>
 8001a44:	2500      	movs	r5, #0
 8001a46:	e7da      	b.n	80019fe <HAL_GPIO_Init+0x126>
 8001a48:	2501      	movs	r5, #1
 8001a4a:	e7d8      	b.n	80019fe <HAL_GPIO_Init+0x126>
 8001a4c:	2502      	movs	r5, #2
 8001a4e:	e7d6      	b.n	80019fe <HAL_GPIO_Init+0x126>
 8001a50:	2503      	movs	r5, #3
 8001a52:	e7d4      	b.n	80019fe <HAL_GPIO_Init+0x126>
 8001a54:	40010400 	.word	0x40010400
 8001a58:	48000400 	.word	0x48000400
 8001a5c:	40021000 	.word	0x40021000

08001a60 <HAL_GPIO_WritePin>:
 8001a60:	b10a      	cbz	r2, 8001a66 <HAL_GPIO_WritePin+0x6>
 8001a62:	6181      	str	r1, [r0, #24]
 8001a64:	4770      	bx	lr
 8001a66:	6281      	str	r1, [r0, #40]	; 0x28
 8001a68:	4770      	bx	lr
	...

08001a6c <HAL_PWREx_GetVoltageRange>:
 8001a6c:	4b02      	ldr	r3, [pc, #8]	; (8001a78 <HAL_PWREx_GetVoltageRange+0xc>)
 8001a6e:	6818      	ldr	r0, [r3, #0]
 8001a70:	f400 60c0 	and.w	r0, r0, #1536	; 0x600
 8001a74:	4770      	bx	lr
 8001a76:	bf00      	nop
 8001a78:	40007000 	.word	0x40007000

08001a7c <HAL_PWREx_ControlVoltageScaling>:
 8001a7c:	4a17      	ldr	r2, [pc, #92]	; (8001adc <HAL_PWREx_ControlVoltageScaling+0x60>)
 8001a7e:	6813      	ldr	r3, [r2, #0]
 8001a80:	f5b0 7f00 	cmp.w	r0, #512	; 0x200
 8001a84:	f403 63c0 	and.w	r3, r3, #1536	; 0x600
 8001a88:	d11d      	bne.n	8001ac6 <HAL_PWREx_ControlVoltageScaling+0x4a>
 8001a8a:	f5b3 7f00 	cmp.w	r3, #512	; 0x200
 8001a8e:	d101      	bne.n	8001a94 <HAL_PWREx_ControlVoltageScaling+0x18>
 8001a90:	2000      	movs	r0, #0
 8001a92:	4770      	bx	lr
 8001a94:	6813      	ldr	r3, [r2, #0]
 8001a96:	f423 63c0 	bic.w	r3, r3, #1536	; 0x600
 8001a9a:	f443 7300 	orr.w	r3, r3, #512	; 0x200
 8001a9e:	6013      	str	r3, [r2, #0]
 8001aa0:	4b0f      	ldr	r3, [pc, #60]	; (8001ae0 <HAL_PWREx_ControlVoltageScaling+0x64>)
 8001aa2:	681b      	ldr	r3, [r3, #0]
 8001aa4:	2132      	movs	r1, #50	; 0x32
 8001aa6:	434b      	muls	r3, r1
 8001aa8:	490e      	ldr	r1, [pc, #56]	; (8001ae4 <HAL_PWREx_ControlVoltageScaling+0x68>)
 8001aaa:	fbb3 f3f1 	udiv	r3, r3, r1
 8001aae:	3301      	adds	r3, #1
 8001ab0:	6951      	ldr	r1, [r2, #20]
 8001ab2:	0549      	lsls	r1, r1, #21
 8001ab4:	d500      	bpl.n	8001ab8 <HAL_PWREx_ControlVoltageScaling+0x3c>
 8001ab6:	b923      	cbnz	r3, 8001ac2 <HAL_PWREx_ControlVoltageScaling+0x46>
 8001ab8:	6953      	ldr	r3, [r2, #20]
 8001aba:	055b      	lsls	r3, r3, #21
 8001abc:	d5e8      	bpl.n	8001a90 <HAL_PWREx_ControlVoltageScaling+0x14>
 8001abe:	2003      	movs	r0, #3
 8001ac0:	4770      	bx	lr
 8001ac2:	3b01      	subs	r3, #1
 8001ac4:	e7f4      	b.n	8001ab0 <HAL_PWREx_ControlVoltageScaling+0x34>
 8001ac6:	f5b3 6f80 	cmp.w	r3, #1024	; 0x400
 8001aca:	bf1f      	itttt	ne
 8001acc:	6813      	ldrne	r3, [r2, #0]
 8001ace:	f423 63c0 	bicne.w	r3, r3, #1536	; 0x600
 8001ad2:	f443 6380 	orrne.w	r3, r3, #1024	; 0x400
 8001ad6:	6013      	strne	r3, [r2, #0]
 8001ad8:	e7da      	b.n	8001a90 <HAL_PWREx_ControlVoltageScaling+0x14>
 8001ada:	bf00      	nop
 8001adc:	40007000 	.word	0x40007000
 8001ae0:	20000008 	.word	0x20000008
 8001ae4:	000f4240 	.word	0x000f4240

08001ae8 <RCC_SetFlashLatencyFromMSIRange>:
 8001ae8:	b537      	push	{r0, r1, r2, r4, r5, lr}
 8001aea:	4d1e      	ldr	r5, [pc, #120]	; (8001b64 <RCC_SetFlashLatencyFromMSIRange+0x7c>)
 8001aec:	6dab      	ldr	r3, [r5, #88]	; 0x58
 8001aee:	00da      	lsls	r2, r3, #3
 8001af0:	4604      	mov	r4, r0
 8001af2:	d518      	bpl.n	8001b26 <RCC_SetFlashLatencyFromMSIRange+0x3e>
 8001af4:	f7ff ffba 	bl	8001a6c <HAL_PWREx_GetVoltageRange>
 8001af8:	f5b0 7f00 	cmp.w	r0, #512	; 0x200
 8001afc:	d123      	bne.n	8001b46 <RCC_SetFlashLatencyFromMSIRange+0x5e>
 8001afe:	2c80      	cmp	r4, #128	; 0x80
 8001b00:	d929      	bls.n	8001b56 <RCC_SetFlashLatencyFromMSIRange+0x6e>
 8001b02:	2ca0      	cmp	r4, #160	; 0xa0
 8001b04:	bf8c      	ite	hi
 8001b06:	2002      	movhi	r0, #2
 8001b08:	2001      	movls	r0, #1
 8001b0a:	4a17      	ldr	r2, [pc, #92]	; (8001b68 <RCC_SetFlashLatencyFromMSIRange+0x80>)
 8001b0c:	6813      	ldr	r3, [r2, #0]
 8001b0e:	f023 0307 	bic.w	r3, r3, #7
 8001b12:	4303      	orrs	r3, r0
 8001b14:	6013      	str	r3, [r2, #0]
 8001b16:	6813      	ldr	r3, [r2, #0]
 8001b18:	f003 0307 	and.w	r3, r3, #7
 8001b1c:	1a18      	subs	r0, r3, r0
 8001b1e:	bf18      	it	ne
 8001b20:	2001      	movne	r0, #1
 8001b22:	b003      	add	sp, #12
 8001b24:	bd30      	pop	{r4, r5, pc}
 8001b26:	6dab      	ldr	r3, [r5, #88]	; 0x58
 8001b28:	f043 5380 	orr.w	r3, r3, #268435456	; 0x10000000
 8001b2c:	65ab      	str	r3, [r5, #88]	; 0x58
 8001b2e:	6dab      	ldr	r3, [r5, #88]	; 0x58
 8001b30:	f003 5380 	and.w	r3, r3, #268435456	; 0x10000000
 8001b34:	9301      	str	r3, [sp, #4]
 8001b36:	9b01      	ldr	r3, [sp, #4]
 8001b38:	f7ff ff98 	bl	8001a6c <HAL_PWREx_GetVoltageRange>
 8001b3c:	6dab      	ldr	r3, [r5, #88]	; 0x58
 8001b3e:	f023 5380 	bic.w	r3, r3, #268435456	; 0x10000000
 8001b42:	65ab      	str	r3, [r5, #88]	; 0x58
 8001b44:	e7d8      	b.n	8001af8 <RCC_SetFlashLatencyFromMSIRange+0x10>
 8001b46:	2c80      	cmp	r4, #128	; 0x80
 8001b48:	d807      	bhi.n	8001b5a <RCC_SetFlashLatencyFromMSIRange+0x72>
 8001b4a:	d008      	beq.n	8001b5e <RCC_SetFlashLatencyFromMSIRange+0x76>
 8001b4c:	f1a4 0370 	sub.w	r3, r4, #112	; 0x70
 8001b50:	4258      	negs	r0, r3
 8001b52:	4158      	adcs	r0, r3
 8001b54:	e7d9      	b.n	8001b0a <RCC_SetFlashLatencyFromMSIRange+0x22>
 8001b56:	2000      	movs	r0, #0
 8001b58:	e7d7      	b.n	8001b0a <RCC_SetFlashLatencyFromMSIRange+0x22>
 8001b5a:	2003      	movs	r0, #3
 8001b5c:	e7d5      	b.n	8001b0a <RCC_SetFlashLatencyFromMSIRange+0x22>
 8001b5e:	2002      	movs	r0, #2
 8001b60:	e7d3      	b.n	8001b0a <RCC_SetFlashLatencyFromMSIRange+0x22>
 8001b62:	bf00      	nop
 8001b64:	40021000 	.word	0x40021000
 8001b68:	40022000 	.word	0x40022000

08001b6c <HAL_RCC_MCOConfig>:
 8001b6c:	b570      	push	{r4, r5, r6, lr}
 8001b6e:	4c12      	ldr	r4, [pc, #72]	; (8001bb8 <HAL_RCC_MCOConfig+0x4c>)
 8001b70:	6ce3      	ldr	r3, [r4, #76]	; 0x4c
 8001b72:	f043 0301 	orr.w	r3, r3, #1
 8001b76:	64e3      	str	r3, [r4, #76]	; 0x4c
 8001b78:	6ce3      	ldr	r3, [r4, #76]	; 0x4c
 8001b7a:	b086      	sub	sp, #24
 8001b7c:	f003 0301 	and.w	r3, r3, #1
 8001b80:	9300      	str	r3, [sp, #0]
 8001b82:	9b00      	ldr	r3, [sp, #0]
 8001b84:	4616      	mov	r6, r2
 8001b86:	2302      	movs	r3, #2
 8001b88:	f44f 7280 	mov.w	r2, #256	; 0x100
 8001b8c:	e9cd 2301 	strd	r2, r3, [sp, #4]
 8001b90:	460d      	mov	r5, r1
 8001b92:	9304      	str	r3, [sp, #16]
 8001b94:	a901      	add	r1, sp, #4
 8001b96:	2300      	movs	r3, #0
 8001b98:	f04f 4090 	mov.w	r0, #1207959552	; 0x48000000
 8001b9c:	9303      	str	r3, [sp, #12]
 8001b9e:	9305      	str	r3, [sp, #20]
 8001ba0:	f7ff fe9a 	bl	80018d8 <HAL_GPIO_Init>
 8001ba4:	68a3      	ldr	r3, [r4, #8]
 8001ba6:	f023 43fe 	bic.w	r3, r3, #2130706432	; 0x7f000000
 8001baa:	ea43 0206 	orr.w	r2, r3, r6
 8001bae:	432a      	orrs	r2, r5
 8001bb0:	60a2      	str	r2, [r4, #8]
 8001bb2:	b006      	add	sp, #24
 8001bb4:	bd70      	pop	{r4, r5, r6, pc}
 8001bb6:	bf00      	nop
 8001bb8:	40021000 	.word	0x40021000

08001bbc <HAL_RCC_GetSysClockFreq>:
 8001bbc:	4b22      	ldr	r3, [pc, #136]	; (8001c48 <HAL_RCC_GetSysClockFreq+0x8c>)
 8001bbe:	689a      	ldr	r2, [r3, #8]
 8001bc0:	68d9      	ldr	r1, [r3, #12]
 8001bc2:	f012 020c 	ands.w	r2, r2, #12
 8001bc6:	d005      	beq.n	8001bd4 <HAL_RCC_GetSysClockFreq+0x18>
 8001bc8:	2a0c      	cmp	r2, #12
 8001bca:	d115      	bne.n	8001bf8 <HAL_RCC_GetSysClockFreq+0x3c>
 8001bcc:	f001 0103 	and.w	r1, r1, #3
 8001bd0:	2901      	cmp	r1, #1
 8001bd2:	d118      	bne.n	8001c06 <HAL_RCC_GetSysClockFreq+0x4a>
 8001bd4:	6819      	ldr	r1, [r3, #0]
 8001bd6:	481d      	ldr	r0, [pc, #116]	; (8001c4c <HAL_RCC_GetSysClockFreq+0x90>)
 8001bd8:	0709      	lsls	r1, r1, #28
 8001bda:	bf55      	itete	pl
 8001bdc:	f8d3 1094 	ldrpl.w	r1, [r3, #148]	; 0x94
 8001be0:	6819      	ldrmi	r1, [r3, #0]
 8001be2:	f3c1 2103 	ubfxpl	r1, r1, #8, #4
 8001be6:	f3c1 1103 	ubfxmi	r1, r1, #4, #4
 8001bea:	f850 0021 	ldr.w	r0, [r0, r1, lsl #2]
 8001bee:	b34a      	cbz	r2, 8001c44 <HAL_RCC_GetSysClockFreq+0x88>
 8001bf0:	2a0c      	cmp	r2, #12
 8001bf2:	d009      	beq.n	8001c08 <HAL_RCC_GetSysClockFreq+0x4c>
 8001bf4:	2000      	movs	r0, #0
 8001bf6:	4770      	bx	lr
 8001bf8:	2a04      	cmp	r2, #4
 8001bfa:	d022      	beq.n	8001c42 <HAL_RCC_GetSysClockFreq+0x86>
 8001bfc:	2a08      	cmp	r2, #8
 8001bfe:	4814      	ldr	r0, [pc, #80]	; (8001c50 <HAL_RCC_GetSysClockFreq+0x94>)
 8001c00:	bf18      	it	ne
 8001c02:	2000      	movne	r0, #0
 8001c04:	4770      	bx	lr
 8001c06:	2000      	movs	r0, #0
 8001c08:	68da      	ldr	r2, [r3, #12]
 8001c0a:	f002 0203 	and.w	r2, r2, #3
 8001c0e:	2a02      	cmp	r2, #2
 8001c10:	d015      	beq.n	8001c3e <HAL_RCC_GetSysClockFreq+0x82>
 8001c12:	490f      	ldr	r1, [pc, #60]	; (8001c50 <HAL_RCC_GetSysClockFreq+0x94>)
 8001c14:	2a03      	cmp	r2, #3
 8001c16:	bf08      	it	eq
 8001c18:	4608      	moveq	r0, r1
 8001c1a:	68d9      	ldr	r1, [r3, #12]
 8001c1c:	68da      	ldr	r2, [r3, #12]
 8001c1e:	f3c2 2206 	ubfx	r2, r2, #8, #7
 8001c22:	4342      	muls	r2, r0
 8001c24:	68d8      	ldr	r0, [r3, #12]
 8001c26:	f3c0 6041 	ubfx	r0, r0, #25, #2
 8001c2a:	f3c1 1102 	ubfx	r1, r1, #4, #3
 8001c2e:	3001      	adds	r0, #1
 8001c30:	3101      	adds	r1, #1
 8001c32:	0040      	lsls	r0, r0, #1
 8001c34:	fbb2 f2f1 	udiv	r2, r2, r1
 8001c38:	fbb2 f0f0 	udiv	r0, r2, r0
 8001c3c:	4770      	bx	lr
 8001c3e:	4805      	ldr	r0, [pc, #20]	; (8001c54 <HAL_RCC_GetSysClockFreq+0x98>)
 8001c40:	e7eb      	b.n	8001c1a <HAL_RCC_GetSysClockFreq+0x5e>
 8001c42:	4804      	ldr	r0, [pc, #16]	; (8001c54 <HAL_RCC_GetSysClockFreq+0x98>)
 8001c44:	4770      	bx	lr
 8001c46:	bf00      	nop
 8001c48:	40021000 	.word	0x40021000
 8001c4c:	08007e7c 	.word	0x08007e7c
 8001c50:	007a1200 	.word	0x007a1200
 8001c54:	00f42400 	.word	0x00f42400

08001c58 <HAL_RCC_OscConfig>:
 8001c58:	e92d 43f7 	stmdb	sp!, {r0, r1, r2, r4, r5, r6, r7, r8, r9, lr}
 8001c5c:	4605      	mov	r5, r0
 8001c5e:	b908      	cbnz	r0, 8001c64 <HAL_RCC_OscConfig+0xc>
 8001c60:	2001      	movs	r0, #1
 8001c62:	e047      	b.n	8001cf4 <HAL_RCC_OscConfig+0x9c>
 8001c64:	4c94      	ldr	r4, [pc, #592]	; (8001eb8 <HAL_RCC_OscConfig+0x260>)
 8001c66:	6803      	ldr	r3, [r0, #0]
 8001c68:	68a6      	ldr	r6, [r4, #8]
 8001c6a:	68e7      	ldr	r7, [r4, #12]
 8001c6c:	06db      	lsls	r3, r3, #27
 8001c6e:	f006 060c 	and.w	r6, r6, #12
 8001c72:	f007 0703 	and.w	r7, r7, #3
 8001c76:	d575      	bpl.n	8001d64 <HAL_RCC_OscConfig+0x10c>
 8001c78:	b11e      	cbz	r6, 8001c82 <HAL_RCC_OscConfig+0x2a>
 8001c7a:	2e0c      	cmp	r6, #12
 8001c7c:	d154      	bne.n	8001d28 <HAL_RCC_OscConfig+0xd0>
 8001c7e:	2f01      	cmp	r7, #1
 8001c80:	d152      	bne.n	8001d28 <HAL_RCC_OscConfig+0xd0>
 8001c82:	6823      	ldr	r3, [r4, #0]
 8001c84:	0798      	lsls	r0, r3, #30
 8001c86:	d502      	bpl.n	8001c8e <HAL_RCC_OscConfig+0x36>
 8001c88:	69ab      	ldr	r3, [r5, #24]
 8001c8a:	2b00      	cmp	r3, #0
 8001c8c:	d0e8      	beq.n	8001c60 <HAL_RCC_OscConfig+0x8>
 8001c8e:	6823      	ldr	r3, [r4, #0]
 8001c90:	6a28      	ldr	r0, [r5, #32]
 8001c92:	0719      	lsls	r1, r3, #28
 8001c94:	bf56      	itet	pl
 8001c96:	f8d4 3094 	ldrpl.w	r3, [r4, #148]	; 0x94
 8001c9a:	6823      	ldrmi	r3, [r4, #0]
 8001c9c:	091b      	lsrpl	r3, r3, #4
 8001c9e:	f003 03f0 	and.w	r3, r3, #240	; 0xf0
 8001ca2:	4298      	cmp	r0, r3
 8001ca4:	d929      	bls.n	8001cfa <HAL_RCC_OscConfig+0xa2>
 8001ca6:	f7ff ff1f 	bl	8001ae8 <RCC_SetFlashLatencyFromMSIRange>
 8001caa:	2800      	cmp	r0, #0
 8001cac:	d1d8      	bne.n	8001c60 <HAL_RCC_OscConfig+0x8>
 8001cae:	6823      	ldr	r3, [r4, #0]
 8001cb0:	f043 0308 	orr.w	r3, r3, #8
 8001cb4:	6023      	str	r3, [r4, #0]
 8001cb6:	6823      	ldr	r3, [r4, #0]
 8001cb8:	6a2a      	ldr	r2, [r5, #32]
 8001cba:	f023 03f0 	bic.w	r3, r3, #240	; 0xf0
 8001cbe:	4313      	orrs	r3, r2
 8001cc0:	6023      	str	r3, [r4, #0]
 8001cc2:	6863      	ldr	r3, [r4, #4]
 8001cc4:	69ea      	ldr	r2, [r5, #28]
 8001cc6:	f423 437f 	bic.w	r3, r3, #65280	; 0xff00
 8001cca:	ea43 2302 	orr.w	r3, r3, r2, lsl #8
 8001cce:	6063      	str	r3, [r4, #4]
 8001cd0:	f7ff ff74 	bl	8001bbc <HAL_RCC_GetSysClockFreq>
 8001cd4:	68a3      	ldr	r3, [r4, #8]
 8001cd6:	4a79      	ldr	r2, [pc, #484]	; (8001ebc <HAL_RCC_OscConfig+0x264>)
 8001cd8:	f3c3 1303 	ubfx	r3, r3, #4, #4
 8001cdc:	5cd3      	ldrb	r3, [r2, r3]
 8001cde:	f003 031f 	and.w	r3, r3, #31
 8001ce2:	40d8      	lsrs	r0, r3
 8001ce4:	4b76      	ldr	r3, [pc, #472]	; (8001ec0 <HAL_RCC_OscConfig+0x268>)
 8001ce6:	6018      	str	r0, [r3, #0]
 8001ce8:	4b76      	ldr	r3, [pc, #472]	; (8001ec4 <HAL_RCC_OscConfig+0x26c>)
 8001cea:	6818      	ldr	r0, [r3, #0]
 8001cec:	f7ff fcf8 	bl	80016e0 <HAL_InitTick>
 8001cf0:	2800      	cmp	r0, #0
 8001cf2:	d037      	beq.n	8001d64 <HAL_RCC_OscConfig+0x10c>
 8001cf4:	b003      	add	sp, #12
 8001cf6:	e8bd 83f0 	ldmia.w	sp!, {r4, r5, r6, r7, r8, r9, pc}
 8001cfa:	6823      	ldr	r3, [r4, #0]
 8001cfc:	f043 0308 	orr.w	r3, r3, #8
 8001d00:	6023      	str	r3, [r4, #0]
 8001d02:	6823      	ldr	r3, [r4, #0]
 8001d04:	f023 03f0 	bic.w	r3, r3, #240	; 0xf0
 8001d08:	4303      	orrs	r3, r0
 8001d0a:	6023      	str	r3, [r4, #0]
 8001d0c:	6863      	ldr	r3, [r4, #4]
 8001d0e:	69ea      	ldr	r2, [r5, #28]
 8001d10:	f423 437f 	bic.w	r3, r3, #65280	; 0xff00
 8001d14:	ea43 2302 	orr.w	r3, r3, r2, lsl #8
 8001d18:	6063      	str	r3, [r4, #4]
 8001d1a:	2e00      	cmp	r6, #0
 8001d1c:	d1d8      	bne.n	8001cd0 <HAL_RCC_OscConfig+0x78>
 8001d1e:	f7ff fee3 	bl	8001ae8 <RCC_SetFlashLatencyFromMSIRange>
 8001d22:	2800      	cmp	r0, #0
 8001d24:	d0d4      	beq.n	8001cd0 <HAL_RCC_OscConfig+0x78>
 8001d26:	e79b      	b.n	8001c60 <HAL_RCC_OscConfig+0x8>
 8001d28:	69ab      	ldr	r3, [r5, #24]
 8001d2a:	2b00      	cmp	r3, #0
 8001d2c:	d03a      	beq.n	8001da4 <HAL_RCC_OscConfig+0x14c>
 8001d2e:	6823      	ldr	r3, [r4, #0]
 8001d30:	f043 0301 	orr.w	r3, r3, #1
 8001d34:	6023      	str	r3, [r4, #0]
 8001d36:	f7ff fd15 	bl	8001764 <HAL_GetTick>
 8001d3a:	4680      	mov	r8, r0
 8001d3c:	6823      	ldr	r3, [r4, #0]
 8001d3e:	079a      	lsls	r2, r3, #30
 8001d40:	d528      	bpl.n	8001d94 <HAL_RCC_OscConfig+0x13c>
 8001d42:	6823      	ldr	r3, [r4, #0]
 8001d44:	f043 0308 	orr.w	r3, r3, #8
 8001d48:	6023      	str	r3, [r4, #0]
 8001d4a:	6823      	ldr	r3, [r4, #0]
 8001d4c:	6a2a      	ldr	r2, [r5, #32]
 8001d4e:	f023 03f0 	bic.w	r3, r3, #240	; 0xf0
 8001d52:	4313      	orrs	r3, r2
 8001d54:	6023      	str	r3, [r4, #0]
 8001d56:	6863      	ldr	r3, [r4, #4]
 8001d58:	69ea      	ldr	r2, [r5, #28]
 8001d5a:	f423 437f 	bic.w	r3, r3, #65280	; 0xff00
 8001d5e:	ea43 2302 	orr.w	r3, r3, r2, lsl #8
 8001d62:	6063      	str	r3, [r4, #4]
 8001d64:	682b      	ldr	r3, [r5, #0]
 8001d66:	07d8      	lsls	r0, r3, #31
 8001d68:	d42d      	bmi.n	8001dc6 <HAL_RCC_OscConfig+0x16e>
 8001d6a:	682b      	ldr	r3, [r5, #0]
 8001d6c:	0799      	lsls	r1, r3, #30
 8001d6e:	d46b      	bmi.n	8001e48 <HAL_RCC_OscConfig+0x1f0>
 8001d70:	682b      	ldr	r3, [r5, #0]
 8001d72:	0718      	lsls	r0, r3, #28
 8001d74:	f100 80a8 	bmi.w	8001ec8 <HAL_RCC_OscConfig+0x270>
 8001d78:	682b      	ldr	r3, [r5, #0]
 8001d7a:	0759      	lsls	r1, r3, #29
 8001d7c:	f100 80ce 	bmi.w	8001f1c <HAL_RCC_OscConfig+0x2c4>
 8001d80:	682b      	ldr	r3, [r5, #0]
 8001d82:	0699      	lsls	r1, r3, #26
 8001d84:	f100 8137 	bmi.w	8001ff6 <HAL_RCC_OscConfig+0x39e>
 8001d88:	6aab      	ldr	r3, [r5, #40]	; 0x28
 8001d8a:	2b00      	cmp	r3, #0
 8001d8c:	f040 815d 	bne.w	800204a <HAL_RCC_OscConfig+0x3f2>
 8001d90:	2000      	movs	r0, #0
 8001d92:	e7af      	b.n	8001cf4 <HAL_RCC_OscConfig+0x9c>
 8001d94:	f7ff fce6 	bl	8001764 <HAL_GetTick>
 8001d98:	eba0 0008 	sub.w	r0, r0, r8
 8001d9c:	2802      	cmp	r0, #2
 8001d9e:	d9cd      	bls.n	8001d3c <HAL_RCC_OscConfig+0xe4>
 8001da0:	2003      	movs	r0, #3
 8001da2:	e7a7      	b.n	8001cf4 <HAL_RCC_OscConfig+0x9c>
 8001da4:	6823      	ldr	r3, [r4, #0]
 8001da6:	f023 0301 	bic.w	r3, r3, #1
 8001daa:	6023      	str	r3, [r4, #0]
 8001dac:	f7ff fcda 	bl	8001764 <HAL_GetTick>
 8001db0:	4680      	mov	r8, r0
 8001db2:	6823      	ldr	r3, [r4, #0]
 8001db4:	079b      	lsls	r3, r3, #30
 8001db6:	d5d5      	bpl.n	8001d64 <HAL_RCC_OscConfig+0x10c>
 8001db8:	f7ff fcd4 	bl	8001764 <HAL_GetTick>
 8001dbc:	eba0 0008 	sub.w	r0, r0, r8
 8001dc0:	2802      	cmp	r0, #2
 8001dc2:	d9f6      	bls.n	8001db2 <HAL_RCC_OscConfig+0x15a>
 8001dc4:	e7ec      	b.n	8001da0 <HAL_RCC_OscConfig+0x148>
 8001dc6:	2e08      	cmp	r6, #8
 8001dc8:	d003      	beq.n	8001dd2 <HAL_RCC_OscConfig+0x17a>
 8001dca:	2e0c      	cmp	r6, #12
 8001dcc:	d108      	bne.n	8001de0 <HAL_RCC_OscConfig+0x188>
 8001dce:	2f03      	cmp	r7, #3
 8001dd0:	d106      	bne.n	8001de0 <HAL_RCC_OscConfig+0x188>
 8001dd2:	6823      	ldr	r3, [r4, #0]
 8001dd4:	039a      	lsls	r2, r3, #14
 8001dd6:	d5c8      	bpl.n	8001d6a <HAL_RCC_OscConfig+0x112>
 8001dd8:	686b      	ldr	r3, [r5, #4]
 8001dda:	2b00      	cmp	r3, #0
 8001ddc:	d1c5      	bne.n	8001d6a <HAL_RCC_OscConfig+0x112>
 8001dde:	e73f      	b.n	8001c60 <HAL_RCC_OscConfig+0x8>
 8001de0:	686b      	ldr	r3, [r5, #4]
 8001de2:	f5b3 3f80 	cmp.w	r3, #65536	; 0x10000
 8001de6:	d110      	bne.n	8001e0a <HAL_RCC_OscConfig+0x1b2>
 8001de8:	6823      	ldr	r3, [r4, #0]
 8001dea:	f443 3380 	orr.w	r3, r3, #65536	; 0x10000
 8001dee:	6023      	str	r3, [r4, #0]
 8001df0:	f7ff fcb8 	bl	8001764 <HAL_GetTick>
 8001df4:	4680      	mov	r8, r0
 8001df6:	6823      	ldr	r3, [r4, #0]
 8001df8:	039b      	lsls	r3, r3, #14
 8001dfa:	d4b6      	bmi.n	8001d6a <HAL_RCC_OscConfig+0x112>
 8001dfc:	f7ff fcb2 	bl	8001764 <HAL_GetTick>
 8001e00:	eba0 0008 	sub.w	r0, r0, r8
 8001e04:	2864      	cmp	r0, #100	; 0x64
 8001e06:	d9f6      	bls.n	8001df6 <HAL_RCC_OscConfig+0x19e>
 8001e08:	e7ca      	b.n	8001da0 <HAL_RCC_OscConfig+0x148>
 8001e0a:	f5b3 2fa0 	cmp.w	r3, #327680	; 0x50000
 8001e0e:	d104      	bne.n	8001e1a <HAL_RCC_OscConfig+0x1c2>
 8001e10:	6823      	ldr	r3, [r4, #0]
 8001e12:	f443 2380 	orr.w	r3, r3, #262144	; 0x40000
 8001e16:	6023      	str	r3, [r4, #0]
 8001e18:	e7e6      	b.n	8001de8 <HAL_RCC_OscConfig+0x190>
 8001e1a:	6822      	ldr	r2, [r4, #0]
 8001e1c:	f422 3280 	bic.w	r2, r2, #65536	; 0x10000
 8001e20:	6022      	str	r2, [r4, #0]
 8001e22:	6822      	ldr	r2, [r4, #0]
 8001e24:	f422 2280 	bic.w	r2, r2, #262144	; 0x40000
 8001e28:	6022      	str	r2, [r4, #0]
 8001e2a:	2b00      	cmp	r3, #0
 8001e2c:	d1e0      	bne.n	8001df0 <HAL_RCC_OscConfig+0x198>
 8001e2e:	f7ff fc99 	bl	8001764 <HAL_GetTick>
 8001e32:	4680      	mov	r8, r0
 8001e34:	6823      	ldr	r3, [r4, #0]
 8001e36:	0398      	lsls	r0, r3, #14
 8001e38:	d597      	bpl.n	8001d6a <HAL_RCC_OscConfig+0x112>
 8001e3a:	f7ff fc93 	bl	8001764 <HAL_GetTick>
 8001e3e:	eba0 0008 	sub.w	r0, r0, r8
 8001e42:	2864      	cmp	r0, #100	; 0x64
 8001e44:	d9f6      	bls.n	8001e34 <HAL_RCC_OscConfig+0x1dc>
 8001e46:	e7ab      	b.n	8001da0 <HAL_RCC_OscConfig+0x148>
 8001e48:	2e04      	cmp	r6, #4
 8001e4a:	d003      	beq.n	8001e54 <HAL_RCC_OscConfig+0x1fc>
 8001e4c:	2e0c      	cmp	r6, #12
 8001e4e:	d110      	bne.n	8001e72 <HAL_RCC_OscConfig+0x21a>
 8001e50:	2f02      	cmp	r7, #2
 8001e52:	d10e      	bne.n	8001e72 <HAL_RCC_OscConfig+0x21a>
 8001e54:	6823      	ldr	r3, [r4, #0]
 8001e56:	0559      	lsls	r1, r3, #21
 8001e58:	d503      	bpl.n	8001e62 <HAL_RCC_OscConfig+0x20a>
 8001e5a:	68eb      	ldr	r3, [r5, #12]
 8001e5c:	2b00      	cmp	r3, #0
 8001e5e:	f43f aeff 	beq.w	8001c60 <HAL_RCC_OscConfig+0x8>
 8001e62:	6863      	ldr	r3, [r4, #4]
 8001e64:	692a      	ldr	r2, [r5, #16]
 8001e66:	f023 53f8 	bic.w	r3, r3, #520093696	; 0x1f000000
 8001e6a:	ea43 6302 	orr.w	r3, r3, r2, lsl #24
 8001e6e:	6063      	str	r3, [r4, #4]
 8001e70:	e77e      	b.n	8001d70 <HAL_RCC_OscConfig+0x118>
 8001e72:	68eb      	ldr	r3, [r5, #12]
 8001e74:	b17b      	cbz	r3, 8001e96 <HAL_RCC_OscConfig+0x23e>
 8001e76:	6823      	ldr	r3, [r4, #0]
 8001e78:	f443 7380 	orr.w	r3, r3, #256	; 0x100
 8001e7c:	6023      	str	r3, [r4, #0]
 8001e7e:	f7ff fc71 	bl	8001764 <HAL_GetTick>
 8001e82:	4607      	mov	r7, r0
 8001e84:	6823      	ldr	r3, [r4, #0]
 8001e86:	055a      	lsls	r2, r3, #21
 8001e88:	d4eb      	bmi.n	8001e62 <HAL_RCC_OscConfig+0x20a>
 8001e8a:	f7ff fc6b 	bl	8001764 <HAL_GetTick>
 8001e8e:	1bc0      	subs	r0, r0, r7
 8001e90:	2802      	cmp	r0, #2
 8001e92:	d9f7      	bls.n	8001e84 <HAL_RCC_OscConfig+0x22c>
 8001e94:	e784      	b.n	8001da0 <HAL_RCC_OscConfig+0x148>
 8001e96:	6823      	ldr	r3, [r4, #0]
 8001e98:	f423 7380 	bic.w	r3, r3, #256	; 0x100
 8001e9c:	6023      	str	r3, [r4, #0]
 8001e9e:	f7ff fc61 	bl	8001764 <HAL_GetTick>
 8001ea2:	4607      	mov	r7, r0
 8001ea4:	6823      	ldr	r3, [r4, #0]
 8001ea6:	055b      	lsls	r3, r3, #21
 8001ea8:	f57f af62 	bpl.w	8001d70 <HAL_RCC_OscConfig+0x118>
 8001eac:	f7ff fc5a 	bl	8001764 <HAL_GetTick>
 8001eb0:	1bc0      	subs	r0, r0, r7
 8001eb2:	2802      	cmp	r0, #2
 8001eb4:	d9f6      	bls.n	8001ea4 <HAL_RCC_OscConfig+0x24c>
 8001eb6:	e773      	b.n	8001da0 <HAL_RCC_OscConfig+0x148>
 8001eb8:	40021000 	.word	0x40021000
 8001ebc:	08007e63 	.word	0x08007e63
 8001ec0:	20000008 	.word	0x20000008
 8001ec4:	20000010 	.word	0x20000010
 8001ec8:	696b      	ldr	r3, [r5, #20]
 8001eca:	b19b      	cbz	r3, 8001ef4 <HAL_RCC_OscConfig+0x29c>
 8001ecc:	f8d4 3094 	ldr.w	r3, [r4, #148]	; 0x94
 8001ed0:	f043 0301 	orr.w	r3, r3, #1
 8001ed4:	f8c4 3094 	str.w	r3, [r4, #148]	; 0x94
 8001ed8:	f7ff fc44 	bl	8001764 <HAL_GetTick>
 8001edc:	4607      	mov	r7, r0
 8001ede:	f8d4 3094 	ldr.w	r3, [r4, #148]	; 0x94
 8001ee2:	079a      	lsls	r2, r3, #30
 8001ee4:	f53f af48 	bmi.w	8001d78 <HAL_RCC_OscConfig+0x120>
 8001ee8:	f7ff fc3c 	bl	8001764 <HAL_GetTick>
 8001eec:	1bc0      	subs	r0, r0, r7
 8001eee:	2802      	cmp	r0, #2
 8001ef0:	d9f5      	bls.n	8001ede <HAL_RCC_OscConfig+0x286>
 8001ef2:	e755      	b.n	8001da0 <HAL_RCC_OscConfig+0x148>
 8001ef4:	f8d4 3094 	ldr.w	r3, [r4, #148]	; 0x94
 8001ef8:	f023 0301 	bic.w	r3, r3, #1
 8001efc:	f8c4 3094 	str.w	r3, [r4, #148]	; 0x94
 8001f00:	f7ff fc30 	bl	8001764 <HAL_GetTick>
 8001f04:	4607      	mov	r7, r0
 8001f06:	f8d4 3094 	ldr.w	r3, [r4, #148]	; 0x94
 8001f0a:	079b      	lsls	r3, r3, #30
 8001f0c:	f57f af34 	bpl.w	8001d78 <HAL_RCC_OscConfig+0x120>
 8001f10:	f7ff fc28 	bl	8001764 <HAL_GetTick>
 8001f14:	1bc0      	subs	r0, r0, r7
 8001f16:	2802      	cmp	r0, #2
 8001f18:	d9f5      	bls.n	8001f06 <HAL_RCC_OscConfig+0x2ae>
 8001f1a:	e741      	b.n	8001da0 <HAL_RCC_OscConfig+0x148>
 8001f1c:	6da3      	ldr	r3, [r4, #88]	; 0x58
 8001f1e:	00d8      	lsls	r0, r3, #3
 8001f20:	d429      	bmi.n	8001f76 <HAL_RCC_OscConfig+0x31e>
 8001f22:	6da3      	ldr	r3, [r4, #88]	; 0x58
 8001f24:	f043 5380 	orr.w	r3, r3, #268435456	; 0x10000000
 8001f28:	65a3      	str	r3, [r4, #88]	; 0x58
 8001f2a:	6da3      	ldr	r3, [r4, #88]	; 0x58
 8001f2c:	f003 5380 	and.w	r3, r3, #268435456	; 0x10000000
 8001f30:	9301      	str	r3, [sp, #4]
 8001f32:	9b01      	ldr	r3, [sp, #4]
 8001f34:	f04f 0801 	mov.w	r8, #1
 8001f38:	4f96      	ldr	r7, [pc, #600]	; (8002194 <HAL_RCC_OscConfig+0x53c>)
 8001f3a:	683b      	ldr	r3, [r7, #0]
 8001f3c:	05d9      	lsls	r1, r3, #23
 8001f3e:	d51d      	bpl.n	8001f7c <HAL_RCC_OscConfig+0x324>
 8001f40:	68ab      	ldr	r3, [r5, #8]
 8001f42:	2b01      	cmp	r3, #1
 8001f44:	d12b      	bne.n	8001f9e <HAL_RCC_OscConfig+0x346>
 8001f46:	f8d4 3090 	ldr.w	r3, [r4, #144]	; 0x90
 8001f4a:	f043 0301 	orr.w	r3, r3, #1
 8001f4e:	f8c4 3090 	str.w	r3, [r4, #144]	; 0x90
 8001f52:	f7ff fc07 	bl	8001764 <HAL_GetTick>
 8001f56:	f241 3988 	movw	r9, #5000	; 0x1388
 8001f5a:	4607      	mov	r7, r0
 8001f5c:	f8d4 3090 	ldr.w	r3, [r4, #144]	; 0x90
 8001f60:	079b      	lsls	r3, r3, #30
 8001f62:	d542      	bpl.n	8001fea <HAL_RCC_OscConfig+0x392>
 8001f64:	f1b8 0f00 	cmp.w	r8, #0
 8001f68:	f43f af0a 	beq.w	8001d80 <HAL_RCC_OscConfig+0x128>
 8001f6c:	6da3      	ldr	r3, [r4, #88]	; 0x58
 8001f6e:	f023 5380 	bic.w	r3, r3, #268435456	; 0x10000000
 8001f72:	65a3      	str	r3, [r4, #88]	; 0x58
 8001f74:	e704      	b.n	8001d80 <HAL_RCC_OscConfig+0x128>
 8001f76:	f04f 0800 	mov.w	r8, #0
 8001f7a:	e7dd      	b.n	8001f38 <HAL_RCC_OscConfig+0x2e0>
 8001f7c:	683b      	ldr	r3, [r7, #0]
 8001f7e:	f443 7380 	orr.w	r3, r3, #256	; 0x100
 8001f82:	603b      	str	r3, [r7, #0]
 8001f84:	f7ff fbee 	bl	8001764 <HAL_GetTick>
 8001f88:	4681      	mov	r9, r0
 8001f8a:	683b      	ldr	r3, [r7, #0]
 8001f8c:	05da      	lsls	r2, r3, #23
 8001f8e:	d4d7      	bmi.n	8001f40 <HAL_RCC_OscConfig+0x2e8>
 8001f90:	f7ff fbe8 	bl	8001764 <HAL_GetTick>
 8001f94:	eba0 0009 	sub.w	r0, r0, r9
 8001f98:	2802      	cmp	r0, #2
 8001f9a:	d9f6      	bls.n	8001f8a <HAL_RCC_OscConfig+0x332>
 8001f9c:	e700      	b.n	8001da0 <HAL_RCC_OscConfig+0x148>
 8001f9e:	2b05      	cmp	r3, #5
 8001fa0:	d106      	bne.n	8001fb0 <HAL_RCC_OscConfig+0x358>
 8001fa2:	f8d4 3090 	ldr.w	r3, [r4, #144]	; 0x90
 8001fa6:	f043 0304 	orr.w	r3, r3, #4
 8001faa:	f8c4 3090 	str.w	r3, [r4, #144]	; 0x90
 8001fae:	e7ca      	b.n	8001f46 <HAL_RCC_OscConfig+0x2ee>
 8001fb0:	f8d4 2090 	ldr.w	r2, [r4, #144]	; 0x90
 8001fb4:	f022 0201 	bic.w	r2, r2, #1
 8001fb8:	f8c4 2090 	str.w	r2, [r4, #144]	; 0x90
 8001fbc:	f8d4 2090 	ldr.w	r2, [r4, #144]	; 0x90
 8001fc0:	f022 0204 	bic.w	r2, r2, #4
 8001fc4:	f8c4 2090 	str.w	r2, [r4, #144]	; 0x90
 8001fc8:	2b00      	cmp	r3, #0
 8001fca:	d1c2      	bne.n	8001f52 <HAL_RCC_OscConfig+0x2fa>
 8001fcc:	f7ff fbca 	bl	8001764 <HAL_GetTick>
 8001fd0:	f241 3988 	movw	r9, #5000	; 0x1388
 8001fd4:	4607      	mov	r7, r0
 8001fd6:	f8d4 3090 	ldr.w	r3, [r4, #144]	; 0x90
 8001fda:	0798      	lsls	r0, r3, #30
 8001fdc:	d5c2      	bpl.n	8001f64 <HAL_RCC_OscConfig+0x30c>
 8001fde:	f7ff fbc1 	bl	8001764 <HAL_GetTick>
 8001fe2:	1bc0      	subs	r0, r0, r7
 8001fe4:	4548      	cmp	r0, r9
 8001fe6:	d9f6      	bls.n	8001fd6 <HAL_RCC_OscConfig+0x37e>
 8001fe8:	e6da      	b.n	8001da0 <HAL_RCC_OscConfig+0x148>
 8001fea:	f7ff fbbb 	bl	8001764 <HAL_GetTick>
 8001fee:	1bc0      	subs	r0, r0, r7
 8001ff0:	4548      	cmp	r0, r9
 8001ff2:	d9b3      	bls.n	8001f5c <HAL_RCC_OscConfig+0x304>
 8001ff4:	e6d4      	b.n	8001da0 <HAL_RCC_OscConfig+0x148>
 8001ff6:	6a6b      	ldr	r3, [r5, #36]	; 0x24
 8001ff8:	b19b      	cbz	r3, 8002022 <HAL_RCC_OscConfig+0x3ca>
 8001ffa:	f8d4 3098 	ldr.w	r3, [r4, #152]	; 0x98
 8001ffe:	f043 0301 	orr.w	r3, r3, #1
 8002002:	f8c4 3098 	str.w	r3, [r4, #152]	; 0x98
 8002006:	f7ff fbad 	bl	8001764 <HAL_GetTick>
 800200a:	4607      	mov	r7, r0
 800200c:	f8d4 3098 	ldr.w	r3, [r4, #152]	; 0x98
 8002010:	079a      	lsls	r2, r3, #30
 8002012:	f53f aeb9 	bmi.w	8001d88 <HAL_RCC_OscConfig+0x130>
 8002016:	f7ff fba5 	bl	8001764 <HAL_GetTick>
 800201a:	1bc0      	subs	r0, r0, r7
 800201c:	2802      	cmp	r0, #2
 800201e:	d9f5      	bls.n	800200c <HAL_RCC_OscConfig+0x3b4>
 8002020:	e6be      	b.n	8001da0 <HAL_RCC_OscConfig+0x148>
 8002022:	f8d4 3098 	ldr.w	r3, [r4, #152]	; 0x98
 8002026:	f023 0301 	bic.w	r3, r3, #1
 800202a:	f8c4 3098 	str.w	r3, [r4, #152]	; 0x98
 800202e:	f7ff fb99 	bl	8001764 <HAL_GetTick>
 8002032:	4607      	mov	r7, r0
 8002034:	f8d4 3098 	ldr.w	r3, [r4, #152]	; 0x98
 8002038:	079b      	lsls	r3, r3, #30
 800203a:	f57f aea5 	bpl.w	8001d88 <HAL_RCC_OscConfig+0x130>
 800203e:	f7ff fb91 	bl	8001764 <HAL_GetTick>
 8002042:	1bc0      	subs	r0, r0, r7
 8002044:	2802      	cmp	r0, #2
 8002046:	d9f5      	bls.n	8002034 <HAL_RCC_OscConfig+0x3dc>
 8002048:	e6aa      	b.n	8001da0 <HAL_RCC_OscConfig+0x148>
 800204a:	2b02      	cmp	r3, #2
 800204c:	f040 8088 	bne.w	8002160 <HAL_RCC_OscConfig+0x508>
 8002050:	68e3      	ldr	r3, [r4, #12]
 8002052:	6aea      	ldr	r2, [r5, #44]	; 0x2c
 8002054:	f003 0103 	and.w	r1, r3, #3
 8002058:	4291      	cmp	r1, r2
 800205a:	d122      	bne.n	80020a2 <HAL_RCC_OscConfig+0x44a>
 800205c:	6b29      	ldr	r1, [r5, #48]	; 0x30
 800205e:	f003 0270 	and.w	r2, r3, #112	; 0x70
 8002062:	3901      	subs	r1, #1
 8002064:	ebb2 1f01 	cmp.w	r2, r1, lsl #4
 8002068:	d11b      	bne.n	80020a2 <HAL_RCC_OscConfig+0x44a>
 800206a:	6b69      	ldr	r1, [r5, #52]	; 0x34
 800206c:	f403 42fe 	and.w	r2, r3, #32512	; 0x7f00
 8002070:	ebb2 2f01 	cmp.w	r2, r1, lsl #8
 8002074:	d115      	bne.n	80020a2 <HAL_RCC_OscConfig+0x44a>
 8002076:	6ba9      	ldr	r1, [r5, #56]	; 0x38
 8002078:	f003 4278 	and.w	r2, r3, #4160749568	; 0xf8000000
 800207c:	ebb2 6fc1 	cmp.w	r2, r1, lsl #27
 8002080:	d10f      	bne.n	80020a2 <HAL_RCC_OscConfig+0x44a>
 8002082:	6bea      	ldr	r2, [r5, #60]	; 0x3c
 8002084:	0852      	lsrs	r2, r2, #1
 8002086:	f403 01c0 	and.w	r1, r3, #6291456	; 0x600000
 800208a:	3a01      	subs	r2, #1
 800208c:	ebb1 5f42 	cmp.w	r1, r2, lsl #21
 8002090:	d107      	bne.n	80020a2 <HAL_RCC_OscConfig+0x44a>
 8002092:	6c2a      	ldr	r2, [r5, #64]	; 0x40
 8002094:	0852      	lsrs	r2, r2, #1
 8002096:	f003 63c0 	and.w	r3, r3, #100663296	; 0x6000000
 800209a:	3a01      	subs	r2, #1
 800209c:	ebb3 6f42 	cmp.w	r3, r2, lsl #25
 80020a0:	d045      	beq.n	800212e <HAL_RCC_OscConfig+0x4d6>
 80020a2:	2e0c      	cmp	r6, #12
 80020a4:	f43f addc 	beq.w	8001c60 <HAL_RCC_OscConfig+0x8>
 80020a8:	6823      	ldr	r3, [r4, #0]
 80020aa:	015e      	lsls	r6, r3, #5
 80020ac:	f53f add8 	bmi.w	8001c60 <HAL_RCC_OscConfig+0x8>
 80020b0:	6823      	ldr	r3, [r4, #0]
 80020b2:	f023 7380 	bic.w	r3, r3, #16777216	; 0x1000000
 80020b6:	6023      	str	r3, [r4, #0]
 80020b8:	f7ff fb54 	bl	8001764 <HAL_GetTick>
 80020bc:	4606      	mov	r6, r0
 80020be:	6823      	ldr	r3, [r4, #0]
 80020c0:	0198      	lsls	r0, r3, #6
 80020c2:	d42e      	bmi.n	8002122 <HAL_RCC_OscConfig+0x4ca>
 80020c4:	68e2      	ldr	r2, [r4, #12]
 80020c6:	4b34      	ldr	r3, [pc, #208]	; (8002198 <HAL_RCC_OscConfig+0x540>)
 80020c8:	4013      	ands	r3, r2
 80020ca:	6aea      	ldr	r2, [r5, #44]	; 0x2c
 80020cc:	4313      	orrs	r3, r2
 80020ce:	6b6a      	ldr	r2, [r5, #52]	; 0x34
 80020d0:	ea43 2302 	orr.w	r3, r3, r2, lsl #8
 80020d4:	6baa      	ldr	r2, [r5, #56]	; 0x38
 80020d6:	ea43 63c2 	orr.w	r3, r3, r2, lsl #27
 80020da:	6b2a      	ldr	r2, [r5, #48]	; 0x30
 80020dc:	3a01      	subs	r2, #1
 80020de:	ea43 1302 	orr.w	r3, r3, r2, lsl #4
 80020e2:	6bea      	ldr	r2, [r5, #60]	; 0x3c
 80020e4:	0852      	lsrs	r2, r2, #1
 80020e6:	3a01      	subs	r2, #1
 80020e8:	ea43 5342 	orr.w	r3, r3, r2, lsl #21
 80020ec:	6c2a      	ldr	r2, [r5, #64]	; 0x40
 80020ee:	0852      	lsrs	r2, r2, #1
 80020f0:	3a01      	subs	r2, #1
 80020f2:	ea43 6342 	orr.w	r3, r3, r2, lsl #25
 80020f6:	60e3      	str	r3, [r4, #12]
 80020f8:	6823      	ldr	r3, [r4, #0]
 80020fa:	f043 7380 	orr.w	r3, r3, #16777216	; 0x1000000
 80020fe:	6023      	str	r3, [r4, #0]
 8002100:	68e3      	ldr	r3, [r4, #12]
 8002102:	f043 7380 	orr.w	r3, r3, #16777216	; 0x1000000
 8002106:	60e3      	str	r3, [r4, #12]
 8002108:	f7ff fb2c 	bl	8001764 <HAL_GetTick>
 800210c:	4605      	mov	r5, r0
 800210e:	6823      	ldr	r3, [r4, #0]
 8002110:	0199      	lsls	r1, r3, #6
 8002112:	f53f ae3d 	bmi.w	8001d90 <HAL_RCC_OscConfig+0x138>
 8002116:	f7ff fb25 	bl	8001764 <HAL_GetTick>
 800211a:	1b40      	subs	r0, r0, r5
 800211c:	2802      	cmp	r0, #2
 800211e:	d9f6      	bls.n	800210e <HAL_RCC_OscConfig+0x4b6>
 8002120:	e63e      	b.n	8001da0 <HAL_RCC_OscConfig+0x148>
 8002122:	f7ff fb1f 	bl	8001764 <HAL_GetTick>
 8002126:	1b80      	subs	r0, r0, r6
 8002128:	2802      	cmp	r0, #2
 800212a:	d9c8      	bls.n	80020be <HAL_RCC_OscConfig+0x466>
 800212c:	e638      	b.n	8001da0 <HAL_RCC_OscConfig+0x148>
 800212e:	6823      	ldr	r3, [r4, #0]
 8002130:	019a      	lsls	r2, r3, #6
 8002132:	f53f ae2d 	bmi.w	8001d90 <HAL_RCC_OscConfig+0x138>
 8002136:	6823      	ldr	r3, [r4, #0]
 8002138:	f043 7380 	orr.w	r3, r3, #16777216	; 0x1000000
 800213c:	6023      	str	r3, [r4, #0]
 800213e:	68e3      	ldr	r3, [r4, #12]
 8002140:	f043 7380 	orr.w	r3, r3, #16777216	; 0x1000000
 8002144:	60e3      	str	r3, [r4, #12]
 8002146:	f7ff fb0d 	bl	8001764 <HAL_GetTick>
 800214a:	4605      	mov	r5, r0
 800214c:	6823      	ldr	r3, [r4, #0]
 800214e:	019b      	lsls	r3, r3, #6
 8002150:	f53f ae1e 	bmi.w	8001d90 <HAL_RCC_OscConfig+0x138>
 8002154:	f7ff fb06 	bl	8001764 <HAL_GetTick>
 8002158:	1b40      	subs	r0, r0, r5
 800215a:	2802      	cmp	r0, #2
 800215c:	d9f6      	bls.n	800214c <HAL_RCC_OscConfig+0x4f4>
 800215e:	e61f      	b.n	8001da0 <HAL_RCC_OscConfig+0x148>
 8002160:	2e0c      	cmp	r6, #12
 8002162:	f43f ad7d 	beq.w	8001c60 <HAL_RCC_OscConfig+0x8>
 8002166:	6823      	ldr	r3, [r4, #0]
 8002168:	f023 7380 	bic.w	r3, r3, #16777216	; 0x1000000
 800216c:	6023      	str	r3, [r4, #0]
 800216e:	f7ff faf9 	bl	8001764 <HAL_GetTick>
 8002172:	4605      	mov	r5, r0
 8002174:	6823      	ldr	r3, [r4, #0]
 8002176:	f013 7300 	ands.w	r3, r3, #33554432	; 0x2000000
 800217a:	d104      	bne.n	8002186 <HAL_RCC_OscConfig+0x52e>
 800217c:	68e1      	ldr	r1, [r4, #12]
 800217e:	4a07      	ldr	r2, [pc, #28]	; (800219c <HAL_RCC_OscConfig+0x544>)
 8002180:	400a      	ands	r2, r1
 8002182:	60e2      	str	r2, [r4, #12]
 8002184:	e604      	b.n	8001d90 <HAL_RCC_OscConfig+0x138>
 8002186:	f7ff faed 	bl	8001764 <HAL_GetTick>
 800218a:	1b40      	subs	r0, r0, r5
 800218c:	2802      	cmp	r0, #2
 800218e:	d9f1      	bls.n	8002174 <HAL_RCC_OscConfig+0x51c>
 8002190:	e606      	b.n	8001da0 <HAL_RCC_OscConfig+0x148>
 8002192:	bf00      	nop
 8002194:	40007000 	.word	0x40007000
 8002198:	019d808c 	.word	0x019d808c
 800219c:	feeefffc 	.word	0xfeeefffc

080021a0 <HAL_RCC_ClockConfig>:
 80021a0:	e92d 41f0 	stmdb	sp!, {r4, r5, r6, r7, r8, lr}
 80021a4:	460d      	mov	r5, r1
 80021a6:	4604      	mov	r4, r0
 80021a8:	b910      	cbnz	r0, 80021b0 <HAL_RCC_ClockConfig+0x10>
 80021aa:	2001      	movs	r0, #1
 80021ac:	e8bd 81f0 	ldmia.w	sp!, {r4, r5, r6, r7, r8, pc}
 80021b0:	4a4b      	ldr	r2, [pc, #300]	; (80022e0 <HAL_RCC_ClockConfig+0x140>)
 80021b2:	6813      	ldr	r3, [r2, #0]
 80021b4:	f003 0307 	and.w	r3, r3, #7
 80021b8:	428b      	cmp	r3, r1
 80021ba:	d32c      	bcc.n	8002216 <HAL_RCC_ClockConfig+0x76>
 80021bc:	6820      	ldr	r0, [r4, #0]
 80021be:	0786      	lsls	r6, r0, #30
 80021c0:	d434      	bmi.n	800222c <HAL_RCC_ClockConfig+0x8c>
 80021c2:	07c1      	lsls	r1, r0, #31
 80021c4:	d43f      	bmi.n	8002246 <HAL_RCC_ClockConfig+0xa6>
 80021c6:	6821      	ldr	r1, [r4, #0]
 80021c8:	078a      	lsls	r2, r1, #30
 80021ca:	d468      	bmi.n	800229e <HAL_RCC_ClockConfig+0xfe>
 80021cc:	4a44      	ldr	r2, [pc, #272]	; (80022e0 <HAL_RCC_ClockConfig+0x140>)
 80021ce:	6813      	ldr	r3, [r2, #0]
 80021d0:	f003 0307 	and.w	r3, r3, #7
 80021d4:	42ab      	cmp	r3, r5
 80021d6:	d86f      	bhi.n	80022b8 <HAL_RCC_ClockConfig+0x118>
 80021d8:	f011 0f04 	tst.w	r1, #4
 80021dc:	4d41      	ldr	r5, [pc, #260]	; (80022e4 <HAL_RCC_ClockConfig+0x144>)
 80021de:	d177      	bne.n	80022d0 <HAL_RCC_ClockConfig+0x130>
 80021e0:	070b      	lsls	r3, r1, #28
 80021e2:	d506      	bpl.n	80021f2 <HAL_RCC_ClockConfig+0x52>
 80021e4:	68ab      	ldr	r3, [r5, #8]
 80021e6:	6922      	ldr	r2, [r4, #16]
 80021e8:	f423 5360 	bic.w	r3, r3, #14336	; 0x3800
 80021ec:	ea43 03c2 	orr.w	r3, r3, r2, lsl #3
 80021f0:	60ab      	str	r3, [r5, #8]
 80021f2:	f7ff fce3 	bl	8001bbc <HAL_RCC_GetSysClockFreq>
 80021f6:	68ab      	ldr	r3, [r5, #8]
 80021f8:	4a3b      	ldr	r2, [pc, #236]	; (80022e8 <HAL_RCC_ClockConfig+0x148>)
 80021fa:	f3c3 1303 	ubfx	r3, r3, #4, #4
 80021fe:	e8bd 41f0 	ldmia.w	sp!, {r4, r5, r6, r7, r8, lr}
 8002202:	5cd3      	ldrb	r3, [r2, r3]
 8002204:	f003 031f 	and.w	r3, r3, #31
 8002208:	40d8      	lsrs	r0, r3
 800220a:	4b38      	ldr	r3, [pc, #224]	; (80022ec <HAL_RCC_ClockConfig+0x14c>)
 800220c:	6018      	str	r0, [r3, #0]
 800220e:	4b38      	ldr	r3, [pc, #224]	; (80022f0 <HAL_RCC_ClockConfig+0x150>)
 8002210:	6818      	ldr	r0, [r3, #0]
 8002212:	f7ff ba65 	b.w	80016e0 <HAL_InitTick>
 8002216:	6813      	ldr	r3, [r2, #0]
 8002218:	f023 0307 	bic.w	r3, r3, #7
 800221c:	430b      	orrs	r3, r1
 800221e:	6013      	str	r3, [r2, #0]
 8002220:	6813      	ldr	r3, [r2, #0]
 8002222:	f003 0307 	and.w	r3, r3, #7
 8002226:	428b      	cmp	r3, r1
 8002228:	d1bf      	bne.n	80021aa <HAL_RCC_ClockConfig+0xa>
 800222a:	e7c7      	b.n	80021bc <HAL_RCC_ClockConfig+0x1c>
 800222c:	4a2d      	ldr	r2, [pc, #180]	; (80022e4 <HAL_RCC_ClockConfig+0x144>)
 800222e:	68a6      	ldr	r6, [r4, #8]
 8002230:	6891      	ldr	r1, [r2, #8]
 8002232:	f001 01f0 	and.w	r1, r1, #240	; 0xf0
 8002236:	428e      	cmp	r6, r1
 8002238:	bf81      	itttt	hi
 800223a:	6893      	ldrhi	r3, [r2, #8]
 800223c:	f023 03f0 	bichi.w	r3, r3, #240	; 0xf0
 8002240:	4333      	orrhi	r3, r6
 8002242:	6093      	strhi	r3, [r2, #8]
 8002244:	e7bd      	b.n	80021c2 <HAL_RCC_ClockConfig+0x22>
 8002246:	6862      	ldr	r2, [r4, #4]
 8002248:	4e26      	ldr	r6, [pc, #152]	; (80022e4 <HAL_RCC_ClockConfig+0x144>)
 800224a:	2a03      	cmp	r2, #3
 800224c:	6833      	ldr	r3, [r6, #0]
 800224e:	d11a      	bne.n	8002286 <HAL_RCC_ClockConfig+0xe6>
 8002250:	f013 7f00 	tst.w	r3, #33554432	; 0x2000000
 8002254:	d0a9      	beq.n	80021aa <HAL_RCC_ClockConfig+0xa>
 8002256:	68b3      	ldr	r3, [r6, #8]
 8002258:	f023 0303 	bic.w	r3, r3, #3
 800225c:	4313      	orrs	r3, r2
 800225e:	60b3      	str	r3, [r6, #8]
 8002260:	f7ff fa80 	bl	8001764 <HAL_GetTick>
 8002264:	f241 3888 	movw	r8, #5000	; 0x1388
 8002268:	4607      	mov	r7, r0
 800226a:	68b3      	ldr	r3, [r6, #8]
 800226c:	6862      	ldr	r2, [r4, #4]
 800226e:	f003 030c 	and.w	r3, r3, #12
 8002272:	ebb3 0f82 	cmp.w	r3, r2, lsl #2
 8002276:	d0a6      	beq.n	80021c6 <HAL_RCC_ClockConfig+0x26>
 8002278:	f7ff fa74 	bl	8001764 <HAL_GetTick>
 800227c:	1bc0      	subs	r0, r0, r7
 800227e:	4540      	cmp	r0, r8
 8002280:	d9f3      	bls.n	800226a <HAL_RCC_ClockConfig+0xca>
 8002282:	2003      	movs	r0, #3
 8002284:	e792      	b.n	80021ac <HAL_RCC_ClockConfig+0xc>
 8002286:	2a02      	cmp	r2, #2
 8002288:	d102      	bne.n	8002290 <HAL_RCC_ClockConfig+0xf0>
 800228a:	f413 3f00 	tst.w	r3, #131072	; 0x20000
 800228e:	e7e1      	b.n	8002254 <HAL_RCC_ClockConfig+0xb4>
 8002290:	b912      	cbnz	r2, 8002298 <HAL_RCC_ClockConfig+0xf8>
 8002292:	f013 0f02 	tst.w	r3, #2
 8002296:	e7dd      	b.n	8002254 <HAL_RCC_ClockConfig+0xb4>
 8002298:	f413 6f80 	tst.w	r3, #1024	; 0x400
 800229c:	e7da      	b.n	8002254 <HAL_RCC_ClockConfig+0xb4>
 800229e:	4a11      	ldr	r2, [pc, #68]	; (80022e4 <HAL_RCC_ClockConfig+0x144>)
 80022a0:	68a6      	ldr	r6, [r4, #8]
 80022a2:	6890      	ldr	r0, [r2, #8]
 80022a4:	f000 00f0 	and.w	r0, r0, #240	; 0xf0
 80022a8:	4286      	cmp	r6, r0
 80022aa:	bf3f      	itttt	cc
 80022ac:	6893      	ldrcc	r3, [r2, #8]
 80022ae:	f023 03f0 	biccc.w	r3, r3, #240	; 0xf0
 80022b2:	4333      	orrcc	r3, r6
 80022b4:	6093      	strcc	r3, [r2, #8]
 80022b6:	e789      	b.n	80021cc <HAL_RCC_ClockConfig+0x2c>
 80022b8:	6813      	ldr	r3, [r2, #0]
 80022ba:	f023 0307 	bic.w	r3, r3, #7
 80022be:	432b      	orrs	r3, r5
 80022c0:	6013      	str	r3, [r2, #0]
 80022c2:	6813      	ldr	r3, [r2, #0]
 80022c4:	f003 0307 	and.w	r3, r3, #7
 80022c8:	42ab      	cmp	r3, r5
 80022ca:	f47f af6e 	bne.w	80021aa <HAL_RCC_ClockConfig+0xa>
 80022ce:	e783      	b.n	80021d8 <HAL_RCC_ClockConfig+0x38>
 80022d0:	68ab      	ldr	r3, [r5, #8]
 80022d2:	68e2      	ldr	r2, [r4, #12]
 80022d4:	f423 63e0 	bic.w	r3, r3, #1792	; 0x700
 80022d8:	4313      	orrs	r3, r2
 80022da:	60ab      	str	r3, [r5, #8]
 80022dc:	e780      	b.n	80021e0 <HAL_RCC_ClockConfig+0x40>
 80022de:	bf00      	nop
 80022e0:	40022000 	.word	0x40022000
 80022e4:	40021000 	.word	0x40021000
 80022e8:	08007e63 	.word	0x08007e63
 80022ec:	20000008 	.word	0x20000008
 80022f0:	20000010 	.word	0x20000010

080022f4 <HAL_RCC_GetPCLK1Freq>:
 80022f4:	4b05      	ldr	r3, [pc, #20]	; (800230c <HAL_RCC_GetPCLK1Freq+0x18>)
 80022f6:	4a06      	ldr	r2, [pc, #24]	; (8002310 <HAL_RCC_GetPCLK1Freq+0x1c>)
 80022f8:	689b      	ldr	r3, [r3, #8]
 80022fa:	f3c3 2302 	ubfx	r3, r3, #8, #3
 80022fe:	5cd3      	ldrb	r3, [r2, r3]
 8002300:	4a04      	ldr	r2, [pc, #16]	; (8002314 <HAL_RCC_GetPCLK1Freq+0x20>)
 8002302:	6810      	ldr	r0, [r2, #0]
 8002304:	f003 031f 	and.w	r3, r3, #31
 8002308:	40d8      	lsrs	r0, r3
 800230a:	4770      	bx	lr
 800230c:	40021000 	.word	0x40021000
 8002310:	08007e73 	.word	0x08007e73
 8002314:	20000008 	.word	0x20000008

08002318 <HAL_RCC_GetPCLK2Freq>:
 8002318:	4b05      	ldr	r3, [pc, #20]	; (8002330 <HAL_RCC_GetPCLK2Freq+0x18>)
 800231a:	4a06      	ldr	r2, [pc, #24]	; (8002334 <HAL_RCC_GetPCLK2Freq+0x1c>)
 800231c:	689b      	ldr	r3, [r3, #8]
 800231e:	f3c3 23c2 	ubfx	r3, r3, #11, #3
 8002322:	5cd3      	ldrb	r3, [r2, r3]
 8002324:	4a04      	ldr	r2, [pc, #16]	; (8002338 <HAL_RCC_GetPCLK2Freq+0x20>)
 8002326:	6810      	ldr	r0, [r2, #0]
 8002328:	f003 031f 	and.w	r3, r3, #31
 800232c:	40d8      	lsrs	r0, r3
 800232e:	4770      	bx	lr
 8002330:	40021000 	.word	0x40021000
 8002334:	08007e73 	.word	0x08007e73
 8002338:	20000008 	.word	0x20000008

0800233c <RCCEx_PLLSAI1_Config>:
 800233c:	b5f8      	push	{r3, r4, r5, r6, r7, lr}
 800233e:	4c43      	ldr	r4, [pc, #268]	; (800244c <RCCEx_PLLSAI1_Config+0x110>)
 8002340:	6803      	ldr	r3, [r0, #0]
 8002342:	68e2      	ldr	r2, [r4, #12]
 8002344:	4605      	mov	r5, r0
 8002346:	0790      	lsls	r0, r2, #30
 8002348:	460e      	mov	r6, r1
 800234a:	d039      	beq.n	80023c0 <RCCEx_PLLSAI1_Config+0x84>
 800234c:	68e2      	ldr	r2, [r4, #12]
 800234e:	f002 0203 	and.w	r2, r2, #3
 8002352:	429a      	cmp	r2, r3
 8002354:	d177      	bne.n	8002446 <RCCEx_PLLSAI1_Config+0x10a>
 8002356:	2a00      	cmp	r2, #0
 8002358:	d075      	beq.n	8002446 <RCCEx_PLLSAI1_Config+0x10a>
 800235a:	68e3      	ldr	r3, [r4, #12]
 800235c:	686a      	ldr	r2, [r5, #4]
 800235e:	f3c3 1302 	ubfx	r3, r3, #4, #3
 8002362:	3301      	adds	r3, #1
 8002364:	4293      	cmp	r3, r2
 8002366:	d16e      	bne.n	8002446 <RCCEx_PLLSAI1_Config+0x10a>
 8002368:	6823      	ldr	r3, [r4, #0]
 800236a:	f023 6380 	bic.w	r3, r3, #67108864	; 0x4000000
 800236e:	6023      	str	r3, [r4, #0]
 8002370:	f7ff f9f8 	bl	8001764 <HAL_GetTick>
 8002374:	4607      	mov	r7, r0
 8002376:	6823      	ldr	r3, [r4, #0]
 8002378:	011a      	lsls	r2, r3, #4
 800237a:	d440      	bmi.n	80023fe <RCCEx_PLLSAI1_Config+0xc2>
 800237c:	68ab      	ldr	r3, [r5, #8]
 800237e:	0218      	lsls	r0, r3, #8
 8002380:	2e00      	cmp	r6, #0
 8002382:	d043      	beq.n	800240c <RCCEx_PLLSAI1_Config+0xd0>
 8002384:	2e01      	cmp	r6, #1
 8002386:	d14c      	bne.n	8002422 <RCCEx_PLLSAI1_Config+0xe6>
 8002388:	692a      	ldr	r2, [r5, #16]
 800238a:	6921      	ldr	r1, [r4, #16]
 800238c:	0852      	lsrs	r2, r2, #1
 800238e:	1e53      	subs	r3, r2, #1
 8002390:	f421 02c0 	bic.w	r2, r1, #6291456	; 0x600000
 8002394:	f422 42fe 	bic.w	r2, r2, #32512	; 0x7f00
 8002398:	4302      	orrs	r2, r0
 800239a:	ea42 5243 	orr.w	r2, r2, r3, lsl #21
 800239e:	6122      	str	r2, [r4, #16]
 80023a0:	6823      	ldr	r3, [r4, #0]
 80023a2:	f043 6380 	orr.w	r3, r3, #67108864	; 0x4000000
 80023a6:	6023      	str	r3, [r4, #0]
 80023a8:	f7ff f9dc 	bl	8001764 <HAL_GetTick>
 80023ac:	4606      	mov	r6, r0
 80023ae:	6823      	ldr	r3, [r4, #0]
 80023b0:	011b      	lsls	r3, r3, #4
 80023b2:	d542      	bpl.n	800243a <RCCEx_PLLSAI1_Config+0xfe>
 80023b4:	6923      	ldr	r3, [r4, #16]
 80023b6:	69aa      	ldr	r2, [r5, #24]
 80023b8:	4313      	orrs	r3, r2
 80023ba:	6123      	str	r3, [r4, #16]
 80023bc:	2000      	movs	r0, #0
 80023be:	e024      	b.n	800240a <RCCEx_PLLSAI1_Config+0xce>
 80023c0:	2b02      	cmp	r3, #2
 80023c2:	d011      	beq.n	80023e8 <RCCEx_PLLSAI1_Config+0xac>
 80023c4:	2b03      	cmp	r3, #3
 80023c6:	d013      	beq.n	80023f0 <RCCEx_PLLSAI1_Config+0xb4>
 80023c8:	2b01      	cmp	r3, #1
 80023ca:	d13c      	bne.n	8002446 <RCCEx_PLLSAI1_Config+0x10a>
 80023cc:	6822      	ldr	r2, [r4, #0]
 80023ce:	f012 0f02 	tst.w	r2, #2
 80023d2:	d038      	beq.n	8002446 <RCCEx_PLLSAI1_Config+0x10a>
 80023d4:	68e0      	ldr	r0, [r4, #12]
 80023d6:	686a      	ldr	r2, [r5, #4]
 80023d8:	f020 0073 	bic.w	r0, r0, #115	; 0x73
 80023dc:	3a01      	subs	r2, #1
 80023de:	4318      	orrs	r0, r3
 80023e0:	ea40 1002 	orr.w	r0, r0, r2, lsl #4
 80023e4:	60e0      	str	r0, [r4, #12]
 80023e6:	e7bf      	b.n	8002368 <RCCEx_PLLSAI1_Config+0x2c>
 80023e8:	6822      	ldr	r2, [r4, #0]
 80023ea:	f412 6f80 	tst.w	r2, #1024	; 0x400
 80023ee:	e7f0      	b.n	80023d2 <RCCEx_PLLSAI1_Config+0x96>
 80023f0:	6822      	ldr	r2, [r4, #0]
 80023f2:	0391      	lsls	r1, r2, #14
 80023f4:	d4ee      	bmi.n	80023d4 <RCCEx_PLLSAI1_Config+0x98>
 80023f6:	6822      	ldr	r2, [r4, #0]
 80023f8:	f412 2f80 	tst.w	r2, #262144	; 0x40000
 80023fc:	e7e9      	b.n	80023d2 <RCCEx_PLLSAI1_Config+0x96>
 80023fe:	f7ff f9b1 	bl	8001764 <HAL_GetTick>
 8002402:	1bc0      	subs	r0, r0, r7
 8002404:	2802      	cmp	r0, #2
 8002406:	d9b6      	bls.n	8002376 <RCCEx_PLLSAI1_Config+0x3a>
 8002408:	2003      	movs	r0, #3
 800240a:	bdf8      	pop	{r3, r4, r5, r6, r7, pc}
 800240c:	6922      	ldr	r2, [r4, #16]
 800240e:	68eb      	ldr	r3, [r5, #12]
 8002410:	ea40 63c3 	orr.w	r3, r0, r3, lsl #27
 8002414:	f022 4078 	bic.w	r0, r2, #4160749568	; 0xf8000000
 8002418:	f420 40fe 	bic.w	r0, r0, #32512	; 0x7f00
 800241c:	4303      	orrs	r3, r0
 800241e:	6123      	str	r3, [r4, #16]
 8002420:	e7be      	b.n	80023a0 <RCCEx_PLLSAI1_Config+0x64>
 8002422:	696b      	ldr	r3, [r5, #20]
 8002424:	6922      	ldr	r2, [r4, #16]
 8002426:	085b      	lsrs	r3, r3, #1
 8002428:	1e59      	subs	r1, r3, #1
 800242a:	f022 63c0 	bic.w	r3, r2, #100663296	; 0x6000000
 800242e:	f423 43fe 	bic.w	r3, r3, #32512	; 0x7f00
 8002432:	4303      	orrs	r3, r0
 8002434:	ea43 6341 	orr.w	r3, r3, r1, lsl #25
 8002438:	e7f1      	b.n	800241e <RCCEx_PLLSAI1_Config+0xe2>
 800243a:	f7ff f993 	bl	8001764 <HAL_GetTick>
 800243e:	1b80      	subs	r0, r0, r6
 8002440:	2802      	cmp	r0, #2
 8002442:	d9b4      	bls.n	80023ae <RCCEx_PLLSAI1_Config+0x72>
 8002444:	e7e0      	b.n	8002408 <RCCEx_PLLSAI1_Config+0xcc>
 8002446:	2001      	movs	r0, #1
 8002448:	e7df      	b.n	800240a <RCCEx_PLLSAI1_Config+0xce>
 800244a:	bf00      	nop
 800244c:	40021000 	.word	0x40021000

08002450 <HAL_RCCEx_PeriphCLKConfig>:
 8002450:	e92d 43f7 	stmdb	sp!, {r0, r1, r2, r4, r5, r6, r7, r8, r9, lr}
 8002454:	6805      	ldr	r5, [r0, #0]
 8002456:	f415 6500 	ands.w	r5, r5, #2048	; 0x800
 800245a:	4604      	mov	r4, r0
 800245c:	d009      	beq.n	8002472 <HAL_RCCEx_PeriphCLKConfig+0x22>
 800245e:	6c41      	ldr	r1, [r0, #68]	; 0x44
 8002460:	f5b1 0f00 	cmp.w	r1, #8388608	; 0x800000
 8002464:	d035      	beq.n	80024d2 <HAL_RCCEx_PeriphCLKConfig+0x82>
 8002466:	f5b1 0f40 	cmp.w	r1, #12582912	; 0xc00000
 800246a:	d037      	beq.n	80024dc <HAL_RCCEx_PeriphCLKConfig+0x8c>
 800246c:	2900      	cmp	r1, #0
 800246e:	d040      	beq.n	80024f2 <HAL_RCCEx_PeriphCLKConfig+0xa2>
 8002470:	2501      	movs	r5, #1
 8002472:	6823      	ldr	r3, [r4, #0]
 8002474:	0398      	lsls	r0, r3, #14
 8002476:	d551      	bpl.n	800251c <HAL_RCCEx_PeriphCLKConfig+0xcc>
 8002478:	4ea0      	ldr	r6, [pc, #640]	; (80026fc <HAL_RCCEx_PeriphCLKConfig+0x2ac>)
 800247a:	6db3      	ldr	r3, [r6, #88]	; 0x58
 800247c:	00d9      	lsls	r1, r3, #3
 800247e:	d43f      	bmi.n	8002500 <HAL_RCCEx_PeriphCLKConfig+0xb0>
 8002480:	6db3      	ldr	r3, [r6, #88]	; 0x58
 8002482:	f043 5380 	orr.w	r3, r3, #268435456	; 0x10000000
 8002486:	65b3      	str	r3, [r6, #88]	; 0x58
 8002488:	6db3      	ldr	r3, [r6, #88]	; 0x58
 800248a:	f003 5380 	and.w	r3, r3, #268435456	; 0x10000000
 800248e:	9301      	str	r3, [sp, #4]
 8002490:	9b01      	ldr	r3, [sp, #4]
 8002492:	2701      	movs	r7, #1
 8002494:	f8df 8268 	ldr.w	r8, [pc, #616]	; 8002700 <HAL_RCCEx_PeriphCLKConfig+0x2b0>
 8002498:	f8d8 3000 	ldr.w	r3, [r8]
 800249c:	f443 7380 	orr.w	r3, r3, #256	; 0x100
 80024a0:	f8c8 3000 	str.w	r3, [r8]
 80024a4:	f7ff f95e 	bl	8001764 <HAL_GetTick>
 80024a8:	4681      	mov	r9, r0
 80024aa:	f8d8 3000 	ldr.w	r3, [r8]
 80024ae:	05da      	lsls	r2, r3, #23
 80024b0:	d528      	bpl.n	8002504 <HAL_RCCEx_PeriphCLKConfig+0xb4>
 80024b2:	bb75      	cbnz	r5, 8002512 <HAL_RCCEx_PeriphCLKConfig+0xc2>
 80024b4:	f8d6 3090 	ldr.w	r3, [r6, #144]	; 0x90
 80024b8:	f413 7340 	ands.w	r3, r3, #768	; 0x300
 80024bc:	f040 80dd 	bne.w	800267a <HAL_RCCEx_PeriphCLKConfig+0x22a>
 80024c0:	f8d6 3090 	ldr.w	r3, [r6, #144]	; 0x90
 80024c4:	6da2      	ldr	r2, [r4, #88]	; 0x58
 80024c6:	f423 7340 	bic.w	r3, r3, #768	; 0x300
 80024ca:	4313      	orrs	r3, r2
 80024cc:	f8c6 3090 	str.w	r3, [r6, #144]	; 0x90
 80024d0:	e01f      	b.n	8002512 <HAL_RCCEx_PeriphCLKConfig+0xc2>
 80024d2:	4a8a      	ldr	r2, [pc, #552]	; (80026fc <HAL_RCCEx_PeriphCLKConfig+0x2ac>)
 80024d4:	68d3      	ldr	r3, [r2, #12]
 80024d6:	f443 3380 	orr.w	r3, r3, #65536	; 0x10000
 80024da:	60d3      	str	r3, [r2, #12]
 80024dc:	4a87      	ldr	r2, [pc, #540]	; (80026fc <HAL_RCCEx_PeriphCLKConfig+0x2ac>)
 80024de:	6c61      	ldr	r1, [r4, #68]	; 0x44
 80024e0:	f8d2 3088 	ldr.w	r3, [r2, #136]	; 0x88
 80024e4:	f423 0340 	bic.w	r3, r3, #12582912	; 0xc00000
 80024e8:	430b      	orrs	r3, r1
 80024ea:	f8c2 3088 	str.w	r3, [r2, #136]	; 0x88
 80024ee:	2500      	movs	r5, #0
 80024f0:	e7bf      	b.n	8002472 <HAL_RCCEx_PeriphCLKConfig+0x22>
 80024f2:	3004      	adds	r0, #4
 80024f4:	f7ff ff22 	bl	800233c <RCCEx_PLLSAI1_Config>
 80024f8:	4605      	mov	r5, r0
 80024fa:	2800      	cmp	r0, #0
 80024fc:	d1b9      	bne.n	8002472 <HAL_RCCEx_PeriphCLKConfig+0x22>
 80024fe:	e7ed      	b.n	80024dc <HAL_RCCEx_PeriphCLKConfig+0x8c>
 8002500:	2700      	movs	r7, #0
 8002502:	e7c7      	b.n	8002494 <HAL_RCCEx_PeriphCLKConfig+0x44>
 8002504:	f7ff f92e 	bl	8001764 <HAL_GetTick>
 8002508:	eba0 0009 	sub.w	r0, r0, r9
 800250c:	2802      	cmp	r0, #2
 800250e:	d9cc      	bls.n	80024aa <HAL_RCCEx_PeriphCLKConfig+0x5a>
 8002510:	2503      	movs	r5, #3
 8002512:	b11f      	cbz	r7, 800251c <HAL_RCCEx_PeriphCLKConfig+0xcc>
 8002514:	6db3      	ldr	r3, [r6, #88]	; 0x58
 8002516:	f023 5380 	bic.w	r3, r3, #268435456	; 0x10000000
 800251a:	65b3      	str	r3, [r6, #88]	; 0x58
 800251c:	6823      	ldr	r3, [r4, #0]
 800251e:	07d9      	lsls	r1, r3, #31
 8002520:	d508      	bpl.n	8002534 <HAL_RCCEx_PeriphCLKConfig+0xe4>
 8002522:	4976      	ldr	r1, [pc, #472]	; (80026fc <HAL_RCCEx_PeriphCLKConfig+0x2ac>)
 8002524:	6a20      	ldr	r0, [r4, #32]
 8002526:	f8d1 2088 	ldr.w	r2, [r1, #136]	; 0x88
 800252a:	f022 0203 	bic.w	r2, r2, #3
 800252e:	4302      	orrs	r2, r0
 8002530:	f8c1 2088 	str.w	r2, [r1, #136]	; 0x88
 8002534:	079a      	lsls	r2, r3, #30
 8002536:	d508      	bpl.n	800254a <HAL_RCCEx_PeriphCLKConfig+0xfa>
 8002538:	4970      	ldr	r1, [pc, #448]	; (80026fc <HAL_RCCEx_PeriphCLKConfig+0x2ac>)
 800253a:	6a60      	ldr	r0, [r4, #36]	; 0x24
 800253c:	f8d1 2088 	ldr.w	r2, [r1, #136]	; 0x88
 8002540:	f022 020c 	bic.w	r2, r2, #12
 8002544:	4302      	orrs	r2, r0
 8002546:	f8c1 2088 	str.w	r2, [r1, #136]	; 0x88
 800254a:	075f      	lsls	r7, r3, #29
 800254c:	d508      	bpl.n	8002560 <HAL_RCCEx_PeriphCLKConfig+0x110>
 800254e:	496b      	ldr	r1, [pc, #428]	; (80026fc <HAL_RCCEx_PeriphCLKConfig+0x2ac>)
 8002550:	6aa0      	ldr	r0, [r4, #40]	; 0x28
 8002552:	f8d1 2088 	ldr.w	r2, [r1, #136]	; 0x88
 8002556:	f022 0230 	bic.w	r2, r2, #48	; 0x30
 800255a:	4302      	orrs	r2, r0
 800255c:	f8c1 2088 	str.w	r2, [r1, #136]	; 0x88
 8002560:	069e      	lsls	r6, r3, #26
 8002562:	d508      	bpl.n	8002576 <HAL_RCCEx_PeriphCLKConfig+0x126>
 8002564:	4965      	ldr	r1, [pc, #404]	; (80026fc <HAL_RCCEx_PeriphCLKConfig+0x2ac>)
 8002566:	6ae0      	ldr	r0, [r4, #44]	; 0x2c
 8002568:	f8d1 2088 	ldr.w	r2, [r1, #136]	; 0x88
 800256c:	f422 6240 	bic.w	r2, r2, #3072	; 0xc00
 8002570:	4302      	orrs	r2, r0
 8002572:	f8c1 2088 	str.w	r2, [r1, #136]	; 0x88
 8002576:	0598      	lsls	r0, r3, #22
 8002578:	d508      	bpl.n	800258c <HAL_RCCEx_PeriphCLKConfig+0x13c>
 800257a:	4960      	ldr	r1, [pc, #384]	; (80026fc <HAL_RCCEx_PeriphCLKConfig+0x2ac>)
 800257c:	6be0      	ldr	r0, [r4, #60]	; 0x3c
 800257e:	f8d1 2088 	ldr.w	r2, [r1, #136]	; 0x88
 8002582:	f422 2240 	bic.w	r2, r2, #786432	; 0xc0000
 8002586:	4302      	orrs	r2, r0
 8002588:	f8c1 2088 	str.w	r2, [r1, #136]	; 0x88
 800258c:	0559      	lsls	r1, r3, #21
 800258e:	d508      	bpl.n	80025a2 <HAL_RCCEx_PeriphCLKConfig+0x152>
 8002590:	495a      	ldr	r1, [pc, #360]	; (80026fc <HAL_RCCEx_PeriphCLKConfig+0x2ac>)
 8002592:	6c20      	ldr	r0, [r4, #64]	; 0x40
 8002594:	f8d1 2088 	ldr.w	r2, [r1, #136]	; 0x88
 8002598:	f422 1240 	bic.w	r2, r2, #3145728	; 0x300000
 800259c:	4302      	orrs	r2, r0
 800259e:	f8c1 2088 	str.w	r2, [r1, #136]	; 0x88
 80025a2:	065a      	lsls	r2, r3, #25
 80025a4:	d508      	bpl.n	80025b8 <HAL_RCCEx_PeriphCLKConfig+0x168>
 80025a6:	4955      	ldr	r1, [pc, #340]	; (80026fc <HAL_RCCEx_PeriphCLKConfig+0x2ac>)
 80025a8:	6b20      	ldr	r0, [r4, #48]	; 0x30
 80025aa:	f8d1 2088 	ldr.w	r2, [r1, #136]	; 0x88
 80025ae:	f422 5240 	bic.w	r2, r2, #12288	; 0x3000
 80025b2:	4302      	orrs	r2, r0
 80025b4:	f8c1 2088 	str.w	r2, [r1, #136]	; 0x88
 80025b8:	061f      	lsls	r7, r3, #24
 80025ba:	d508      	bpl.n	80025ce <HAL_RCCEx_PeriphCLKConfig+0x17e>
 80025bc:	494f      	ldr	r1, [pc, #316]	; (80026fc <HAL_RCCEx_PeriphCLKConfig+0x2ac>)
 80025be:	6b60      	ldr	r0, [r4, #52]	; 0x34
 80025c0:	f8d1 2088 	ldr.w	r2, [r1, #136]	; 0x88
 80025c4:	f422 4240 	bic.w	r2, r2, #49152	; 0xc000
 80025c8:	4302      	orrs	r2, r0
 80025ca:	f8c1 2088 	str.w	r2, [r1, #136]	; 0x88
 80025ce:	05de      	lsls	r6, r3, #23
 80025d0:	d508      	bpl.n	80025e4 <HAL_RCCEx_PeriphCLKConfig+0x194>
 80025d2:	494a      	ldr	r1, [pc, #296]	; (80026fc <HAL_RCCEx_PeriphCLKConfig+0x2ac>)
 80025d4:	6ba0      	ldr	r0, [r4, #56]	; 0x38
 80025d6:	f8d1 2088 	ldr.w	r2, [r1, #136]	; 0x88
 80025da:	f422 3240 	bic.w	r2, r2, #196608	; 0x30000
 80025de:	4302      	orrs	r2, r0
 80025e0:	f8c1 2088 	str.w	r2, [r1, #136]	; 0x88
 80025e4:	0318      	lsls	r0, r3, #12
 80025e6:	d50f      	bpl.n	8002608 <HAL_RCCEx_PeriphCLKConfig+0x1b8>
 80025e8:	4a44      	ldr	r2, [pc, #272]	; (80026fc <HAL_RCCEx_PeriphCLKConfig+0x2ac>)
 80025ea:	6ca1      	ldr	r1, [r4, #72]	; 0x48
 80025ec:	f8d2 3088 	ldr.w	r3, [r2, #136]	; 0x88
 80025f0:	f023 6340 	bic.w	r3, r3, #201326592	; 0xc000000
 80025f4:	430b      	orrs	r3, r1
 80025f6:	f1b1 6f00 	cmp.w	r1, #134217728	; 0x8000000
 80025fa:	f8c2 3088 	str.w	r3, [r2, #136]	; 0x88
 80025fe:	d166      	bne.n	80026ce <HAL_RCCEx_PeriphCLKConfig+0x27e>
 8002600:	68d3      	ldr	r3, [r2, #12]
 8002602:	f443 1380 	orr.w	r3, r3, #1048576	; 0x100000
 8002606:	60d3      	str	r3, [r2, #12]
 8002608:	6823      	ldr	r3, [r4, #0]
 800260a:	0359      	lsls	r1, r3, #13
 800260c:	d50f      	bpl.n	800262e <HAL_RCCEx_PeriphCLKConfig+0x1de>
 800260e:	4a3b      	ldr	r2, [pc, #236]	; (80026fc <HAL_RCCEx_PeriphCLKConfig+0x2ac>)
 8002610:	6ce1      	ldr	r1, [r4, #76]	; 0x4c
 8002612:	f8d2 3088 	ldr.w	r3, [r2, #136]	; 0x88
 8002616:	f023 6340 	bic.w	r3, r3, #201326592	; 0xc000000
 800261a:	430b      	orrs	r3, r1
 800261c:	f1b1 6f00 	cmp.w	r1, #134217728	; 0x8000000
 8002620:	f8c2 3088 	str.w	r3, [r2, #136]	; 0x88
 8002624:	d15e      	bne.n	80026e4 <HAL_RCCEx_PeriphCLKConfig+0x294>
 8002626:	68d3      	ldr	r3, [r2, #12]
 8002628:	f443 1380 	orr.w	r3, r3, #1048576	; 0x100000
 800262c:	60d3      	str	r3, [r2, #12]
 800262e:	6823      	ldr	r3, [r4, #0]
 8002630:	045a      	lsls	r2, r3, #17
 8002632:	d512      	bpl.n	800265a <HAL_RCCEx_PeriphCLKConfig+0x20a>
 8002634:	4931      	ldr	r1, [pc, #196]	; (80026fc <HAL_RCCEx_PeriphCLKConfig+0x2ac>)
 8002636:	6d22      	ldr	r2, [r4, #80]	; 0x50
 8002638:	f8d1 3088 	ldr.w	r3, [r1, #136]	; 0x88
 800263c:	f023 5340 	bic.w	r3, r3, #805306368	; 0x30000000
 8002640:	4313      	orrs	r3, r2
 8002642:	f1b2 5f80 	cmp.w	r2, #268435456	; 0x10000000
 8002646:	f8c1 3088 	str.w	r3, [r1, #136]	; 0x88
 800264a:	d106      	bne.n	800265a <HAL_RCCEx_PeriphCLKConfig+0x20a>
 800264c:	2102      	movs	r1, #2
 800264e:	1d20      	adds	r0, r4, #4
 8002650:	f7ff fe74 	bl	800233c <RCCEx_PLLSAI1_Config>
 8002654:	2800      	cmp	r0, #0
 8002656:	bf18      	it	ne
 8002658:	4605      	movne	r5, r0
 800265a:	6823      	ldr	r3, [r4, #0]
 800265c:	041b      	lsls	r3, r3, #16
 800265e:	d508      	bpl.n	8002672 <HAL_RCCEx_PeriphCLKConfig+0x222>
 8002660:	4a26      	ldr	r2, [pc, #152]	; (80026fc <HAL_RCCEx_PeriphCLKConfig+0x2ac>)
 8002662:	6d61      	ldr	r1, [r4, #84]	; 0x54
 8002664:	f8d2 3088 	ldr.w	r3, [r2, #136]	; 0x88
 8002668:	f023 4380 	bic.w	r3, r3, #1073741824	; 0x40000000
 800266c:	430b      	orrs	r3, r1
 800266e:	f8c2 3088 	str.w	r3, [r2, #136]	; 0x88
 8002672:	4628      	mov	r0, r5
 8002674:	b003      	add	sp, #12
 8002676:	e8bd 83f0 	ldmia.w	sp!, {r4, r5, r6, r7, r8, r9, pc}
 800267a:	6da2      	ldr	r2, [r4, #88]	; 0x58
 800267c:	4293      	cmp	r3, r2
 800267e:	f43f af1f 	beq.w	80024c0 <HAL_RCCEx_PeriphCLKConfig+0x70>
 8002682:	f8d6 2090 	ldr.w	r2, [r6, #144]	; 0x90
 8002686:	f8d6 3090 	ldr.w	r3, [r6, #144]	; 0x90
 800268a:	f443 3380 	orr.w	r3, r3, #65536	; 0x10000
 800268e:	f8c6 3090 	str.w	r3, [r6, #144]	; 0x90
 8002692:	f8d6 3090 	ldr.w	r3, [r6, #144]	; 0x90
 8002696:	f423 3380 	bic.w	r3, r3, #65536	; 0x10000
 800269a:	f8c6 3090 	str.w	r3, [r6, #144]	; 0x90
 800269e:	f422 7140 	bic.w	r1, r2, #768	; 0x300
 80026a2:	07d3      	lsls	r3, r2, #31
 80026a4:	f8c6 1090 	str.w	r1, [r6, #144]	; 0x90
 80026a8:	f57f af0a 	bpl.w	80024c0 <HAL_RCCEx_PeriphCLKConfig+0x70>
 80026ac:	f7ff f85a 	bl	8001764 <HAL_GetTick>
 80026b0:	f241 3988 	movw	r9, #5000	; 0x1388
 80026b4:	4680      	mov	r8, r0
 80026b6:	f8d6 3090 	ldr.w	r3, [r6, #144]	; 0x90
 80026ba:	0798      	lsls	r0, r3, #30
 80026bc:	f53f af00 	bmi.w	80024c0 <HAL_RCCEx_PeriphCLKConfig+0x70>
 80026c0:	f7ff f850 	bl	8001764 <HAL_GetTick>
 80026c4:	eba0 0008 	sub.w	r0, r0, r8
 80026c8:	4548      	cmp	r0, r9
 80026ca:	d9f4      	bls.n	80026b6 <HAL_RCCEx_PeriphCLKConfig+0x266>
 80026cc:	e720      	b.n	8002510 <HAL_RCCEx_PeriphCLKConfig+0xc0>
 80026ce:	f1b1 6f80 	cmp.w	r1, #67108864	; 0x4000000
 80026d2:	d199      	bne.n	8002608 <HAL_RCCEx_PeriphCLKConfig+0x1b8>
 80026d4:	2101      	movs	r1, #1
 80026d6:	1d20      	adds	r0, r4, #4
 80026d8:	f7ff fe30 	bl	800233c <RCCEx_PLLSAI1_Config>
 80026dc:	2800      	cmp	r0, #0
 80026de:	bf18      	it	ne
 80026e0:	4605      	movne	r5, r0
 80026e2:	e791      	b.n	8002608 <HAL_RCCEx_PeriphCLKConfig+0x1b8>
 80026e4:	f1b1 6f80 	cmp.w	r1, #67108864	; 0x4000000
 80026e8:	d1a1      	bne.n	800262e <HAL_RCCEx_PeriphCLKConfig+0x1de>
 80026ea:	2101      	movs	r1, #1
 80026ec:	1d20      	adds	r0, r4, #4
 80026ee:	f7ff fe25 	bl	800233c <RCCEx_PLLSAI1_Config>
 80026f2:	2800      	cmp	r0, #0
 80026f4:	bf18      	it	ne
 80026f6:	4605      	movne	r5, r0
 80026f8:	e799      	b.n	800262e <HAL_RCCEx_PeriphCLKConfig+0x1de>
 80026fa:	bf00      	nop
 80026fc:	40021000 	.word	0x40021000
 8002700:	40007000 	.word	0x40007000

08002704 <SPI_WaitFifoStateUntilTimeout.constprop.0>:
 8002704:	e92d 43f7 	stmdb	sp!, {r0, r1, r2, r4, r5, r6, r7, r8, r9, lr}
 8002708:	4698      	mov	r8, r3
 800270a:	2300      	movs	r3, #0
 800270c:	4617      	mov	r7, r2
 800270e:	f88d 3003 	strb.w	r3, [sp, #3]
 8002712:	4605      	mov	r5, r0
 8002714:	460e      	mov	r6, r1
 8002716:	f7ff f825 	bl	8001764 <HAL_GetTick>
 800271a:	44b8      	add	r8, r7
 800271c:	eba8 0400 	sub.w	r4, r8, r0
 8002720:	f7ff f820 	bl	8001764 <HAL_GetTick>
 8002724:	4b29      	ldr	r3, [pc, #164]	; (80027cc <SPI_WaitFifoStateUntilTimeout.constprop.0+0xc8>)
 8002726:	f8d5 9000 	ldr.w	r9, [r5]
 800272a:	681b      	ldr	r3, [r3, #0]
 800272c:	2223      	movs	r2, #35	; 0x23
 800272e:	4353      	muls	r3, r2
 8002730:	0d1b      	lsrs	r3, r3, #20
 8002732:	4680      	mov	r8, r0
 8002734:	4363      	muls	r3, r4
 8002736:	682a      	ldr	r2, [r5, #0]
 8002738:	9301      	str	r3, [sp, #4]
 800273a:	6893      	ldr	r3, [r2, #8]
 800273c:	4033      	ands	r3, r6
 800273e:	d101      	bne.n	8002744 <SPI_WaitFifoStateUntilTimeout.constprop.0+0x40>
 8002740:	4618      	mov	r0, r3
 8002742:	e038      	b.n	80027b6 <SPI_WaitFifoStateUntilTimeout.constprop.0+0xb2>
 8002744:	f5b6 6fc0 	cmp.w	r6, #1536	; 0x600
 8002748:	bf01      	itttt	eq
 800274a:	f899 300c 	ldrbeq.w	r3, [r9, #12]
 800274e:	b2db      	uxtbeq	r3, r3
 8002750:	f88d 3003 	strbeq.w	r3, [sp, #3]
 8002754:	f89d 3003 	ldrbeq.w	r3, [sp, #3]
 8002758:	1c7b      	adds	r3, r7, #1
 800275a:	d0ee      	beq.n	800273a <SPI_WaitFifoStateUntilTimeout.constprop.0+0x36>
 800275c:	f7ff f802 	bl	8001764 <HAL_GetTick>
 8002760:	eba0 0008 	sub.w	r0, r0, r8
 8002764:	42a0      	cmp	r0, r4
 8002766:	d329      	bcc.n	80027bc <SPI_WaitFifoStateUntilTimeout.constprop.0+0xb8>
 8002768:	682b      	ldr	r3, [r5, #0]
 800276a:	685a      	ldr	r2, [r3, #4]
 800276c:	f022 02e0 	bic.w	r2, r2, #224	; 0xe0
 8002770:	605a      	str	r2, [r3, #4]
 8002772:	686a      	ldr	r2, [r5, #4]
 8002774:	f5b2 7f82 	cmp.w	r2, #260	; 0x104
 8002778:	d10a      	bne.n	8002790 <SPI_WaitFifoStateUntilTimeout.constprop.0+0x8c>
 800277a:	68aa      	ldr	r2, [r5, #8]
 800277c:	f5b2 4f00 	cmp.w	r2, #32768	; 0x8000
 8002780:	d002      	beq.n	8002788 <SPI_WaitFifoStateUntilTimeout.constprop.0+0x84>
 8002782:	f5b2 6f80 	cmp.w	r2, #1024	; 0x400
 8002786:	d103      	bne.n	8002790 <SPI_WaitFifoStateUntilTimeout.constprop.0+0x8c>
 8002788:	681a      	ldr	r2, [r3, #0]
 800278a:	f022 0240 	bic.w	r2, r2, #64	; 0x40
 800278e:	601a      	str	r2, [r3, #0]
 8002790:	6aaa      	ldr	r2, [r5, #40]	; 0x28
 8002792:	f5b2 5f00 	cmp.w	r2, #8192	; 0x2000
 8002796:	d107      	bne.n	80027a8 <SPI_WaitFifoStateUntilTimeout.constprop.0+0xa4>
 8002798:	681a      	ldr	r2, [r3, #0]
 800279a:	f422 5200 	bic.w	r2, r2, #8192	; 0x2000
 800279e:	601a      	str	r2, [r3, #0]
 80027a0:	681a      	ldr	r2, [r3, #0]
 80027a2:	f442 5200 	orr.w	r2, r2, #8192	; 0x2000
 80027a6:	601a      	str	r2, [r3, #0]
 80027a8:	2301      	movs	r3, #1
 80027aa:	f885 305d 	strb.w	r3, [r5, #93]	; 0x5d
 80027ae:	2300      	movs	r3, #0
 80027b0:	f885 305c 	strb.w	r3, [r5, #92]	; 0x5c
 80027b4:	2003      	movs	r0, #3
 80027b6:	b003      	add	sp, #12
 80027b8:	e8bd 83f0 	ldmia.w	sp!, {r4, r5, r6, r7, r8, r9, pc}
 80027bc:	9b01      	ldr	r3, [sp, #4]
 80027be:	2b00      	cmp	r3, #0
 80027c0:	9b01      	ldr	r3, [sp, #4]
 80027c2:	bf08      	it	eq
 80027c4:	2400      	moveq	r4, #0
 80027c6:	3b01      	subs	r3, #1
 80027c8:	e7b5      	b.n	8002736 <SPI_WaitFifoStateUntilTimeout.constprop.0+0x32>
 80027ca:	bf00      	nop
 80027cc:	20000008 	.word	0x20000008

080027d0 <SPI_WaitFlagStateUntilTimeout.constprop.0>:
 80027d0:	b5f7      	push	{r0, r1, r2, r4, r5, r6, r7, lr}
 80027d2:	460e      	mov	r6, r1
 80027d4:	4617      	mov	r7, r2
 80027d6:	4605      	mov	r5, r0
 80027d8:	f7fe ffc4 	bl	8001764 <HAL_GetTick>
 80027dc:	4437      	add	r7, r6
 80027de:	1a3c      	subs	r4, r7, r0
 80027e0:	f7fe ffc0 	bl	8001764 <HAL_GetTick>
 80027e4:	4b22      	ldr	r3, [pc, #136]	; (8002870 <SPI_WaitFlagStateUntilTimeout.constprop.0+0xa0>)
 80027e6:	681b      	ldr	r3, [r3, #0]
 80027e8:	f3c3 33cb 	ubfx	r3, r3, #15, #12
 80027ec:	4607      	mov	r7, r0
 80027ee:	4363      	muls	r3, r4
 80027f0:	682a      	ldr	r2, [r5, #0]
 80027f2:	9301      	str	r3, [sp, #4]
 80027f4:	6893      	ldr	r3, [r2, #8]
 80027f6:	f013 0380 	ands.w	r3, r3, #128	; 0x80
 80027fa:	d101      	bne.n	8002800 <SPI_WaitFlagStateUntilTimeout.constprop.0+0x30>
 80027fc:	4618      	mov	r0, r3
 80027fe:	e02d      	b.n	800285c <SPI_WaitFlagStateUntilTimeout.constprop.0+0x8c>
 8002800:	1c73      	adds	r3, r6, #1
 8002802:	d0f7      	beq.n	80027f4 <SPI_WaitFlagStateUntilTimeout.constprop.0+0x24>
 8002804:	f7fe ffae 	bl	8001764 <HAL_GetTick>
 8002808:	1bc0      	subs	r0, r0, r7
 800280a:	42a0      	cmp	r0, r4
 800280c:	d328      	bcc.n	8002860 <SPI_WaitFlagStateUntilTimeout.constprop.0+0x90>
 800280e:	682b      	ldr	r3, [r5, #0]
 8002810:	685a      	ldr	r2, [r3, #4]
 8002812:	f022 02e0 	bic.w	r2, r2, #224	; 0xe0
 8002816:	605a      	str	r2, [r3, #4]
 8002818:	686a      	ldr	r2, [r5, #4]
 800281a:	f5b2 7f82 	cmp.w	r2, #260	; 0x104
 800281e:	d10a      	bne.n	8002836 <SPI_WaitFlagStateUntilTimeout.constprop.0+0x66>
 8002820:	68aa      	ldr	r2, [r5, #8]
 8002822:	f5b2 4f00 	cmp.w	r2, #32768	; 0x8000
 8002826:	d002      	beq.n	800282e <SPI_WaitFlagStateUntilTimeout.constprop.0+0x5e>
 8002828:	f5b2 6f80 	cmp.w	r2, #1024	; 0x400
 800282c:	d103      	bne.n	8002836 <SPI_WaitFlagStateUntilTimeout.constprop.0+0x66>
 800282e:	681a      	ldr	r2, [r3, #0]
 8002830:	f022 0240 	bic.w	r2, r2, #64	; 0x40
 8002834:	601a      	str	r2, [r3, #0]
 8002836:	6aaa      	ldr	r2, [r5, #40]	; 0x28
 8002838:	f5b2 5f00 	cmp.w	r2, #8192	; 0x2000
 800283c:	d107      	bne.n	800284e <SPI_WaitFlagStateUntilTimeout.constprop.0+0x7e>
 800283e:	681a      	ldr	r2, [r3, #0]
 8002840:	f422 5200 	bic.w	r2, r2, #8192	; 0x2000
 8002844:	601a      	str	r2, [r3, #0]
 8002846:	681a      	ldr	r2, [r3, #0]
 8002848:	f442 5200 	orr.w	r2, r2, #8192	; 0x2000
 800284c:	601a      	str	r2, [r3, #0]
 800284e:	2301      	movs	r3, #1
 8002850:	f885 305d 	strb.w	r3, [r5, #93]	; 0x5d
 8002854:	2300      	movs	r3, #0
 8002856:	f885 305c 	strb.w	r3, [r5, #92]	; 0x5c
 800285a:	2003      	movs	r0, #3
 800285c:	b003      	add	sp, #12
 800285e:	bdf0      	pop	{r4, r5, r6, r7, pc}
 8002860:	9b01      	ldr	r3, [sp, #4]
 8002862:	2b00      	cmp	r3, #0
 8002864:	9b01      	ldr	r3, [sp, #4]
 8002866:	bf08      	it	eq
 8002868:	2400      	moveq	r4, #0
 800286a:	3b01      	subs	r3, #1
 800286c:	e7c0      	b.n	80027f0 <SPI_WaitFlagStateUntilTimeout.constprop.0+0x20>
 800286e:	bf00      	nop
 8002870:	20000008 	.word	0x20000008

08002874 <SPI_EndRxTxTransaction>:
 8002874:	b537      	push	{r0, r1, r2, r4, r5, lr}
 8002876:	4613      	mov	r3, r2
 8002878:	9201      	str	r2, [sp, #4]
 800287a:	460d      	mov	r5, r1
 800287c:	460a      	mov	r2, r1
 800287e:	f44f 51c0 	mov.w	r1, #6144	; 0x1800
 8002882:	4604      	mov	r4, r0
 8002884:	f7ff ff3e 	bl	8002704 <SPI_WaitFifoStateUntilTimeout.constprop.0>
 8002888:	9b01      	ldr	r3, [sp, #4]
 800288a:	b128      	cbz	r0, 8002898 <SPI_EndRxTxTransaction+0x24>
 800288c:	6e23      	ldr	r3, [r4, #96]	; 0x60
 800288e:	f043 0320 	orr.w	r3, r3, #32
 8002892:	6623      	str	r3, [r4, #96]	; 0x60
 8002894:	2003      	movs	r0, #3
 8002896:	e010      	b.n	80028ba <SPI_EndRxTxTransaction+0x46>
 8002898:	461a      	mov	r2, r3
 800289a:	4629      	mov	r1, r5
 800289c:	4620      	mov	r0, r4
 800289e:	9301      	str	r3, [sp, #4]
 80028a0:	f7ff ff96 	bl	80027d0 <SPI_WaitFlagStateUntilTimeout.constprop.0>
 80028a4:	9b01      	ldr	r3, [sp, #4]
 80028a6:	2800      	cmp	r0, #0
 80028a8:	d1f0      	bne.n	800288c <SPI_EndRxTxTransaction+0x18>
 80028aa:	462a      	mov	r2, r5
 80028ac:	f44f 61c0 	mov.w	r1, #1536	; 0x600
 80028b0:	4620      	mov	r0, r4
 80028b2:	f7ff ff27 	bl	8002704 <SPI_WaitFifoStateUntilTimeout.constprop.0>
 80028b6:	2800      	cmp	r0, #0
 80028b8:	d1e8      	bne.n	800288c <SPI_EndRxTxTransaction+0x18>
 80028ba:	b003      	add	sp, #12
 80028bc:	bd30      	pop	{r4, r5, pc}

080028be <HAL_SPI_Init>:
 80028be:	b570      	push	{r4, r5, r6, lr}
 80028c0:	4604      	mov	r4, r0
 80028c2:	2800      	cmp	r0, #0
 80028c4:	d05f      	beq.n	8002986 <HAL_SPI_Init+0xc8>
 80028c6:	6a43      	ldr	r3, [r0, #36]	; 0x24
 80028c8:	2b00      	cmp	r3, #0
 80028ca:	d158      	bne.n	800297e <HAL_SPI_Init+0xc0>
 80028cc:	6842      	ldr	r2, [r0, #4]
 80028ce:	f5b2 7f82 	cmp.w	r2, #260	; 0x104
 80028d2:	d000      	beq.n	80028d6 <HAL_SPI_Init+0x18>
 80028d4:	61c3      	str	r3, [r0, #28]
 80028d6:	2300      	movs	r3, #0
 80028d8:	62a3      	str	r3, [r4, #40]	; 0x28
 80028da:	f894 305d 	ldrb.w	r3, [r4, #93]	; 0x5d
 80028de:	f003 02ff 	and.w	r2, r3, #255	; 0xff
 80028e2:	b923      	cbnz	r3, 80028ee <HAL_SPI_Init+0x30>
 80028e4:	f884 205c 	strb.w	r2, [r4, #92]	; 0x5c
 80028e8:	4620      	mov	r0, r4
 80028ea:	f7fe fd6b 	bl	80013c4 <HAL_SPI_MspInit>
 80028ee:	6825      	ldr	r5, [r4, #0]
 80028f0:	68e1      	ldr	r1, [r4, #12]
 80028f2:	2302      	movs	r3, #2
 80028f4:	f884 305d 	strb.w	r3, [r4, #93]	; 0x5d
 80028f8:	682b      	ldr	r3, [r5, #0]
 80028fa:	f5b1 6fe0 	cmp.w	r1, #1792	; 0x700
 80028fe:	f023 0340 	bic.w	r3, r3, #64	; 0x40
 8002902:	602b      	str	r3, [r5, #0]
 8002904:	f04f 0300 	mov.w	r3, #0
 8002908:	d83f      	bhi.n	800298a <HAL_SPI_Init+0xcc>
 800290a:	f44f 5080 	mov.w	r0, #4096	; 0x1000
 800290e:	d000      	beq.n	8002912 <HAL_SPI_Init+0x54>
 8002910:	62a3      	str	r3, [r4, #40]	; 0x28
 8002912:	6863      	ldr	r3, [r4, #4]
 8002914:	68a6      	ldr	r6, [r4, #8]
 8002916:	69a2      	ldr	r2, [r4, #24]
 8002918:	f406 4604 	and.w	r6, r6, #33792	; 0x8400
 800291c:	f403 7382 	and.w	r3, r3, #260	; 0x104
 8002920:	4333      	orrs	r3, r6
 8002922:	6926      	ldr	r6, [r4, #16]
 8002924:	f006 0602 	and.w	r6, r6, #2
 8002928:	4333      	orrs	r3, r6
 800292a:	6966      	ldr	r6, [r4, #20]
 800292c:	f006 0601 	and.w	r6, r6, #1
 8002930:	4333      	orrs	r3, r6
 8002932:	f402 7600 	and.w	r6, r2, #512	; 0x200
 8002936:	4333      	orrs	r3, r6
 8002938:	69e6      	ldr	r6, [r4, #28]
 800293a:	f006 0638 	and.w	r6, r6, #56	; 0x38
 800293e:	4333      	orrs	r3, r6
 8002940:	6a26      	ldr	r6, [r4, #32]
 8002942:	f006 0680 	and.w	r6, r6, #128	; 0x80
 8002946:	4333      	orrs	r3, r6
 8002948:	6aa6      	ldr	r6, [r4, #40]	; 0x28
 800294a:	f406 5600 	and.w	r6, r6, #8192	; 0x2000
 800294e:	4333      	orrs	r3, r6
 8002950:	602b      	str	r3, [r5, #0]
 8002952:	6b66      	ldr	r6, [r4, #52]	; 0x34
 8002954:	6a63      	ldr	r3, [r4, #36]	; 0x24
 8002956:	f006 0608 	and.w	r6, r6, #8
 800295a:	f003 0310 	and.w	r3, r3, #16
 800295e:	4333      	orrs	r3, r6
 8002960:	f401 6170 	and.w	r1, r1, #3840	; 0xf00
 8002964:	0c12      	lsrs	r2, r2, #16
 8002966:	4319      	orrs	r1, r3
 8002968:	f002 0204 	and.w	r2, r2, #4
 800296c:	430a      	orrs	r2, r1
 800296e:	4310      	orrs	r0, r2
 8002970:	6068      	str	r0, [r5, #4]
 8002972:	2301      	movs	r3, #1
 8002974:	2000      	movs	r0, #0
 8002976:	6620      	str	r0, [r4, #96]	; 0x60
 8002978:	f884 305d 	strb.w	r3, [r4, #93]	; 0x5d
 800297c:	bd70      	pop	{r4, r5, r6, pc}
 800297e:	2300      	movs	r3, #0
 8002980:	e9c0 3304 	strd	r3, r3, [r0, #16]
 8002984:	e7a7      	b.n	80028d6 <HAL_SPI_Init+0x18>
 8002986:	2001      	movs	r0, #1
 8002988:	e7f8      	b.n	800297c <HAL_SPI_Init+0xbe>
 800298a:	4618      	mov	r0, r3
 800298c:	f5b1 6f70 	cmp.w	r1, #3840	; 0xf00
 8002990:	e7bd      	b.n	800290e <HAL_SPI_Init+0x50>

08002992 <HAL_SPI_Transmit>:
 8002992:	e92d 43f7 	stmdb	sp!, {r0, r1, r2, r4, r5, r6, r7, r8, r9, lr}
 8002996:	461f      	mov	r7, r3
 8002998:	f890 305c 	ldrb.w	r3, [r0, #92]	; 0x5c
 800299c:	2b01      	cmp	r3, #1
 800299e:	4604      	mov	r4, r0
 80029a0:	460d      	mov	r5, r1
 80029a2:	4690      	mov	r8, r2
 80029a4:	f000 80bc 	beq.w	8002b20 <HAL_SPI_Transmit+0x18e>
 80029a8:	2301      	movs	r3, #1
 80029aa:	f880 305c 	strb.w	r3, [r0, #92]	; 0x5c
 80029ae:	f7fe fed9 	bl	8001764 <HAL_GetTick>
 80029b2:	f894 305d 	ldrb.w	r3, [r4, #93]	; 0x5d
 80029b6:	2b01      	cmp	r3, #1
 80029b8:	4681      	mov	r9, r0
 80029ba:	b2d8      	uxtb	r0, r3
 80029bc:	f040 80ae 	bne.w	8002b1c <HAL_SPI_Transmit+0x18a>
 80029c0:	2d00      	cmp	r5, #0
 80029c2:	d063      	beq.n	8002a8c <HAL_SPI_Transmit+0xfa>
 80029c4:	f1b8 0f00 	cmp.w	r8, #0
 80029c8:	d060      	beq.n	8002a8c <HAL_SPI_Transmit+0xfa>
 80029ca:	2303      	movs	r3, #3
 80029cc:	f884 305d 	strb.w	r3, [r4, #93]	; 0x5d
 80029d0:	2300      	movs	r3, #0
 80029d2:	6623      	str	r3, [r4, #96]	; 0x60
 80029d4:	e9c4 3313 	strd	r3, r3, [r4, #76]	; 0x4c
 80029d8:	f8a4 803e 	strh.w	r8, [r4, #62]	; 0x3e
 80029dc:	6423      	str	r3, [r4, #64]	; 0x40
 80029de:	f8a4 3044 	strh.w	r3, [r4, #68]	; 0x44
 80029e2:	f8a4 3046 	strh.w	r3, [r4, #70]	; 0x46
 80029e6:	68a3      	ldr	r3, [r4, #8]
 80029e8:	6826      	ldr	r6, [r4, #0]
 80029ea:	63a5      	str	r5, [r4, #56]	; 0x38
 80029ec:	f5b3 4f00 	cmp.w	r3, #32768	; 0x8000
 80029f0:	f8a4 803c 	strh.w	r8, [r4, #60]	; 0x3c
 80029f4:	d107      	bne.n	8002a06 <HAL_SPI_Transmit+0x74>
 80029f6:	6833      	ldr	r3, [r6, #0]
 80029f8:	f023 0340 	bic.w	r3, r3, #64	; 0x40
 80029fc:	6033      	str	r3, [r6, #0]
 80029fe:	6833      	ldr	r3, [r6, #0]
 8002a00:	f443 4380 	orr.w	r3, r3, #16384	; 0x4000
 8002a04:	6033      	str	r3, [r6, #0]
 8002a06:	6833      	ldr	r3, [r6, #0]
 8002a08:	68e2      	ldr	r2, [r4, #12]
 8002a0a:	065b      	lsls	r3, r3, #25
 8002a0c:	bf5e      	ittt	pl
 8002a0e:	6833      	ldrpl	r3, [r6, #0]
 8002a10:	f043 0340 	orrpl.w	r3, r3, #64	; 0x40
 8002a14:	6033      	strpl	r3, [r6, #0]
 8002a16:	f5b2 6fe0 	cmp.w	r2, #1792	; 0x700
 8002a1a:	6863      	ldr	r3, [r4, #4]
 8002a1c:	d942      	bls.n	8002aa4 <HAL_SPI_Transmit+0x112>
 8002a1e:	b113      	cbz	r3, 8002a26 <HAL_SPI_Transmit+0x94>
 8002a20:	f1b8 0f01 	cmp.w	r8, #1
 8002a24:	d107      	bne.n	8002a36 <HAL_SPI_Transmit+0xa4>
 8002a26:	f835 3b02 	ldrh.w	r3, [r5], #2
 8002a2a:	60f3      	str	r3, [r6, #12]
 8002a2c:	63a5      	str	r5, [r4, #56]	; 0x38
 8002a2e:	8fe3      	ldrh	r3, [r4, #62]	; 0x3e
 8002a30:	3b01      	subs	r3, #1
 8002a32:	b29b      	uxth	r3, r3
 8002a34:	87e3      	strh	r3, [r4, #62]	; 0x3e
 8002a36:	8fe3      	ldrh	r3, [r4, #62]	; 0x3e
 8002a38:	b29b      	uxth	r3, r3
 8002a3a:	b9a3      	cbnz	r3, 8002a66 <HAL_SPI_Transmit+0xd4>
 8002a3c:	464a      	mov	r2, r9
 8002a3e:	4639      	mov	r1, r7
 8002a40:	4620      	mov	r0, r4
 8002a42:	f7ff ff17 	bl	8002874 <SPI_EndRxTxTransaction>
 8002a46:	2800      	cmp	r0, #0
 8002a48:	d165      	bne.n	8002b16 <HAL_SPI_Transmit+0x184>
 8002a4a:	68a3      	ldr	r3, [r4, #8]
 8002a4c:	b933      	cbnz	r3, 8002a5c <HAL_SPI_Transmit+0xca>
 8002a4e:	9301      	str	r3, [sp, #4]
 8002a50:	6823      	ldr	r3, [r4, #0]
 8002a52:	68da      	ldr	r2, [r3, #12]
 8002a54:	9201      	str	r2, [sp, #4]
 8002a56:	689b      	ldr	r3, [r3, #8]
 8002a58:	9301      	str	r3, [sp, #4]
 8002a5a:	9b01      	ldr	r3, [sp, #4]
 8002a5c:	6e20      	ldr	r0, [r4, #96]	; 0x60
 8002a5e:	3800      	subs	r0, #0
 8002a60:	bf18      	it	ne
 8002a62:	2001      	movne	r0, #1
 8002a64:	e012      	b.n	8002a8c <HAL_SPI_Transmit+0xfa>
 8002a66:	6822      	ldr	r2, [r4, #0]
 8002a68:	6893      	ldr	r3, [r2, #8]
 8002a6a:	079d      	lsls	r5, r3, #30
 8002a6c:	d505      	bpl.n	8002a7a <HAL_SPI_Transmit+0xe8>
 8002a6e:	6ba3      	ldr	r3, [r4, #56]	; 0x38
 8002a70:	f833 1b02 	ldrh.w	r1, [r3], #2
 8002a74:	60d1      	str	r1, [r2, #12]
 8002a76:	63a3      	str	r3, [r4, #56]	; 0x38
 8002a78:	e7d9      	b.n	8002a2e <HAL_SPI_Transmit+0x9c>
 8002a7a:	f7fe fe73 	bl	8001764 <HAL_GetTick>
 8002a7e:	eba0 0009 	sub.w	r0, r0, r9
 8002a82:	42b8      	cmp	r0, r7
 8002a84:	d30b      	bcc.n	8002a9e <HAL_SPI_Transmit+0x10c>
 8002a86:	1c78      	adds	r0, r7, #1
 8002a88:	d0d5      	beq.n	8002a36 <HAL_SPI_Transmit+0xa4>
 8002a8a:	2003      	movs	r0, #3
 8002a8c:	2301      	movs	r3, #1
 8002a8e:	f884 305d 	strb.w	r3, [r4, #93]	; 0x5d
 8002a92:	2300      	movs	r3, #0
 8002a94:	f884 305c 	strb.w	r3, [r4, #92]	; 0x5c
 8002a98:	b003      	add	sp, #12
 8002a9a:	e8bd 83f0 	ldmia.w	sp!, {r4, r5, r6, r7, r8, r9, pc}
 8002a9e:	2f00      	cmp	r7, #0
 8002aa0:	d1c9      	bne.n	8002a36 <HAL_SPI_Transmit+0xa4>
 8002aa2:	e7f2      	b.n	8002a8a <HAL_SPI_Transmit+0xf8>
 8002aa4:	b113      	cbz	r3, 8002aac <HAL_SPI_Transmit+0x11a>
 8002aa6:	f1b8 0f01 	cmp.w	r8, #1
 8002aaa:	d113      	bne.n	8002ad4 <HAL_SPI_Transmit+0x142>
 8002aac:	8fe3      	ldrh	r3, [r4, #62]	; 0x3e
 8002aae:	b29b      	uxth	r3, r3
 8002ab0:	2b01      	cmp	r3, #1
 8002ab2:	d906      	bls.n	8002ac2 <HAL_SPI_Transmit+0x130>
 8002ab4:	f835 3b02 	ldrh.w	r3, [r5], #2
 8002ab8:	60f3      	str	r3, [r6, #12]
 8002aba:	63a5      	str	r5, [r4, #56]	; 0x38
 8002abc:	8fe3      	ldrh	r3, [r4, #62]	; 0x3e
 8002abe:	3b02      	subs	r3, #2
 8002ac0:	e006      	b.n	8002ad0 <HAL_SPI_Transmit+0x13e>
 8002ac2:	782b      	ldrb	r3, [r5, #0]
 8002ac4:	7333      	strb	r3, [r6, #12]
 8002ac6:	6ba3      	ldr	r3, [r4, #56]	; 0x38
 8002ac8:	3301      	adds	r3, #1
 8002aca:	63a3      	str	r3, [r4, #56]	; 0x38
 8002acc:	8fe3      	ldrh	r3, [r4, #62]	; 0x3e
 8002ace:	3b01      	subs	r3, #1
 8002ad0:	b29b      	uxth	r3, r3
 8002ad2:	87e3      	strh	r3, [r4, #62]	; 0x3e
 8002ad4:	8fe3      	ldrh	r3, [r4, #62]	; 0x3e
 8002ad6:	b29b      	uxth	r3, r3
 8002ad8:	2b00      	cmp	r3, #0
 8002ada:	d0af      	beq.n	8002a3c <HAL_SPI_Transmit+0xaa>
 8002adc:	6822      	ldr	r2, [r4, #0]
 8002ade:	6893      	ldr	r3, [r2, #8]
 8002ae0:	0799      	lsls	r1, r3, #30
 8002ae2:	d50c      	bpl.n	8002afe <HAL_SPI_Transmit+0x16c>
 8002ae4:	8fe1      	ldrh	r1, [r4, #62]	; 0x3e
 8002ae6:	6ba3      	ldr	r3, [r4, #56]	; 0x38
 8002ae8:	b289      	uxth	r1, r1
 8002aea:	2901      	cmp	r1, #1
 8002aec:	d904      	bls.n	8002af8 <HAL_SPI_Transmit+0x166>
 8002aee:	f833 1b02 	ldrh.w	r1, [r3], #2
 8002af2:	60d1      	str	r1, [r2, #12]
 8002af4:	63a3      	str	r3, [r4, #56]	; 0x38
 8002af6:	e7e1      	b.n	8002abc <HAL_SPI_Transmit+0x12a>
 8002af8:	781b      	ldrb	r3, [r3, #0]
 8002afa:	7313      	strb	r3, [r2, #12]
 8002afc:	e7e3      	b.n	8002ac6 <HAL_SPI_Transmit+0x134>
 8002afe:	f7fe fe31 	bl	8001764 <HAL_GetTick>
 8002b02:	eba0 0009 	sub.w	r0, r0, r9
 8002b06:	42b8      	cmp	r0, r7
 8002b08:	d302      	bcc.n	8002b10 <HAL_SPI_Transmit+0x17e>
 8002b0a:	1c7b      	adds	r3, r7, #1
 8002b0c:	d0e2      	beq.n	8002ad4 <HAL_SPI_Transmit+0x142>
 8002b0e:	e7bc      	b.n	8002a8a <HAL_SPI_Transmit+0xf8>
 8002b10:	2f00      	cmp	r7, #0
 8002b12:	d1df      	bne.n	8002ad4 <HAL_SPI_Transmit+0x142>
 8002b14:	e7b9      	b.n	8002a8a <HAL_SPI_Transmit+0xf8>
 8002b16:	2320      	movs	r3, #32
 8002b18:	6623      	str	r3, [r4, #96]	; 0x60
 8002b1a:	e796      	b.n	8002a4a <HAL_SPI_Transmit+0xb8>
 8002b1c:	2002      	movs	r0, #2
 8002b1e:	e7b5      	b.n	8002a8c <HAL_SPI_Transmit+0xfa>
 8002b20:	2002      	movs	r0, #2
 8002b22:	e7b9      	b.n	8002a98 <HAL_SPI_Transmit+0x106>

08002b24 <HAL_TIM_Base_Start_IT>:
 8002b24:	f890 303d 	ldrb.w	r3, [r0, #61]	; 0x3d
 8002b28:	2b01      	cmp	r3, #1
 8002b2a:	d11f      	bne.n	8002b6c <HAL_TIM_Base_Start_IT+0x48>
 8002b2c:	2302      	movs	r3, #2
 8002b2e:	f880 303d 	strb.w	r3, [r0, #61]	; 0x3d
 8002b32:	6803      	ldr	r3, [r0, #0]
 8002b34:	68da      	ldr	r2, [r3, #12]
 8002b36:	f042 0201 	orr.w	r2, r2, #1
 8002b3a:	60da      	str	r2, [r3, #12]
 8002b3c:	4a0c      	ldr	r2, [pc, #48]	; (8002b70 <HAL_TIM_Base_Start_IT+0x4c>)
 8002b3e:	4293      	cmp	r3, r2
 8002b40:	d006      	beq.n	8002b50 <HAL_TIM_Base_Start_IT+0x2c>
 8002b42:	f1b3 4f80 	cmp.w	r3, #1073741824	; 0x40000000
 8002b46:	d003      	beq.n	8002b50 <HAL_TIM_Base_Start_IT+0x2c>
 8002b48:	f502 52a0 	add.w	r2, r2, #5120	; 0x1400
 8002b4c:	4293      	cmp	r3, r2
 8002b4e:	d107      	bne.n	8002b60 <HAL_TIM_Base_Start_IT+0x3c>
 8002b50:	6899      	ldr	r1, [r3, #8]
 8002b52:	4a08      	ldr	r2, [pc, #32]	; (8002b74 <HAL_TIM_Base_Start_IT+0x50>)
 8002b54:	400a      	ands	r2, r1
 8002b56:	2a06      	cmp	r2, #6
 8002b58:	d006      	beq.n	8002b68 <HAL_TIM_Base_Start_IT+0x44>
 8002b5a:	f5b2 3f80 	cmp.w	r2, #65536	; 0x10000
 8002b5e:	d003      	beq.n	8002b68 <HAL_TIM_Base_Start_IT+0x44>
 8002b60:	681a      	ldr	r2, [r3, #0]
 8002b62:	f042 0201 	orr.w	r2, r2, #1
 8002b66:	601a      	str	r2, [r3, #0]
 8002b68:	2000      	movs	r0, #0
 8002b6a:	4770      	bx	lr
 8002b6c:	2001      	movs	r0, #1
 8002b6e:	4770      	bx	lr
 8002b70:	40012c00 	.word	0x40012c00
 8002b74:	00010007 	.word	0x00010007

08002b78 <HAL_TIM_Base_Stop_IT>:
 8002b78:	6803      	ldr	r3, [r0, #0]
 8002b7a:	68da      	ldr	r2, [r3, #12]
 8002b7c:	f022 0201 	bic.w	r2, r2, #1
 8002b80:	60da      	str	r2, [r3, #12]
 8002b82:	6a19      	ldr	r1, [r3, #32]
 8002b84:	f241 1211 	movw	r2, #4369	; 0x1111
 8002b88:	4211      	tst	r1, r2
 8002b8a:	d108      	bne.n	8002b9e <HAL_TIM_Base_Stop_IT+0x26>
 8002b8c:	6a19      	ldr	r1, [r3, #32]
 8002b8e:	f240 4244 	movw	r2, #1092	; 0x444
 8002b92:	4211      	tst	r1, r2
 8002b94:	bf02      	ittt	eq
 8002b96:	681a      	ldreq	r2, [r3, #0]
 8002b98:	f022 0201 	biceq.w	r2, r2, #1
 8002b9c:	601a      	streq	r2, [r3, #0]
 8002b9e:	2301      	movs	r3, #1
 8002ba0:	f880 303d 	strb.w	r3, [r0, #61]	; 0x3d
 8002ba4:	2000      	movs	r0, #0
 8002ba6:	4770      	bx	lr

08002ba8 <HAL_TIM_IC_MspInit>:
 8002ba8:	4770      	bx	lr

08002baa <HAL_TIM_ReadCapturedValue>:
 8002baa:	2908      	cmp	r1, #8
 8002bac:	d010      	beq.n	8002bd0 <HAL_TIM_ReadCapturedValue+0x26>
 8002bae:	d804      	bhi.n	8002bba <HAL_TIM_ReadCapturedValue+0x10>
 8002bb0:	b141      	cbz	r1, 8002bc4 <HAL_TIM_ReadCapturedValue+0x1a>
 8002bb2:	2904      	cmp	r1, #4
 8002bb4:	d009      	beq.n	8002bca <HAL_TIM_ReadCapturedValue+0x20>
 8002bb6:	2000      	movs	r0, #0
 8002bb8:	4770      	bx	lr
 8002bba:	290c      	cmp	r1, #12
 8002bbc:	d1fb      	bne.n	8002bb6 <HAL_TIM_ReadCapturedValue+0xc>
 8002bbe:	6803      	ldr	r3, [r0, #0]
 8002bc0:	6c18      	ldr	r0, [r3, #64]	; 0x40
 8002bc2:	4770      	bx	lr
 8002bc4:	6803      	ldr	r3, [r0, #0]
 8002bc6:	6b58      	ldr	r0, [r3, #52]	; 0x34
 8002bc8:	4770      	bx	lr
 8002bca:	6803      	ldr	r3, [r0, #0]
 8002bcc:	6b98      	ldr	r0, [r3, #56]	; 0x38
 8002bce:	4770      	bx	lr
 8002bd0:	6803      	ldr	r3, [r0, #0]
 8002bd2:	6bd8      	ldr	r0, [r3, #60]	; 0x3c
 8002bd4:	4770      	bx	lr

08002bd6 <HAL_TIM_OC_DelayElapsedCallback>:
 8002bd6:	4770      	bx	lr

08002bd8 <HAL_TIM_PWM_PulseFinishedCallback>:
 8002bd8:	4770      	bx	lr

08002bda <HAL_TIM_TriggerCallback>:
 8002bda:	4770      	bx	lr

08002bdc <HAL_TIM_IRQHandler>:
 8002bdc:	6803      	ldr	r3, [r0, #0]
 8002bde:	691a      	ldr	r2, [r3, #16]
 8002be0:	0791      	lsls	r1, r2, #30
 8002be2:	b510      	push	{r4, lr}
 8002be4:	4604      	mov	r4, r0
 8002be6:	d50f      	bpl.n	8002c08 <HAL_TIM_IRQHandler+0x2c>
 8002be8:	68da      	ldr	r2, [r3, #12]
 8002bea:	0792      	lsls	r2, r2, #30
 8002bec:	d50c      	bpl.n	8002c08 <HAL_TIM_IRQHandler+0x2c>
 8002bee:	f06f 0202 	mvn.w	r2, #2
 8002bf2:	611a      	str	r2, [r3, #16]
 8002bf4:	2201      	movs	r2, #1
 8002bf6:	7702      	strb	r2, [r0, #28]
 8002bf8:	699b      	ldr	r3, [r3, #24]
 8002bfa:	0799      	lsls	r1, r3, #30
 8002bfc:	f000 8085 	beq.w	8002d0a <HAL_TIM_IRQHandler+0x12e>
 8002c00:	f7fe fb6c 	bl	80012dc <HAL_TIM_IC_CaptureCallback>
 8002c04:	2300      	movs	r3, #0
 8002c06:	7723      	strb	r3, [r4, #28]
 8002c08:	6823      	ldr	r3, [r4, #0]
 8002c0a:	691a      	ldr	r2, [r3, #16]
 8002c0c:	0752      	lsls	r2, r2, #29
 8002c0e:	d510      	bpl.n	8002c32 <HAL_TIM_IRQHandler+0x56>
 8002c10:	68da      	ldr	r2, [r3, #12]
 8002c12:	0750      	lsls	r0, r2, #29
 8002c14:	d50d      	bpl.n	8002c32 <HAL_TIM_IRQHandler+0x56>
 8002c16:	f06f 0204 	mvn.w	r2, #4
 8002c1a:	611a      	str	r2, [r3, #16]
 8002c1c:	2202      	movs	r2, #2
 8002c1e:	7722      	strb	r2, [r4, #28]
 8002c20:	699b      	ldr	r3, [r3, #24]
 8002c22:	f413 7f40 	tst.w	r3, #768	; 0x300
 8002c26:	4620      	mov	r0, r4
 8002c28:	d075      	beq.n	8002d16 <HAL_TIM_IRQHandler+0x13a>
 8002c2a:	f7fe fb57 	bl	80012dc <HAL_TIM_IC_CaptureCallback>
 8002c2e:	2300      	movs	r3, #0
 8002c30:	7723      	strb	r3, [r4, #28]
 8002c32:	6823      	ldr	r3, [r4, #0]
 8002c34:	691a      	ldr	r2, [r3, #16]
 8002c36:	0711      	lsls	r1, r2, #28
 8002c38:	d50f      	bpl.n	8002c5a <HAL_TIM_IRQHandler+0x7e>
 8002c3a:	68da      	ldr	r2, [r3, #12]
 8002c3c:	0712      	lsls	r2, r2, #28
 8002c3e:	d50c      	bpl.n	8002c5a <HAL_TIM_IRQHandler+0x7e>
 8002c40:	f06f 0208 	mvn.w	r2, #8
 8002c44:	611a      	str	r2, [r3, #16]
 8002c46:	2204      	movs	r2, #4
 8002c48:	7722      	strb	r2, [r4, #28]
 8002c4a:	69db      	ldr	r3, [r3, #28]
 8002c4c:	079b      	lsls	r3, r3, #30
 8002c4e:	4620      	mov	r0, r4
 8002c50:	d067      	beq.n	8002d22 <HAL_TIM_IRQHandler+0x146>
 8002c52:	f7fe fb43 	bl	80012dc <HAL_TIM_IC_CaptureCallback>
 8002c56:	2300      	movs	r3, #0
 8002c58:	7723      	strb	r3, [r4, #28]
 8002c5a:	6823      	ldr	r3, [r4, #0]
 8002c5c:	691a      	ldr	r2, [r3, #16]
 8002c5e:	06d0      	lsls	r0, r2, #27
 8002c60:	d510      	bpl.n	8002c84 <HAL_TIM_IRQHandler+0xa8>
 8002c62:	68da      	ldr	r2, [r3, #12]
 8002c64:	06d1      	lsls	r1, r2, #27
 8002c66:	d50d      	bpl.n	8002c84 <HAL_TIM_IRQHandler+0xa8>
 8002c68:	f06f 0210 	mvn.w	r2, #16
 8002c6c:	611a      	str	r2, [r3, #16]
 8002c6e:	2208      	movs	r2, #8
 8002c70:	7722      	strb	r2, [r4, #28]
 8002c72:	69db      	ldr	r3, [r3, #28]
 8002c74:	f413 7f40 	tst.w	r3, #768	; 0x300
 8002c78:	4620      	mov	r0, r4
 8002c7a:	d058      	beq.n	8002d2e <HAL_TIM_IRQHandler+0x152>
 8002c7c:	f7fe fb2e 	bl	80012dc <HAL_TIM_IC_CaptureCallback>
 8002c80:	2300      	movs	r3, #0
 8002c82:	7723      	strb	r3, [r4, #28]
 8002c84:	6823      	ldr	r3, [r4, #0]
 8002c86:	691a      	ldr	r2, [r3, #16]
 8002c88:	07d2      	lsls	r2, r2, #31
 8002c8a:	d508      	bpl.n	8002c9e <HAL_TIM_IRQHandler+0xc2>
 8002c8c:	68da      	ldr	r2, [r3, #12]
 8002c8e:	07d0      	lsls	r0, r2, #31
 8002c90:	d505      	bpl.n	8002c9e <HAL_TIM_IRQHandler+0xc2>
 8002c92:	f06f 0201 	mvn.w	r2, #1
 8002c96:	611a      	str	r2, [r3, #16]
 8002c98:	4620      	mov	r0, r4
 8002c9a:	f001 fff1 	bl	8004c80 <HAL_TIM_PeriodElapsedCallback>
 8002c9e:	6823      	ldr	r3, [r4, #0]
 8002ca0:	691a      	ldr	r2, [r3, #16]
 8002ca2:	0611      	lsls	r1, r2, #24
 8002ca4:	d508      	bpl.n	8002cb8 <HAL_TIM_IRQHandler+0xdc>
 8002ca6:	68da      	ldr	r2, [r3, #12]
 8002ca8:	0612      	lsls	r2, r2, #24
 8002caa:	d505      	bpl.n	8002cb8 <HAL_TIM_IRQHandler+0xdc>
 8002cac:	f06f 0280 	mvn.w	r2, #128	; 0x80
 8002cb0:	611a      	str	r2, [r3, #16]
 8002cb2:	4620      	mov	r0, r4
 8002cb4:	f000 fc03 	bl	80034be <HAL_TIMEx_BreakCallback>
 8002cb8:	6823      	ldr	r3, [r4, #0]
 8002cba:	691a      	ldr	r2, [r3, #16]
 8002cbc:	05d0      	lsls	r0, r2, #23
 8002cbe:	d508      	bpl.n	8002cd2 <HAL_TIM_IRQHandler+0xf6>
 8002cc0:	68da      	ldr	r2, [r3, #12]
 8002cc2:	0611      	lsls	r1, r2, #24
 8002cc4:	d505      	bpl.n	8002cd2 <HAL_TIM_IRQHandler+0xf6>
 8002cc6:	f46f 7280 	mvn.w	r2, #256	; 0x100
 8002cca:	611a      	str	r2, [r3, #16]
 8002ccc:	4620      	mov	r0, r4
 8002cce:	f000 fbf7 	bl	80034c0 <HAL_TIMEx_Break2Callback>
 8002cd2:	6823      	ldr	r3, [r4, #0]
 8002cd4:	691a      	ldr	r2, [r3, #16]
 8002cd6:	0652      	lsls	r2, r2, #25
 8002cd8:	d508      	bpl.n	8002cec <HAL_TIM_IRQHandler+0x110>
 8002cda:	68da      	ldr	r2, [r3, #12]
 8002cdc:	0650      	lsls	r0, r2, #25
 8002cde:	d505      	bpl.n	8002cec <HAL_TIM_IRQHandler+0x110>
 8002ce0:	f06f 0240 	mvn.w	r2, #64	; 0x40
 8002ce4:	611a      	str	r2, [r3, #16]
 8002ce6:	4620      	mov	r0, r4
 8002ce8:	f7ff ff77 	bl	8002bda <HAL_TIM_TriggerCallback>
 8002cec:	6823      	ldr	r3, [r4, #0]
 8002cee:	691a      	ldr	r2, [r3, #16]
 8002cf0:	0691      	lsls	r1, r2, #26
 8002cf2:	d522      	bpl.n	8002d3a <HAL_TIM_IRQHandler+0x15e>
 8002cf4:	68da      	ldr	r2, [r3, #12]
 8002cf6:	0692      	lsls	r2, r2, #26
 8002cf8:	d51f      	bpl.n	8002d3a <HAL_TIM_IRQHandler+0x15e>
 8002cfa:	f06f 0220 	mvn.w	r2, #32
 8002cfe:	4620      	mov	r0, r4
 8002d00:	611a      	str	r2, [r3, #16]
 8002d02:	e8bd 4010 	ldmia.w	sp!, {r4, lr}
 8002d06:	f000 bbd9 	b.w	80034bc <HAL_TIMEx_CommutCallback>
 8002d0a:	f7ff ff64 	bl	8002bd6 <HAL_TIM_OC_DelayElapsedCallback>
 8002d0e:	4620      	mov	r0, r4
 8002d10:	f7ff ff62 	bl	8002bd8 <HAL_TIM_PWM_PulseFinishedCallback>
 8002d14:	e776      	b.n	8002c04 <HAL_TIM_IRQHandler+0x28>
 8002d16:	f7ff ff5e 	bl	8002bd6 <HAL_TIM_OC_DelayElapsedCallback>
 8002d1a:	4620      	mov	r0, r4
 8002d1c:	f7ff ff5c 	bl	8002bd8 <HAL_TIM_PWM_PulseFinishedCallback>
 8002d20:	e785      	b.n	8002c2e <HAL_TIM_IRQHandler+0x52>
 8002d22:	f7ff ff58 	bl	8002bd6 <HAL_TIM_OC_DelayElapsedCallback>
 8002d26:	4620      	mov	r0, r4
 8002d28:	f7ff ff56 	bl	8002bd8 <HAL_TIM_PWM_PulseFinishedCallback>
 8002d2c:	e793      	b.n	8002c56 <HAL_TIM_IRQHandler+0x7a>
 8002d2e:	f7ff ff52 	bl	8002bd6 <HAL_TIM_OC_DelayElapsedCallback>
 8002d32:	4620      	mov	r0, r4
 8002d34:	f7ff ff50 	bl	8002bd8 <HAL_TIM_PWM_PulseFinishedCallback>
 8002d38:	e7a2      	b.n	8002c80 <HAL_TIM_IRQHandler+0xa4>
 8002d3a:	bd10      	pop	{r4, pc}

08002d3c <TIM_Base_SetConfig>:
 8002d3c:	4a1a      	ldr	r2, [pc, #104]	; (8002da8 <TIM_Base_SetConfig+0x6c>)
 8002d3e:	6803      	ldr	r3, [r0, #0]
 8002d40:	4290      	cmp	r0, r2
 8002d42:	b510      	push	{r4, lr}
 8002d44:	d002      	beq.n	8002d4c <TIM_Base_SetConfig+0x10>
 8002d46:	f1b0 4f80 	cmp.w	r0, #1073741824	; 0x40000000
 8002d4a:	d109      	bne.n	8002d60 <TIM_Base_SetConfig+0x24>
 8002d4c:	684c      	ldr	r4, [r1, #4]
 8002d4e:	f023 0370 	bic.w	r3, r3, #112	; 0x70
 8002d52:	4290      	cmp	r0, r2
 8002d54:	ea43 0304 	orr.w	r3, r3, r4
 8002d58:	d009      	beq.n	8002d6e <TIM_Base_SetConfig+0x32>
 8002d5a:	f1b0 4f80 	cmp.w	r0, #1073741824	; 0x40000000
 8002d5e:	d006      	beq.n	8002d6e <TIM_Base_SetConfig+0x32>
 8002d60:	4a12      	ldr	r2, [pc, #72]	; (8002dac <TIM_Base_SetConfig+0x70>)
 8002d62:	4290      	cmp	r0, r2
 8002d64:	d003      	beq.n	8002d6e <TIM_Base_SetConfig+0x32>
 8002d66:	f502 6280 	add.w	r2, r2, #1024	; 0x400
 8002d6a:	4290      	cmp	r0, r2
 8002d6c:	d103      	bne.n	8002d76 <TIM_Base_SetConfig+0x3a>
 8002d6e:	68ca      	ldr	r2, [r1, #12]
 8002d70:	f423 7340 	bic.w	r3, r3, #768	; 0x300
 8002d74:	4313      	orrs	r3, r2
 8002d76:	694a      	ldr	r2, [r1, #20]
 8002d78:	f023 0380 	bic.w	r3, r3, #128	; 0x80
 8002d7c:	4313      	orrs	r3, r2
 8002d7e:	6003      	str	r3, [r0, #0]
 8002d80:	688b      	ldr	r3, [r1, #8]
 8002d82:	62c3      	str	r3, [r0, #44]	; 0x2c
 8002d84:	680b      	ldr	r3, [r1, #0]
 8002d86:	6283      	str	r3, [r0, #40]	; 0x28
 8002d88:	4b07      	ldr	r3, [pc, #28]	; (8002da8 <TIM_Base_SetConfig+0x6c>)
 8002d8a:	4298      	cmp	r0, r3
 8002d8c:	d007      	beq.n	8002d9e <TIM_Base_SetConfig+0x62>
 8002d8e:	f503 53a0 	add.w	r3, r3, #5120	; 0x1400
 8002d92:	4298      	cmp	r0, r3
 8002d94:	d003      	beq.n	8002d9e <TIM_Base_SetConfig+0x62>
 8002d96:	f503 6380 	add.w	r3, r3, #1024	; 0x400
 8002d9a:	4298      	cmp	r0, r3
 8002d9c:	d101      	bne.n	8002da2 <TIM_Base_SetConfig+0x66>
 8002d9e:	690b      	ldr	r3, [r1, #16]
 8002da0:	6303      	str	r3, [r0, #48]	; 0x30
 8002da2:	2301      	movs	r3, #1
 8002da4:	6143      	str	r3, [r0, #20]
 8002da6:	bd10      	pop	{r4, pc}
 8002da8:	40012c00 	.word	0x40012c00
 8002dac:	40014000 	.word	0x40014000

08002db0 <HAL_TIM_Base_Init>:
 8002db0:	b510      	push	{r4, lr}
 8002db2:	4604      	mov	r4, r0
 8002db4:	b350      	cbz	r0, 8002e0c <HAL_TIM_Base_Init+0x5c>
 8002db6:	f890 303d 	ldrb.w	r3, [r0, #61]	; 0x3d
 8002dba:	f003 02ff 	and.w	r2, r3, #255	; 0xff
 8002dbe:	b91b      	cbnz	r3, 8002dc8 <HAL_TIM_Base_Init+0x18>
 8002dc0:	f880 203c 	strb.w	r2, [r0, #60]	; 0x3c
 8002dc4:	f7fe fb30 	bl	8001428 <HAL_TIM_Base_MspInit>
 8002dc8:	2302      	movs	r3, #2
 8002dca:	6820      	ldr	r0, [r4, #0]
 8002dcc:	f884 303d 	strb.w	r3, [r4, #61]	; 0x3d
 8002dd0:	1d21      	adds	r1, r4, #4
 8002dd2:	f7ff ffb3 	bl	8002d3c <TIM_Base_SetConfig>
 8002dd6:	2301      	movs	r3, #1
 8002dd8:	f884 3048 	strb.w	r3, [r4, #72]	; 0x48
 8002ddc:	2000      	movs	r0, #0
 8002dde:	f884 303e 	strb.w	r3, [r4, #62]	; 0x3e
 8002de2:	f884 303f 	strb.w	r3, [r4, #63]	; 0x3f
 8002de6:	f884 3040 	strb.w	r3, [r4, #64]	; 0x40
 8002dea:	f884 3041 	strb.w	r3, [r4, #65]	; 0x41
 8002dee:	f884 3042 	strb.w	r3, [r4, #66]	; 0x42
 8002df2:	f884 3043 	strb.w	r3, [r4, #67]	; 0x43
 8002df6:	f884 3044 	strb.w	r3, [r4, #68]	; 0x44
 8002dfa:	f884 3045 	strb.w	r3, [r4, #69]	; 0x45
 8002dfe:	f884 3046 	strb.w	r3, [r4, #70]	; 0x46
 8002e02:	f884 3047 	strb.w	r3, [r4, #71]	; 0x47
 8002e06:	f884 303d 	strb.w	r3, [r4, #61]	; 0x3d
 8002e0a:	bd10      	pop	{r4, pc}
 8002e0c:	2001      	movs	r0, #1
 8002e0e:	e7fc      	b.n	8002e0a <HAL_TIM_Base_Init+0x5a>

08002e10 <HAL_TIM_IC_Init>:
 8002e10:	b510      	push	{r4, lr}
 8002e12:	4604      	mov	r4, r0
 8002e14:	b350      	cbz	r0, 8002e6c <HAL_TIM_IC_Init+0x5c>
 8002e16:	f890 303d 	ldrb.w	r3, [r0, #61]	; 0x3d
 8002e1a:	f003 02ff 	and.w	r2, r3, #255	; 0xff
 8002e1e:	b91b      	cbnz	r3, 8002e28 <HAL_TIM_IC_Init+0x18>
 8002e20:	f880 203c 	strb.w	r2, [r0, #60]	; 0x3c
 8002e24:	f7ff fec0 	bl	8002ba8 <HAL_TIM_IC_MspInit>
 8002e28:	2302      	movs	r3, #2
 8002e2a:	6820      	ldr	r0, [r4, #0]
 8002e2c:	f884 303d 	strb.w	r3, [r4, #61]	; 0x3d
 8002e30:	1d21      	adds	r1, r4, #4
 8002e32:	f7ff ff83 	bl	8002d3c <TIM_Base_SetConfig>
 8002e36:	2301      	movs	r3, #1
 8002e38:	f884 3048 	strb.w	r3, [r4, #72]	; 0x48
 8002e3c:	2000      	movs	r0, #0
 8002e3e:	f884 303e 	strb.w	r3, [r4, #62]	; 0x3e
 8002e42:	f884 303f 	strb.w	r3, [r4, #63]	; 0x3f
 8002e46:	f884 3040 	strb.w	r3, [r4, #64]	; 0x40
 8002e4a:	f884 3041 	strb.w	r3, [r4, #65]	; 0x41
 8002e4e:	f884 3042 	strb.w	r3, [r4, #66]	; 0x42
 8002e52:	f884 3043 	strb.w	r3, [r4, #67]	; 0x43
 8002e56:	f884 3044 	strb.w	r3, [r4, #68]	; 0x44
 8002e5a:	f884 3045 	strb.w	r3, [r4, #69]	; 0x45
 8002e5e:	f884 3046 	strb.w	r3, [r4, #70]	; 0x46
 8002e62:	f884 3047 	strb.w	r3, [r4, #71]	; 0x47
 8002e66:	f884 303d 	strb.w	r3, [r4, #61]	; 0x3d
 8002e6a:	bd10      	pop	{r4, pc}
 8002e6c:	2001      	movs	r0, #1
 8002e6e:	e7fc      	b.n	8002e6a <HAL_TIM_IC_Init+0x5a>

08002e70 <TIM_TI1_SetConfig>:
 8002e70:	b570      	push	{r4, r5, r6, lr}
 8002e72:	6a04      	ldr	r4, [r0, #32]
 8002e74:	4e10      	ldr	r6, [pc, #64]	; (8002eb8 <TIM_TI1_SetConfig+0x48>)
 8002e76:	f024 0401 	bic.w	r4, r4, #1
 8002e7a:	6204      	str	r4, [r0, #32]
 8002e7c:	42b0      	cmp	r0, r6
 8002e7e:	6984      	ldr	r4, [r0, #24]
 8002e80:	6a05      	ldr	r5, [r0, #32]
 8002e82:	d015      	beq.n	8002eb0 <TIM_TI1_SetConfig+0x40>
 8002e84:	f1b0 4f80 	cmp.w	r0, #1073741824	; 0x40000000
 8002e88:	d012      	beq.n	8002eb0 <TIM_TI1_SetConfig+0x40>
 8002e8a:	f506 56a0 	add.w	r6, r6, #5120	; 0x1400
 8002e8e:	42b0      	cmp	r0, r6
 8002e90:	d00e      	beq.n	8002eb0 <TIM_TI1_SetConfig+0x40>
 8002e92:	f044 0201 	orr.w	r2, r4, #1
 8002e96:	011b      	lsls	r3, r3, #4
 8002e98:	f022 02f0 	bic.w	r2, r2, #240	; 0xf0
 8002e9c:	b2db      	uxtb	r3, r3
 8002e9e:	4313      	orrs	r3, r2
 8002ea0:	f001 010a 	and.w	r1, r1, #10
 8002ea4:	f025 020a 	bic.w	r2, r5, #10
 8002ea8:	4311      	orrs	r1, r2
 8002eaa:	6183      	str	r3, [r0, #24]
 8002eac:	6201      	str	r1, [r0, #32]
 8002eae:	bd70      	pop	{r4, r5, r6, pc}
 8002eb0:	f024 0403 	bic.w	r4, r4, #3
 8002eb4:	4322      	orrs	r2, r4
 8002eb6:	e7ee      	b.n	8002e96 <TIM_TI1_SetConfig+0x26>
 8002eb8:	40012c00 	.word	0x40012c00

08002ebc <HAL_TIM_IC_ConfigChannel>:
 8002ebc:	b5f8      	push	{r3, r4, r5, r6, r7, lr}
 8002ebe:	f890 303c 	ldrb.w	r3, [r0, #60]	; 0x3c
 8002ec2:	2b01      	cmp	r3, #1
 8002ec4:	4605      	mov	r5, r0
 8002ec6:	460c      	mov	r4, r1
 8002ec8:	f000 8089 	beq.w	8002fde <HAL_TIM_IC_ConfigChannel+0x122>
 8002ecc:	2001      	movs	r0, #1
 8002ece:	f885 003c 	strb.w	r0, [r5, #60]	; 0x3c
 8002ed2:	b99a      	cbnz	r2, 8002efc <HAL_TIM_IC_ConfigChannel+0x40>
 8002ed4:	68cb      	ldr	r3, [r1, #12]
 8002ed6:	6828      	ldr	r0, [r5, #0]
 8002ed8:	e9d1 1200 	ldrd	r1, r2, [r1]
 8002edc:	f7ff ffc8 	bl	8002e70 <TIM_TI1_SetConfig>
 8002ee0:	682b      	ldr	r3, [r5, #0]
 8002ee2:	68a1      	ldr	r1, [r4, #8]
 8002ee4:	699a      	ldr	r2, [r3, #24]
 8002ee6:	f022 020c 	bic.w	r2, r2, #12
 8002eea:	619a      	str	r2, [r3, #24]
 8002eec:	699a      	ldr	r2, [r3, #24]
 8002eee:	430a      	orrs	r2, r1
 8002ef0:	619a      	str	r2, [r3, #24]
 8002ef2:	2000      	movs	r0, #0
 8002ef4:	2300      	movs	r3, #0
 8002ef6:	f885 303c 	strb.w	r3, [r5, #60]	; 0x3c
 8002efa:	bdf8      	pop	{r3, r4, r5, r6, r7, pc}
 8002efc:	2a04      	cmp	r2, #4
 8002efe:	d123      	bne.n	8002f48 <HAL_TIM_IC_ConfigChannel+0x8c>
 8002f00:	682b      	ldr	r3, [r5, #0]
 8002f02:	6a1e      	ldr	r6, [r3, #32]
 8002f04:	f026 0610 	bic.w	r6, r6, #16
 8002f08:	e9d1 2700 	ldrd	r2, r7, [r1]
 8002f0c:	68c9      	ldr	r1, [r1, #12]
 8002f0e:	621e      	str	r6, [r3, #32]
 8002f10:	6998      	ldr	r0, [r3, #24]
 8002f12:	6a1e      	ldr	r6, [r3, #32]
 8002f14:	f420 7040 	bic.w	r0, r0, #768	; 0x300
 8002f18:	ea40 2007 	orr.w	r0, r0, r7, lsl #8
 8002f1c:	0309      	lsls	r1, r1, #12
 8002f1e:	f420 4070 	bic.w	r0, r0, #61440	; 0xf000
 8002f22:	b289      	uxth	r1, r1
 8002f24:	0112      	lsls	r2, r2, #4
 8002f26:	4301      	orrs	r1, r0
 8002f28:	f002 02a0 	and.w	r2, r2, #160	; 0xa0
 8002f2c:	f026 00a0 	bic.w	r0, r6, #160	; 0xa0
 8002f30:	4302      	orrs	r2, r0
 8002f32:	6199      	str	r1, [r3, #24]
 8002f34:	621a      	str	r2, [r3, #32]
 8002f36:	699a      	ldr	r2, [r3, #24]
 8002f38:	68a1      	ldr	r1, [r4, #8]
 8002f3a:	f422 6240 	bic.w	r2, r2, #3072	; 0xc00
 8002f3e:	619a      	str	r2, [r3, #24]
 8002f40:	699a      	ldr	r2, [r3, #24]
 8002f42:	ea42 2201 	orr.w	r2, r2, r1, lsl #8
 8002f46:	e7d3      	b.n	8002ef0 <HAL_TIM_IC_ConfigChannel+0x34>
 8002f48:	2a08      	cmp	r2, #8
 8002f4a:	d122      	bne.n	8002f92 <HAL_TIM_IC_ConfigChannel+0xd6>
 8002f4c:	682b      	ldr	r3, [r5, #0]
 8002f4e:	6a1e      	ldr	r6, [r3, #32]
 8002f50:	f426 7680 	bic.w	r6, r6, #256	; 0x100
 8002f54:	e9d1 2000 	ldrd	r2, r0, [r1]
 8002f58:	68c9      	ldr	r1, [r1, #12]
 8002f5a:	621e      	str	r6, [r3, #32]
 8002f5c:	69df      	ldr	r7, [r3, #28]
 8002f5e:	6a1e      	ldr	r6, [r3, #32]
 8002f60:	f027 0703 	bic.w	r7, r7, #3
 8002f64:	4338      	orrs	r0, r7
 8002f66:	0109      	lsls	r1, r1, #4
 8002f68:	f020 00f0 	bic.w	r0, r0, #240	; 0xf0
 8002f6c:	b2c9      	uxtb	r1, r1
 8002f6e:	0212      	lsls	r2, r2, #8
 8002f70:	4301      	orrs	r1, r0
 8002f72:	f402 6220 	and.w	r2, r2, #2560	; 0xa00
 8002f76:	f426 6020 	bic.w	r0, r6, #2560	; 0xa00
 8002f7a:	4302      	orrs	r2, r0
 8002f7c:	61d9      	str	r1, [r3, #28]
 8002f7e:	621a      	str	r2, [r3, #32]
 8002f80:	69da      	ldr	r2, [r3, #28]
 8002f82:	68a1      	ldr	r1, [r4, #8]
 8002f84:	f022 020c 	bic.w	r2, r2, #12
 8002f88:	61da      	str	r2, [r3, #28]
 8002f8a:	69da      	ldr	r2, [r3, #28]
 8002f8c:	430a      	orrs	r2, r1
 8002f8e:	61da      	str	r2, [r3, #28]
 8002f90:	e7af      	b.n	8002ef2 <HAL_TIM_IC_ConfigChannel+0x36>
 8002f92:	2a0c      	cmp	r2, #12
 8002f94:	d1ae      	bne.n	8002ef4 <HAL_TIM_IC_ConfigChannel+0x38>
 8002f96:	682b      	ldr	r3, [r5, #0]
 8002f98:	6a1e      	ldr	r6, [r3, #32]
 8002f9a:	f426 5680 	bic.w	r6, r6, #4096	; 0x1000
 8002f9e:	e9d1 2700 	ldrd	r2, r7, [r1]
 8002fa2:	68c9      	ldr	r1, [r1, #12]
 8002fa4:	621e      	str	r6, [r3, #32]
 8002fa6:	69d8      	ldr	r0, [r3, #28]
 8002fa8:	6a1e      	ldr	r6, [r3, #32]
 8002faa:	f420 7040 	bic.w	r0, r0, #768	; 0x300
 8002fae:	ea40 2007 	orr.w	r0, r0, r7, lsl #8
 8002fb2:	0309      	lsls	r1, r1, #12
 8002fb4:	f420 4070 	bic.w	r0, r0, #61440	; 0xf000
 8002fb8:	b289      	uxth	r1, r1
 8002fba:	0312      	lsls	r2, r2, #12
 8002fbc:	4301      	orrs	r1, r0
 8002fbe:	f402 4220 	and.w	r2, r2, #40960	; 0xa000
 8002fc2:	f426 4020 	bic.w	r0, r6, #40960	; 0xa000
 8002fc6:	4302      	orrs	r2, r0
 8002fc8:	61d9      	str	r1, [r3, #28]
 8002fca:	621a      	str	r2, [r3, #32]
 8002fcc:	69da      	ldr	r2, [r3, #28]
 8002fce:	68a1      	ldr	r1, [r4, #8]
 8002fd0:	f422 6240 	bic.w	r2, r2, #3072	; 0xc00
 8002fd4:	61da      	str	r2, [r3, #28]
 8002fd6:	69da      	ldr	r2, [r3, #28]
 8002fd8:	ea42 2201 	orr.w	r2, r2, r1, lsl #8
 8002fdc:	e7d7      	b.n	8002f8e <HAL_TIM_IC_ConfigChannel+0xd2>
 8002fde:	2002      	movs	r0, #2
 8002fe0:	e78b      	b.n	8002efa <HAL_TIM_IC_ConfigChannel+0x3e>

08002fe2 <TIM_ETR_SetConfig>:
 8002fe2:	b510      	push	{r4, lr}
 8002fe4:	6884      	ldr	r4, [r0, #8]
 8002fe6:	4311      	orrs	r1, r2
 8002fe8:	f424 447f 	bic.w	r4, r4, #65280	; 0xff00
 8002fec:	ea41 2303 	orr.w	r3, r1, r3, lsl #8
 8002ff0:	4323      	orrs	r3, r4
 8002ff2:	6083      	str	r3, [r0, #8]
 8002ff4:	bd10      	pop	{r4, pc}
	...

08002ff8 <HAL_TIM_ConfigClockSource>:
 8002ff8:	b570      	push	{r4, r5, r6, lr}
 8002ffa:	f890 303c 	ldrb.w	r3, [r0, #60]	; 0x3c
 8002ffe:	2b01      	cmp	r3, #1
 8003000:	4604      	mov	r4, r0
 8003002:	f04f 0302 	mov.w	r3, #2
 8003006:	f000 808f 	beq.w	8003128 <HAL_TIM_ConfigClockSource+0x130>
 800300a:	2201      	movs	r2, #1
 800300c:	f880 303d 	strb.w	r3, [r0, #61]	; 0x3d
 8003010:	f880 203c 	strb.w	r2, [r0, #60]	; 0x3c
 8003014:	6800      	ldr	r0, [r0, #0]
 8003016:	4b45      	ldr	r3, [pc, #276]	; (800312c <HAL_TIM_ConfigClockSource+0x134>)
 8003018:	6885      	ldr	r5, [r0, #8]
 800301a:	402b      	ands	r3, r5
 800301c:	6083      	str	r3, [r0, #8]
 800301e:	680b      	ldr	r3, [r1, #0]
 8003020:	2b60      	cmp	r3, #96	; 0x60
 8003022:	d052      	beq.n	80030ca <HAL_TIM_ConfigClockSource+0xd2>
 8003024:	d833      	bhi.n	800308e <HAL_TIM_ConfigClockSource+0x96>
 8003026:	2b40      	cmp	r3, #64	; 0x40
 8003028:	d067      	beq.n	80030fa <HAL_TIM_ConfigClockSource+0x102>
 800302a:	d816      	bhi.n	800305a <HAL_TIM_ConfigClockSource+0x62>
 800302c:	2b20      	cmp	r3, #32
 800302e:	d00d      	beq.n	800304c <HAL_TIM_ConfigClockSource+0x54>
 8003030:	d80a      	bhi.n	8003048 <HAL_TIM_ConfigClockSource+0x50>
 8003032:	f033 0110 	bics.w	r1, r3, #16
 8003036:	d009      	beq.n	800304c <HAL_TIM_ConfigClockSource+0x54>
 8003038:	2301      	movs	r3, #1
 800303a:	f884 303d 	strb.w	r3, [r4, #61]	; 0x3d
 800303e:	2300      	movs	r3, #0
 8003040:	f884 303c 	strb.w	r3, [r4, #60]	; 0x3c
 8003044:	4610      	mov	r0, r2
 8003046:	bd70      	pop	{r4, r5, r6, pc}
 8003048:	2b30      	cmp	r3, #48	; 0x30
 800304a:	d1f5      	bne.n	8003038 <HAL_TIM_ConfigClockSource+0x40>
 800304c:	6882      	ldr	r2, [r0, #8]
 800304e:	f022 0270 	bic.w	r2, r2, #112	; 0x70
 8003052:	4313      	orrs	r3, r2
 8003054:	f043 0307 	orr.w	r3, r3, #7
 8003058:	e017      	b.n	800308a <HAL_TIM_ConfigClockSource+0x92>
 800305a:	2b50      	cmp	r3, #80	; 0x50
 800305c:	d1ec      	bne.n	8003038 <HAL_TIM_ConfigClockSource+0x40>
 800305e:	684a      	ldr	r2, [r1, #4]
 8003060:	68ce      	ldr	r6, [r1, #12]
 8003062:	6a01      	ldr	r1, [r0, #32]
 8003064:	6a05      	ldr	r5, [r0, #32]
 8003066:	f025 0501 	bic.w	r5, r5, #1
 800306a:	6205      	str	r5, [r0, #32]
 800306c:	6983      	ldr	r3, [r0, #24]
 800306e:	f021 010a 	bic.w	r1, r1, #10
 8003072:	f023 03f0 	bic.w	r3, r3, #240	; 0xf0
 8003076:	ea43 1306 	orr.w	r3, r3, r6, lsl #4
 800307a:	430a      	orrs	r2, r1
 800307c:	6183      	str	r3, [r0, #24]
 800307e:	6202      	str	r2, [r0, #32]
 8003080:	6883      	ldr	r3, [r0, #8]
 8003082:	f023 0370 	bic.w	r3, r3, #112	; 0x70
 8003086:	f043 0357 	orr.w	r3, r3, #87	; 0x57
 800308a:	6083      	str	r3, [r0, #8]
 800308c:	e011      	b.n	80030b2 <HAL_TIM_ConfigClockSource+0xba>
 800308e:	f5b3 5f80 	cmp.w	r3, #4096	; 0x1000
 8003092:	d00e      	beq.n	80030b2 <HAL_TIM_ConfigClockSource+0xba>
 8003094:	f5b3 5f00 	cmp.w	r3, #8192	; 0x2000
 8003098:	d00d      	beq.n	80030b6 <HAL_TIM_ConfigClockSource+0xbe>
 800309a:	2b70      	cmp	r3, #112	; 0x70
 800309c:	d1cc      	bne.n	8003038 <HAL_TIM_ConfigClockSource+0x40>
 800309e:	68cb      	ldr	r3, [r1, #12]
 80030a0:	e9d1 2101 	ldrd	r2, r1, [r1, #4]
 80030a4:	f7ff ff9d 	bl	8002fe2 <TIM_ETR_SetConfig>
 80030a8:	6822      	ldr	r2, [r4, #0]
 80030aa:	6893      	ldr	r3, [r2, #8]
 80030ac:	f043 0377 	orr.w	r3, r3, #119	; 0x77
 80030b0:	6093      	str	r3, [r2, #8]
 80030b2:	2200      	movs	r2, #0
 80030b4:	e7c0      	b.n	8003038 <HAL_TIM_ConfigClockSource+0x40>
 80030b6:	68cb      	ldr	r3, [r1, #12]
 80030b8:	e9d1 2101 	ldrd	r2, r1, [r1, #4]
 80030bc:	f7ff ff91 	bl	8002fe2 <TIM_ETR_SetConfig>
 80030c0:	6822      	ldr	r2, [r4, #0]
 80030c2:	6893      	ldr	r3, [r2, #8]
 80030c4:	f443 4380 	orr.w	r3, r3, #16384	; 0x4000
 80030c8:	e7f2      	b.n	80030b0 <HAL_TIM_ConfigClockSource+0xb8>
 80030ca:	684d      	ldr	r5, [r1, #4]
 80030cc:	68ce      	ldr	r6, [r1, #12]
 80030ce:	6a01      	ldr	r1, [r0, #32]
 80030d0:	f021 0110 	bic.w	r1, r1, #16
 80030d4:	6201      	str	r1, [r0, #32]
 80030d6:	6982      	ldr	r2, [r0, #24]
 80030d8:	6a03      	ldr	r3, [r0, #32]
 80030da:	f422 4270 	bic.w	r2, r2, #61440	; 0xf000
 80030de:	f023 03a0 	bic.w	r3, r3, #160	; 0xa0
 80030e2:	ea43 1305 	orr.w	r3, r3, r5, lsl #4
 80030e6:	ea42 3206 	orr.w	r2, r2, r6, lsl #12
 80030ea:	6182      	str	r2, [r0, #24]
 80030ec:	6203      	str	r3, [r0, #32]
 80030ee:	6883      	ldr	r3, [r0, #8]
 80030f0:	f023 0370 	bic.w	r3, r3, #112	; 0x70
 80030f4:	f043 0367 	orr.w	r3, r3, #103	; 0x67
 80030f8:	e7c7      	b.n	800308a <HAL_TIM_ConfigClockSource+0x92>
 80030fa:	684a      	ldr	r2, [r1, #4]
 80030fc:	68ce      	ldr	r6, [r1, #12]
 80030fe:	6a01      	ldr	r1, [r0, #32]
 8003100:	6a05      	ldr	r5, [r0, #32]
 8003102:	f025 0501 	bic.w	r5, r5, #1
 8003106:	6205      	str	r5, [r0, #32]
 8003108:	6983      	ldr	r3, [r0, #24]
 800310a:	f021 010a 	bic.w	r1, r1, #10
 800310e:	f023 03f0 	bic.w	r3, r3, #240	; 0xf0
 8003112:	ea43 1306 	orr.w	r3, r3, r6, lsl #4
 8003116:	430a      	orrs	r2, r1
 8003118:	6183      	str	r3, [r0, #24]
 800311a:	6202      	str	r2, [r0, #32]
 800311c:	6883      	ldr	r3, [r0, #8]
 800311e:	f023 0370 	bic.w	r3, r3, #112	; 0x70
 8003122:	f043 0347 	orr.w	r3, r3, #71	; 0x47
 8003126:	e7b0      	b.n	800308a <HAL_TIM_ConfigClockSource+0x92>
 8003128:	461a      	mov	r2, r3
 800312a:	e78b      	b.n	8003044 <HAL_TIM_ConfigClockSource+0x4c>
 800312c:	fffe0088 	.word	0xfffe0088

08003130 <TIM_SlaveTimer_SetConfig>:
 8003130:	6800      	ldr	r0, [r0, #0]
 8003132:	6882      	ldr	r2, [r0, #8]
 8003134:	b538      	push	{r3, r4, r5, lr}
 8003136:	684b      	ldr	r3, [r1, #4]
 8003138:	680c      	ldr	r4, [r1, #0]
 800313a:	f022 0270 	bic.w	r2, r2, #112	; 0x70
 800313e:	431a      	orrs	r2, r3
 8003140:	f422 3280 	bic.w	r2, r2, #65536	; 0x10000
 8003144:	f022 0207 	bic.w	r2, r2, #7
 8003148:	4322      	orrs	r2, r4
 800314a:	2b50      	cmp	r3, #80	; 0x50
 800314c:	6082      	str	r2, [r0, #8]
 800314e:	d02c      	beq.n	80031aa <TIM_SlaveTimer_SetConfig+0x7a>
 8003150:	d810      	bhi.n	8003174 <TIM_SlaveTimer_SetConfig+0x44>
 8003152:	2b40      	cmp	r3, #64	; 0x40
 8003154:	d019      	beq.n	800318a <TIM_SlaveTimer_SetConfig+0x5a>
 8003156:	d84b      	bhi.n	80031f0 <TIM_SlaveTimer_SetConfig+0xc0>
 8003158:	2b20      	cmp	r3, #32
 800315a:	d014      	beq.n	8003186 <TIM_SlaveTimer_SetConfig+0x56>
 800315c:	d805      	bhi.n	800316a <TIM_SlaveTimer_SetConfig+0x3a>
 800315e:	f033 0310 	bics.w	r3, r3, #16
 8003162:	bf14      	ite	ne
 8003164:	2001      	movne	r0, #1
 8003166:	2000      	moveq	r0, #0
 8003168:	bd38      	pop	{r3, r4, r5, pc}
 800316a:	f1b3 0030 	subs.w	r0, r3, #48	; 0x30
 800316e:	bf18      	it	ne
 8003170:	2001      	movne	r0, #1
 8003172:	e7f9      	b.n	8003168 <TIM_SlaveTimer_SetConfig+0x38>
 8003174:	2b60      	cmp	r3, #96	; 0x60
 8003176:	d028      	beq.n	80031ca <TIM_SlaveTimer_SetConfig+0x9a>
 8003178:	2b70      	cmp	r3, #112	; 0x70
 800317a:	d139      	bne.n	80031f0 <TIM_SlaveTimer_SetConfig+0xc0>
 800317c:	690b      	ldr	r3, [r1, #16]
 800317e:	e9d1 2102 	ldrd	r2, r1, [r1, #8]
 8003182:	f7ff ff2e 	bl	8002fe2 <TIM_ETR_SetConfig>
 8003186:	2000      	movs	r0, #0
 8003188:	e7ee      	b.n	8003168 <TIM_SlaveTimer_SetConfig+0x38>
 800318a:	2c05      	cmp	r4, #5
 800318c:	d030      	beq.n	80031f0 <TIM_SlaveTimer_SetConfig+0xc0>
 800318e:	6a02      	ldr	r2, [r0, #32]
 8003190:	6a03      	ldr	r3, [r0, #32]
 8003192:	6909      	ldr	r1, [r1, #16]
 8003194:	f023 0301 	bic.w	r3, r3, #1
 8003198:	6203      	str	r3, [r0, #32]
 800319a:	6983      	ldr	r3, [r0, #24]
 800319c:	f023 03f0 	bic.w	r3, r3, #240	; 0xf0
 80031a0:	ea43 1301 	orr.w	r3, r3, r1, lsl #4
 80031a4:	6183      	str	r3, [r0, #24]
 80031a6:	6202      	str	r2, [r0, #32]
 80031a8:	e7ed      	b.n	8003186 <TIM_SlaveTimer_SetConfig+0x56>
 80031aa:	688a      	ldr	r2, [r1, #8]
 80031ac:	690d      	ldr	r5, [r1, #16]
 80031ae:	6a01      	ldr	r1, [r0, #32]
 80031b0:	6a04      	ldr	r4, [r0, #32]
 80031b2:	f024 0401 	bic.w	r4, r4, #1
 80031b6:	6204      	str	r4, [r0, #32]
 80031b8:	6983      	ldr	r3, [r0, #24]
 80031ba:	f021 010a 	bic.w	r1, r1, #10
 80031be:	f023 03f0 	bic.w	r3, r3, #240	; 0xf0
 80031c2:	ea43 1305 	orr.w	r3, r3, r5, lsl #4
 80031c6:	430a      	orrs	r2, r1
 80031c8:	e7ec      	b.n	80031a4 <TIM_SlaveTimer_SetConfig+0x74>
 80031ca:	688c      	ldr	r4, [r1, #8]
 80031cc:	690d      	ldr	r5, [r1, #16]
 80031ce:	6a01      	ldr	r1, [r0, #32]
 80031d0:	f021 0110 	bic.w	r1, r1, #16
 80031d4:	6201      	str	r1, [r0, #32]
 80031d6:	6982      	ldr	r2, [r0, #24]
 80031d8:	6a03      	ldr	r3, [r0, #32]
 80031da:	f422 4270 	bic.w	r2, r2, #61440	; 0xf000
 80031de:	f023 03a0 	bic.w	r3, r3, #160	; 0xa0
 80031e2:	ea42 3205 	orr.w	r2, r2, r5, lsl #12
 80031e6:	ea43 1304 	orr.w	r3, r3, r4, lsl #4
 80031ea:	6182      	str	r2, [r0, #24]
 80031ec:	6203      	str	r3, [r0, #32]
 80031ee:	e7ca      	b.n	8003186 <TIM_SlaveTimer_SetConfig+0x56>
 80031f0:	2001      	movs	r0, #1
 80031f2:	e7b9      	b.n	8003168 <TIM_SlaveTimer_SetConfig+0x38>

080031f4 <HAL_TIM_SlaveConfigSynchro>:
 80031f4:	b538      	push	{r3, r4, r5, lr}
 80031f6:	f890 303c 	ldrb.w	r3, [r0, #60]	; 0x3c
 80031fa:	2b01      	cmp	r3, #1
 80031fc:	4604      	mov	r4, r0
 80031fe:	f04f 0302 	mov.w	r3, #2
 8003202:	d01c      	beq.n	800323e <HAL_TIM_SlaveConfigSynchro+0x4a>
 8003204:	2501      	movs	r5, #1
 8003206:	f880 503c 	strb.w	r5, [r0, #60]	; 0x3c
 800320a:	f880 303d 	strb.w	r3, [r0, #61]	; 0x3d
 800320e:	f7ff ff8f 	bl	8003130 <TIM_SlaveTimer_SetConfig>
 8003212:	b130      	cbz	r0, 8003222 <HAL_TIM_SlaveConfigSynchro+0x2e>
 8003214:	2300      	movs	r3, #0
 8003216:	f884 503d 	strb.w	r5, [r4, #61]	; 0x3d
 800321a:	f884 303c 	strb.w	r3, [r4, #60]	; 0x3c
 800321e:	4628      	mov	r0, r5
 8003220:	bd38      	pop	{r3, r4, r5, pc}
 8003222:	6823      	ldr	r3, [r4, #0]
 8003224:	68da      	ldr	r2, [r3, #12]
 8003226:	f022 0240 	bic.w	r2, r2, #64	; 0x40
 800322a:	60da      	str	r2, [r3, #12]
 800322c:	68da      	ldr	r2, [r3, #12]
 800322e:	f422 4280 	bic.w	r2, r2, #16384	; 0x4000
 8003232:	60da      	str	r2, [r3, #12]
 8003234:	f884 503d 	strb.w	r5, [r4, #61]	; 0x3d
 8003238:	f884 003c 	strb.w	r0, [r4, #60]	; 0x3c
 800323c:	e7f0      	b.n	8003220 <HAL_TIM_SlaveConfigSynchro+0x2c>
 800323e:	4618      	mov	r0, r3
 8003240:	e7ee      	b.n	8003220 <HAL_TIM_SlaveConfigSynchro+0x2c>

08003242 <TIM_CCxChannelCmd>:
 8003242:	6a03      	ldr	r3, [r0, #32]
 8003244:	f001 011f 	and.w	r1, r1, #31
 8003248:	b510      	push	{r4, lr}
 800324a:	2401      	movs	r4, #1
 800324c:	408c      	lsls	r4, r1
 800324e:	ea23 0304 	bic.w	r3, r3, r4
 8003252:	6203      	str	r3, [r0, #32]
 8003254:	6a03      	ldr	r3, [r0, #32]
 8003256:	408a      	lsls	r2, r1
 8003258:	431a      	orrs	r2, r3
 800325a:	6202      	str	r2, [r0, #32]
 800325c:	bd10      	pop	{r4, pc}
	...

08003260 <HAL_TIM_IC_Start>:
 8003260:	b510      	push	{r4, lr}
 8003262:	4604      	mov	r4, r0
 8003264:	bb69      	cbnz	r1, 80032c2 <HAL_TIM_IC_Start+0x62>
 8003266:	f890 303e 	ldrb.w	r3, [r0, #62]	; 0x3e
 800326a:	b2d8      	uxtb	r0, r3
 800326c:	f894 3044 	ldrb.w	r3, [r4, #68]	; 0x44
 8003270:	2801      	cmp	r0, #1
 8003272:	b2db      	uxtb	r3, r3
 8003274:	d161      	bne.n	800333a <HAL_TIM_IC_Start+0xda>
 8003276:	2b01      	cmp	r3, #1
 8003278:	d160      	bne.n	800333c <HAL_TIM_IC_Start+0xdc>
 800327a:	2302      	movs	r3, #2
 800327c:	2900      	cmp	r1, #0
 800327e:	d13f      	bne.n	8003300 <HAL_TIM_IC_Start+0xa0>
 8003280:	f884 303e 	strb.w	r3, [r4, #62]	; 0x3e
 8003284:	f884 3044 	strb.w	r3, [r4, #68]	; 0x44
 8003288:	2201      	movs	r2, #1
 800328a:	6820      	ldr	r0, [r4, #0]
 800328c:	f7ff ffd9 	bl	8003242 <TIM_CCxChannelCmd>
 8003290:	6823      	ldr	r3, [r4, #0]
 8003292:	4a2b      	ldr	r2, [pc, #172]	; (8003340 <HAL_TIM_IC_Start+0xe0>)
 8003294:	4293      	cmp	r3, r2
 8003296:	d006      	beq.n	80032a6 <HAL_TIM_IC_Start+0x46>
 8003298:	f1b3 4f80 	cmp.w	r3, #1073741824	; 0x40000000
 800329c:	d003      	beq.n	80032a6 <HAL_TIM_IC_Start+0x46>
 800329e:	f502 52a0 	add.w	r2, r2, #5120	; 0x1400
 80032a2:	4293      	cmp	r3, r2
 80032a4:	d107      	bne.n	80032b6 <HAL_TIM_IC_Start+0x56>
 80032a6:	6899      	ldr	r1, [r3, #8]
 80032a8:	4a26      	ldr	r2, [pc, #152]	; (8003344 <HAL_TIM_IC_Start+0xe4>)
 80032aa:	400a      	ands	r2, r1
 80032ac:	2a06      	cmp	r2, #6
 80032ae:	d006      	beq.n	80032be <HAL_TIM_IC_Start+0x5e>
 80032b0:	f5b2 3f80 	cmp.w	r2, #65536	; 0x10000
 80032b4:	d003      	beq.n	80032be <HAL_TIM_IC_Start+0x5e>
 80032b6:	681a      	ldr	r2, [r3, #0]
 80032b8:	f042 0201 	orr.w	r2, r2, #1
 80032bc:	601a      	str	r2, [r3, #0]
 80032be:	2000      	movs	r0, #0
 80032c0:	e03c      	b.n	800333c <HAL_TIM_IC_Start+0xdc>
 80032c2:	2904      	cmp	r1, #4
 80032c4:	d105      	bne.n	80032d2 <HAL_TIM_IC_Start+0x72>
 80032c6:	f890 303f 	ldrb.w	r3, [r0, #63]	; 0x3f
 80032ca:	b2d8      	uxtb	r0, r3
 80032cc:	f894 3045 	ldrb.w	r3, [r4, #69]	; 0x45
 80032d0:	e7ce      	b.n	8003270 <HAL_TIM_IC_Start+0x10>
 80032d2:	2908      	cmp	r1, #8
 80032d4:	d105      	bne.n	80032e2 <HAL_TIM_IC_Start+0x82>
 80032d6:	f890 3040 	ldrb.w	r3, [r0, #64]	; 0x40
 80032da:	b2d8      	uxtb	r0, r3
 80032dc:	f894 3046 	ldrb.w	r3, [r4, #70]	; 0x46
 80032e0:	e7c6      	b.n	8003270 <HAL_TIM_IC_Start+0x10>
 80032e2:	290c      	cmp	r1, #12
 80032e4:	d105      	bne.n	80032f2 <HAL_TIM_IC_Start+0x92>
 80032e6:	f890 3041 	ldrb.w	r3, [r0, #65]	; 0x41
 80032ea:	b2d8      	uxtb	r0, r3
 80032ec:	f894 3047 	ldrb.w	r3, [r4, #71]	; 0x47
 80032f0:	e7be      	b.n	8003270 <HAL_TIM_IC_Start+0x10>
 80032f2:	2910      	cmp	r1, #16
 80032f4:	bf0c      	ite	eq
 80032f6:	f890 3042 	ldrbeq.w	r3, [r0, #66]	; 0x42
 80032fa:	f890 3043 	ldrbne.w	r3, [r0, #67]	; 0x43
 80032fe:	e7f4      	b.n	80032ea <HAL_TIM_IC_Start+0x8a>
 8003300:	2904      	cmp	r1, #4
 8003302:	d104      	bne.n	800330e <HAL_TIM_IC_Start+0xae>
 8003304:	f884 303f 	strb.w	r3, [r4, #63]	; 0x3f
 8003308:	f884 3045 	strb.w	r3, [r4, #69]	; 0x45
 800330c:	e7bc      	b.n	8003288 <HAL_TIM_IC_Start+0x28>
 800330e:	2908      	cmp	r1, #8
 8003310:	d104      	bne.n	800331c <HAL_TIM_IC_Start+0xbc>
 8003312:	f884 3040 	strb.w	r3, [r4, #64]	; 0x40
 8003316:	f884 3046 	strb.w	r3, [r4, #70]	; 0x46
 800331a:	e7b5      	b.n	8003288 <HAL_TIM_IC_Start+0x28>
 800331c:	290c      	cmp	r1, #12
 800331e:	d105      	bne.n	800332c <HAL_TIM_IC_Start+0xcc>
 8003320:	f884 3041 	strb.w	r3, [r4, #65]	; 0x41
 8003324:	2302      	movs	r3, #2
 8003326:	f884 3047 	strb.w	r3, [r4, #71]	; 0x47
 800332a:	e7ad      	b.n	8003288 <HAL_TIM_IC_Start+0x28>
 800332c:	2910      	cmp	r1, #16
 800332e:	bf0c      	ite	eq
 8003330:	f884 3042 	strbeq.w	r3, [r4, #66]	; 0x42
 8003334:	f884 3043 	strbne.w	r3, [r4, #67]	; 0x43
 8003338:	e7f4      	b.n	8003324 <HAL_TIM_IC_Start+0xc4>
 800333a:	2001      	movs	r0, #1
 800333c:	bd10      	pop	{r4, pc}
 800333e:	bf00      	nop
 8003340:	40012c00 	.word	0x40012c00
 8003344:	00010007 	.word	0x00010007

08003348 <HAL_TIM_IC_Start_IT>:
 8003348:	b510      	push	{r4, lr}
 800334a:	4604      	mov	r4, r0
 800334c:	2900      	cmp	r1, #0
 800334e:	d132      	bne.n	80033b6 <HAL_TIM_IC_Start_IT+0x6e>
 8003350:	f890 003e 	ldrb.w	r0, [r0, #62]	; 0x3e
 8003354:	f894 3044 	ldrb.w	r3, [r4, #68]	; 0x44
 8003358:	b2c0      	uxtb	r0, r0
 800335a:	2801      	cmp	r0, #1
 800335c:	b2db      	uxtb	r3, r3
 800335e:	d168      	bne.n	8003432 <HAL_TIM_IC_Start_IT+0xea>
 8003360:	2b01      	cmp	r3, #1
 8003362:	d127      	bne.n	80033b4 <HAL_TIM_IC_Start_IT+0x6c>
 8003364:	2302      	movs	r3, #2
 8003366:	2900      	cmp	r1, #0
 8003368:	d144      	bne.n	80033f4 <HAL_TIM_IC_Start_IT+0xac>
 800336a:	6822      	ldr	r2, [r4, #0]
 800336c:	f884 303e 	strb.w	r3, [r4, #62]	; 0x3e
 8003370:	f884 3044 	strb.w	r3, [r4, #68]	; 0x44
 8003374:	68d3      	ldr	r3, [r2, #12]
 8003376:	f043 0302 	orr.w	r3, r3, #2
 800337a:	60d3      	str	r3, [r2, #12]
 800337c:	6820      	ldr	r0, [r4, #0]
 800337e:	2201      	movs	r2, #1
 8003380:	f7ff ff5f 	bl	8003242 <TIM_CCxChannelCmd>
 8003384:	6823      	ldr	r3, [r4, #0]
 8003386:	4a32      	ldr	r2, [pc, #200]	; (8003450 <HAL_TIM_IC_Start_IT+0x108>)
 8003388:	4293      	cmp	r3, r2
 800338a:	d006      	beq.n	800339a <HAL_TIM_IC_Start_IT+0x52>
 800338c:	f1b3 4f80 	cmp.w	r3, #1073741824	; 0x40000000
 8003390:	d003      	beq.n	800339a <HAL_TIM_IC_Start_IT+0x52>
 8003392:	f502 52a0 	add.w	r2, r2, #5120	; 0x1400
 8003396:	4293      	cmp	r3, r2
 8003398:	d107      	bne.n	80033aa <HAL_TIM_IC_Start_IT+0x62>
 800339a:	6899      	ldr	r1, [r3, #8]
 800339c:	4a2d      	ldr	r2, [pc, #180]	; (8003454 <HAL_TIM_IC_Start_IT+0x10c>)
 800339e:	400a      	ands	r2, r1
 80033a0:	2a06      	cmp	r2, #6
 80033a2:	d006      	beq.n	80033b2 <HAL_TIM_IC_Start_IT+0x6a>
 80033a4:	f5b2 3f80 	cmp.w	r2, #65536	; 0x10000
 80033a8:	d003      	beq.n	80033b2 <HAL_TIM_IC_Start_IT+0x6a>
 80033aa:	681a      	ldr	r2, [r3, #0]
 80033ac:	f042 0201 	orr.w	r2, r2, #1
 80033b0:	601a      	str	r2, [r3, #0]
 80033b2:	2000      	movs	r0, #0
 80033b4:	bd10      	pop	{r4, pc}
 80033b6:	2904      	cmp	r1, #4
 80033b8:	d105      	bne.n	80033c6 <HAL_TIM_IC_Start_IT+0x7e>
 80033ba:	f890 003f 	ldrb.w	r0, [r0, #63]	; 0x3f
 80033be:	f894 3045 	ldrb.w	r3, [r4, #69]	; 0x45
 80033c2:	b2c0      	uxtb	r0, r0
 80033c4:	e7c9      	b.n	800335a <HAL_TIM_IC_Start_IT+0x12>
 80033c6:	2908      	cmp	r1, #8
 80033c8:	d105      	bne.n	80033d6 <HAL_TIM_IC_Start_IT+0x8e>
 80033ca:	f890 0040 	ldrb.w	r0, [r0, #64]	; 0x40
 80033ce:	f894 3046 	ldrb.w	r3, [r4, #70]	; 0x46
 80033d2:	b2c0      	uxtb	r0, r0
 80033d4:	e7c1      	b.n	800335a <HAL_TIM_IC_Start_IT+0x12>
 80033d6:	290c      	cmp	r1, #12
 80033d8:	d105      	bne.n	80033e6 <HAL_TIM_IC_Start_IT+0x9e>
 80033da:	f890 0041 	ldrb.w	r0, [r0, #65]	; 0x41
 80033de:	f894 3047 	ldrb.w	r3, [r4, #71]	; 0x47
 80033e2:	b2c0      	uxtb	r0, r0
 80033e4:	e7b9      	b.n	800335a <HAL_TIM_IC_Start_IT+0x12>
 80033e6:	2910      	cmp	r1, #16
 80033e8:	bf0c      	ite	eq
 80033ea:	f890 0042 	ldrbeq.w	r0, [r0, #66]	; 0x42
 80033ee:	f894 0043 	ldrbne.w	r0, [r4, #67]	; 0x43
 80033f2:	e7f4      	b.n	80033de <HAL_TIM_IC_Start_IT+0x96>
 80033f4:	2904      	cmp	r1, #4
 80033f6:	d108      	bne.n	800340a <HAL_TIM_IC_Start_IT+0xc2>
 80033f8:	6822      	ldr	r2, [r4, #0]
 80033fa:	f884 303f 	strb.w	r3, [r4, #63]	; 0x3f
 80033fe:	f884 3045 	strb.w	r3, [r4, #69]	; 0x45
 8003402:	68d3      	ldr	r3, [r2, #12]
 8003404:	f043 0304 	orr.w	r3, r3, #4
 8003408:	e7b7      	b.n	800337a <HAL_TIM_IC_Start_IT+0x32>
 800340a:	2908      	cmp	r1, #8
 800340c:	d108      	bne.n	8003420 <HAL_TIM_IC_Start_IT+0xd8>
 800340e:	6822      	ldr	r2, [r4, #0]
 8003410:	f884 3040 	strb.w	r3, [r4, #64]	; 0x40
 8003414:	f884 3046 	strb.w	r3, [r4, #70]	; 0x46
 8003418:	68d3      	ldr	r3, [r2, #12]
 800341a:	f043 0308 	orr.w	r3, r3, #8
 800341e:	e7ac      	b.n	800337a <HAL_TIM_IC_Start_IT+0x32>
 8003420:	290c      	cmp	r1, #12
 8003422:	d108      	bne.n	8003436 <HAL_TIM_IC_Start_IT+0xee>
 8003424:	f884 3041 	strb.w	r3, [r4, #65]	; 0x41
 8003428:	2302      	movs	r3, #2
 800342a:	290c      	cmp	r1, #12
 800342c:	f884 3047 	strb.w	r3, [r4, #71]	; 0x47
 8003430:	d008      	beq.n	8003444 <HAL_TIM_IC_Start_IT+0xfc>
 8003432:	2001      	movs	r0, #1
 8003434:	e7be      	b.n	80033b4 <HAL_TIM_IC_Start_IT+0x6c>
 8003436:	2910      	cmp	r1, #16
 8003438:	bf0c      	ite	eq
 800343a:	f884 3042 	strbeq.w	r3, [r4, #66]	; 0x42
 800343e:	f884 3043 	strbne.w	r3, [r4, #67]	; 0x43
 8003442:	e7f1      	b.n	8003428 <HAL_TIM_IC_Start_IT+0xe0>
 8003444:	6822      	ldr	r2, [r4, #0]
 8003446:	68d3      	ldr	r3, [r2, #12]
 8003448:	f043 0310 	orr.w	r3, r3, #16
 800344c:	e795      	b.n	800337a <HAL_TIM_IC_Start_IT+0x32>
 800344e:	bf00      	nop
 8003450:	40012c00 	.word	0x40012c00
 8003454:	00010007 	.word	0x00010007

08003458 <HAL_TIMEx_MasterConfigSynchronization>:
 8003458:	b570      	push	{r4, r5, r6, lr}
 800345a:	f890 303c 	ldrb.w	r3, [r0, #60]	; 0x3c
 800345e:	2b01      	cmp	r3, #1
 8003460:	f04f 0302 	mov.w	r3, #2
 8003464:	d023      	beq.n	80034ae <HAL_TIMEx_MasterConfigSynchronization+0x56>
 8003466:	6802      	ldr	r2, [r0, #0]
 8003468:	4d12      	ldr	r5, [pc, #72]	; (80034b4 <HAL_TIMEx_MasterConfigSynchronization+0x5c>)
 800346a:	f880 303d 	strb.w	r3, [r0, #61]	; 0x3d
 800346e:	6853      	ldr	r3, [r2, #4]
 8003470:	6894      	ldr	r4, [r2, #8]
 8003472:	42aa      	cmp	r2, r5
 8003474:	bf02      	ittt	eq
 8003476:	684e      	ldreq	r6, [r1, #4]
 8003478:	f423 0370 	biceq.w	r3, r3, #15728640	; 0xf00000
 800347c:	4333      	orreq	r3, r6
 800347e:	680e      	ldr	r6, [r1, #0]
 8003480:	f023 0370 	bic.w	r3, r3, #112	; 0x70
 8003484:	4333      	orrs	r3, r6
 8003486:	42aa      	cmp	r2, r5
 8003488:	6053      	str	r3, [r2, #4]
 800348a:	d005      	beq.n	8003498 <HAL_TIMEx_MasterConfigSynchronization+0x40>
 800348c:	f1b2 4f80 	cmp.w	r2, #1073741824	; 0x40000000
 8003490:	d002      	beq.n	8003498 <HAL_TIMEx_MasterConfigSynchronization+0x40>
 8003492:	4b09      	ldr	r3, [pc, #36]	; (80034b8 <HAL_TIMEx_MasterConfigSynchronization+0x60>)
 8003494:	429a      	cmp	r2, r3
 8003496:	d104      	bne.n	80034a2 <HAL_TIMEx_MasterConfigSynchronization+0x4a>
 8003498:	6889      	ldr	r1, [r1, #8]
 800349a:	f024 0380 	bic.w	r3, r4, #128	; 0x80
 800349e:	430b      	orrs	r3, r1
 80034a0:	6093      	str	r3, [r2, #8]
 80034a2:	2301      	movs	r3, #1
 80034a4:	f880 303d 	strb.w	r3, [r0, #61]	; 0x3d
 80034a8:	2300      	movs	r3, #0
 80034aa:	f880 303c 	strb.w	r3, [r0, #60]	; 0x3c
 80034ae:	4618      	mov	r0, r3
 80034b0:	bd70      	pop	{r4, r5, r6, pc}
 80034b2:	bf00      	nop
 80034b4:	40012c00 	.word	0x40012c00
 80034b8:	40014000 	.word	0x40014000

080034bc <HAL_TIMEx_CommutCallback>:
 80034bc:	4770      	bx	lr

080034be <HAL_TIMEx_BreakCallback>:
 80034be:	4770      	bx	lr

080034c0 <HAL_TIMEx_Break2Callback>:
 80034c0:	4770      	bx	lr

080034c2 <UART_EndRxTransfer>:
 80034c2:	6802      	ldr	r2, [r0, #0]
 80034c4:	e852 3f00 	ldrex	r3, [r2]
 80034c8:	f423 7390 	bic.w	r3, r3, #288	; 0x120
 80034cc:	e842 3100 	strex	r1, r3, [r2]
 80034d0:	6802      	ldr	r2, [r0, #0]
 80034d2:	2900      	cmp	r1, #0
 80034d4:	d1f5      	bne.n	80034c2 <UART_EndRxTransfer>
 80034d6:	f102 0308 	add.w	r3, r2, #8
 80034da:	e853 3f00 	ldrex	r3, [r3]
 80034de:	f023 0301 	bic.w	r3, r3, #1
 80034e2:	f102 0c08 	add.w	ip, r2, #8
 80034e6:	e84c 3100 	strex	r1, r3, [ip]
 80034ea:	2900      	cmp	r1, #0
 80034ec:	d1f3      	bne.n	80034d6 <UART_EndRxTransfer+0x14>
 80034ee:	6e03      	ldr	r3, [r0, #96]	; 0x60
 80034f0:	2b01      	cmp	r3, #1
 80034f2:	d107      	bne.n	8003504 <UART_EndRxTransfer+0x42>
 80034f4:	e852 3f00 	ldrex	r3, [r2]
 80034f8:	f023 0310 	bic.w	r3, r3, #16
 80034fc:	e842 3100 	strex	r1, r3, [r2]
 8003500:	2900      	cmp	r1, #0
 8003502:	d1f7      	bne.n	80034f4 <UART_EndRxTransfer+0x32>
 8003504:	2320      	movs	r3, #32
 8003506:	67c3      	str	r3, [r0, #124]	; 0x7c
 8003508:	2300      	movs	r3, #0
 800350a:	6603      	str	r3, [r0, #96]	; 0x60
 800350c:	6643      	str	r3, [r0, #100]	; 0x64
 800350e:	4770      	bx	lr

08003510 <UART_TxISR_16BIT.part.0>:
 8003510:	6802      	ldr	r2, [r0, #0]
 8003512:	e852 3f00 	ldrex	r3, [r2]
 8003516:	f023 0380 	bic.w	r3, r3, #128	; 0x80
 800351a:	e842 3100 	strex	r1, r3, [r2]
 800351e:	6802      	ldr	r2, [r0, #0]
 8003520:	2900      	cmp	r1, #0
 8003522:	d1f5      	bne.n	8003510 <UART_TxISR_16BIT.part.0>
 8003524:	e852 3f00 	ldrex	r3, [r2]
 8003528:	f043 0340 	orr.w	r3, r3, #64	; 0x40
 800352c:	e842 3100 	strex	r1, r3, [r2]
 8003530:	2900      	cmp	r1, #0
 8003532:	d1f7      	bne.n	8003524 <UART_TxISR_16BIT.part.0+0x14>
 8003534:	4770      	bx	lr

08003536 <UART_TxISR_8BIT>:
 8003536:	6f82      	ldr	r2, [r0, #120]	; 0x78
 8003538:	2a21      	cmp	r2, #33	; 0x21
 800353a:	4603      	mov	r3, r0
 800353c:	d111      	bne.n	8003562 <UART_TxISR_8BIT+0x2c>
 800353e:	f8b0 2052 	ldrh.w	r2, [r0, #82]	; 0x52
 8003542:	b292      	uxth	r2, r2
 8003544:	b90a      	cbnz	r2, 800354a <UART_TxISR_8BIT+0x14>
 8003546:	f7ff bfe3 	b.w	8003510 <UART_TxISR_16BIT.part.0>
 800354a:	6cc2      	ldr	r2, [r0, #76]	; 0x4c
 800354c:	6801      	ldr	r1, [r0, #0]
 800354e:	f812 0b01 	ldrb.w	r0, [r2], #1
 8003552:	8508      	strh	r0, [r1, #40]	; 0x28
 8003554:	64da      	str	r2, [r3, #76]	; 0x4c
 8003556:	f8b3 2052 	ldrh.w	r2, [r3, #82]	; 0x52
 800355a:	3a01      	subs	r2, #1
 800355c:	b292      	uxth	r2, r2
 800355e:	f8a3 2052 	strh.w	r2, [r3, #82]	; 0x52
 8003562:	4770      	bx	lr

08003564 <UART_TxISR_16BIT>:
 8003564:	6f82      	ldr	r2, [r0, #120]	; 0x78
 8003566:	2a21      	cmp	r2, #33	; 0x21
 8003568:	4603      	mov	r3, r0
 800356a:	d113      	bne.n	8003594 <UART_TxISR_16BIT+0x30>
 800356c:	f8b0 2052 	ldrh.w	r2, [r0, #82]	; 0x52
 8003570:	b292      	uxth	r2, r2
 8003572:	b90a      	cbnz	r2, 8003578 <UART_TxISR_16BIT+0x14>
 8003574:	f7ff bfcc 	b.w	8003510 <UART_TxISR_16BIT.part.0>
 8003578:	6cda      	ldr	r2, [r3, #76]	; 0x4c
 800357a:	6800      	ldr	r0, [r0, #0]
 800357c:	f832 1b02 	ldrh.w	r1, [r2], #2
 8003580:	f3c1 0108 	ubfx	r1, r1, #0, #9
 8003584:	8501      	strh	r1, [r0, #40]	; 0x28
 8003586:	64da      	str	r2, [r3, #76]	; 0x4c
 8003588:	f8b3 2052 	ldrh.w	r2, [r3, #82]	; 0x52
 800358c:	3a01      	subs	r2, #1
 800358e:	b292      	uxth	r2, r2
 8003590:	f8a3 2052 	strh.w	r2, [r3, #82]	; 0x52
 8003594:	4770      	bx	lr
	...

08003598 <HAL_UART_Transmit_IT>:
 8003598:	6f83      	ldr	r3, [r0, #120]	; 0x78
 800359a:	2b20      	cmp	r3, #32
 800359c:	d12c      	bne.n	80035f8 <HAL_UART_Transmit_IT+0x60>
 800359e:	b349      	cbz	r1, 80035f4 <HAL_UART_Transmit_IT+0x5c>
 80035a0:	b342      	cbz	r2, 80035f4 <HAL_UART_Transmit_IT+0x5c>
 80035a2:	f890 3074 	ldrb.w	r3, [r0, #116]	; 0x74
 80035a6:	2b01      	cmp	r3, #1
 80035a8:	d026      	beq.n	80035f8 <HAL_UART_Transmit_IT+0x60>
 80035aa:	2300      	movs	r3, #0
 80035ac:	f8a0 2052 	strh.w	r2, [r0, #82]	; 0x52
 80035b0:	f8c0 3080 	str.w	r3, [r0, #128]	; 0x80
 80035b4:	2321      	movs	r3, #33	; 0x21
 80035b6:	6783      	str	r3, [r0, #120]	; 0x78
 80035b8:	6883      	ldr	r3, [r0, #8]
 80035ba:	64c1      	str	r1, [r0, #76]	; 0x4c
 80035bc:	f5b3 5f80 	cmp.w	r3, #4096	; 0x1000
 80035c0:	f8a0 2050 	strh.w	r2, [r0, #80]	; 0x50
 80035c4:	d114      	bne.n	80035f0 <HAL_UART_Transmit_IT+0x58>
 80035c6:	6901      	ldr	r1, [r0, #16]
 80035c8:	4b0c      	ldr	r3, [pc, #48]	; (80035fc <HAL_UART_Transmit_IT+0x64>)
 80035ca:	4a0d      	ldr	r2, [pc, #52]	; (8003600 <HAL_UART_Transmit_IT+0x68>)
 80035cc:	2900      	cmp	r1, #0
 80035ce:	bf08      	it	eq
 80035d0:	4613      	moveq	r3, r2
 80035d2:	6683      	str	r3, [r0, #104]	; 0x68
 80035d4:	2300      	movs	r3, #0
 80035d6:	f880 3074 	strb.w	r3, [r0, #116]	; 0x74
 80035da:	6801      	ldr	r1, [r0, #0]
 80035dc:	e851 2f00 	ldrex	r2, [r1]
 80035e0:	f042 0280 	orr.w	r2, r2, #128	; 0x80
 80035e4:	e841 2300 	strex	r3, r2, [r1]
 80035e8:	2b00      	cmp	r3, #0
 80035ea:	d1f6      	bne.n	80035da <HAL_UART_Transmit_IT+0x42>
 80035ec:	4618      	mov	r0, r3
 80035ee:	4770      	bx	lr
 80035f0:	4b02      	ldr	r3, [pc, #8]	; (80035fc <HAL_UART_Transmit_IT+0x64>)
 80035f2:	e7ee      	b.n	80035d2 <HAL_UART_Transmit_IT+0x3a>
 80035f4:	2001      	movs	r0, #1
 80035f6:	4770      	bx	lr
 80035f8:	2002      	movs	r0, #2
 80035fa:	4770      	bx	lr
 80035fc:	08003537 	.word	0x08003537
 8003600:	08003565 	.word	0x08003565

08003604 <HAL_UART_ErrorCallback>:
 8003604:	4770      	bx	lr

08003606 <UART_DMAAbortOnError>:
 8003606:	b508      	push	{r3, lr}
 8003608:	6a80      	ldr	r0, [r0, #40]	; 0x28
 800360a:	2300      	movs	r3, #0
 800360c:	f8a0 305a 	strh.w	r3, [r0, #90]	; 0x5a
 8003610:	f8a0 3052 	strh.w	r3, [r0, #82]	; 0x52
 8003614:	f7ff fff6 	bl	8003604 <HAL_UART_ErrorCallback>
 8003618:	bd08      	pop	{r3, pc}

0800361a <HAL_UART_AbortTransmitCpltCallback>:
 800361a:	4770      	bx	lr

0800361c <HAL_UART_AbortTransmit_IT>:
 800361c:	b510      	push	{r4, lr}
 800361e:	4604      	mov	r4, r0
 8003620:	6822      	ldr	r2, [r4, #0]
 8003622:	e852 3f00 	ldrex	r3, [r2]
 8003626:	f023 03c0 	bic.w	r3, r3, #192	; 0xc0
 800362a:	e842 3100 	strex	r1, r3, [r2]
 800362e:	6822      	ldr	r2, [r4, #0]
 8003630:	2900      	cmp	r1, #0
 8003632:	d1f5      	bne.n	8003620 <HAL_UART_AbortTransmit_IT+0x4>
 8003634:	6893      	ldr	r3, [r2, #8]
 8003636:	f013 0380 	ands.w	r3, r3, #128	; 0x80
 800363a:	d020      	beq.n	800367e <HAL_UART_AbortTransmit_IT+0x62>
 800363c:	f102 0308 	add.w	r3, r2, #8
 8003640:	e853 3f00 	ldrex	r3, [r3]
 8003644:	f023 0380 	bic.w	r3, r3, #128	; 0x80
 8003648:	f102 0008 	add.w	r0, r2, #8
 800364c:	e840 3100 	strex	r1, r3, [r0]
 8003650:	2900      	cmp	r1, #0
 8003652:	d1f3      	bne.n	800363c <HAL_UART_AbortTransmit_IT+0x20>
 8003654:	6ee0      	ldr	r0, [r4, #108]	; 0x6c
 8003656:	b148      	cbz	r0, 800366c <HAL_UART_AbortTransmit_IT+0x50>
 8003658:	4b0b      	ldr	r3, [pc, #44]	; (8003688 <HAL_UART_AbortTransmit_IT+0x6c>)
 800365a:	6383      	str	r3, [r0, #56]	; 0x38
 800365c:	f7fe f916 	bl	800188c <HAL_DMA_Abort_IT>
 8003660:	b110      	cbz	r0, 8003668 <HAL_UART_AbortTransmit_IT+0x4c>
 8003662:	6ee0      	ldr	r0, [r4, #108]	; 0x6c
 8003664:	6b83      	ldr	r3, [r0, #56]	; 0x38
 8003666:	4798      	blx	r3
 8003668:	2000      	movs	r0, #0
 800366a:	bd10      	pop	{r4, pc}
 800366c:	f8a4 0052 	strh.w	r0, [r4, #82]	; 0x52
 8003670:	66a0      	str	r0, [r4, #104]	; 0x68
 8003672:	2320      	movs	r3, #32
 8003674:	67a3      	str	r3, [r4, #120]	; 0x78
 8003676:	4620      	mov	r0, r4
 8003678:	f7ff ffcf 	bl	800361a <HAL_UART_AbortTransmitCpltCallback>
 800367c:	e7f4      	b.n	8003668 <HAL_UART_AbortTransmit_IT+0x4c>
 800367e:	f8a4 3052 	strh.w	r3, [r4, #82]	; 0x52
 8003682:	66a3      	str	r3, [r4, #104]	; 0x68
 8003684:	e7f5      	b.n	8003672 <HAL_UART_AbortTransmit_IT+0x56>
 8003686:	bf00      	nop
 8003688:	0800368d 	.word	0x0800368d

0800368c <UART_DMATxOnlyAbortCallback>:
 800368c:	b508      	push	{r3, lr}
 800368e:	6a80      	ldr	r0, [r0, #40]	; 0x28
 8003690:	2300      	movs	r3, #0
 8003692:	f8a0 3052 	strh.w	r3, [r0, #82]	; 0x52
 8003696:	2320      	movs	r3, #32
 8003698:	6783      	str	r3, [r0, #120]	; 0x78
 800369a:	f7ff ffbe 	bl	800361a <HAL_UART_AbortTransmitCpltCallback>
 800369e:	bd08      	pop	{r3, pc}

080036a0 <HAL_UART_AbortReceiveCpltCallback>:
 80036a0:	4770      	bx	lr
	...

080036a4 <HAL_UART_AbortReceive_IT>:
 80036a4:	b510      	push	{r4, lr}
 80036a6:	4604      	mov	r4, r0
 80036a8:	6822      	ldr	r2, [r4, #0]
 80036aa:	e852 3f00 	ldrex	r3, [r2]
 80036ae:	f423 7390 	bic.w	r3, r3, #288	; 0x120
 80036b2:	e842 3100 	strex	r1, r3, [r2]
 80036b6:	6823      	ldr	r3, [r4, #0]
 80036b8:	2900      	cmp	r1, #0
 80036ba:	d1f5      	bne.n	80036a8 <HAL_UART_AbortReceive_IT+0x4>
 80036bc:	f103 0208 	add.w	r2, r3, #8
 80036c0:	e852 2f00 	ldrex	r2, [r2]
 80036c4:	f022 0201 	bic.w	r2, r2, #1
 80036c8:	f103 0008 	add.w	r0, r3, #8
 80036cc:	e840 2100 	strex	r1, r2, [r0]
 80036d0:	2900      	cmp	r1, #0
 80036d2:	d1f3      	bne.n	80036bc <HAL_UART_AbortReceive_IT+0x18>
 80036d4:	6e22      	ldr	r2, [r4, #96]	; 0x60
 80036d6:	2a01      	cmp	r2, #1
 80036d8:	d107      	bne.n	80036ea <HAL_UART_AbortReceive_IT+0x46>
 80036da:	e853 2f00 	ldrex	r2, [r3]
 80036de:	f022 0210 	bic.w	r2, r2, #16
 80036e2:	e843 2100 	strex	r1, r2, [r3]
 80036e6:	2900      	cmp	r1, #0
 80036e8:	d1f7      	bne.n	80036da <HAL_UART_AbortReceive_IT+0x36>
 80036ea:	689a      	ldr	r2, [r3, #8]
 80036ec:	f012 0240 	ands.w	r2, r2, #64	; 0x40
 80036f0:	d028      	beq.n	8003744 <HAL_UART_AbortReceive_IT+0xa0>
 80036f2:	f103 0208 	add.w	r2, r3, #8
 80036f6:	e852 2f00 	ldrex	r2, [r2]
 80036fa:	f022 0240 	bic.w	r2, r2, #64	; 0x40
 80036fe:	f103 0008 	add.w	r0, r3, #8
 8003702:	e840 2100 	strex	r1, r2, [r0]
 8003706:	2900      	cmp	r1, #0
 8003708:	d1f3      	bne.n	80036f2 <HAL_UART_AbortReceive_IT+0x4e>
 800370a:	6f20      	ldr	r0, [r4, #112]	; 0x70
 800370c:	b148      	cbz	r0, 8003722 <HAL_UART_AbortReceive_IT+0x7e>
 800370e:	4b12      	ldr	r3, [pc, #72]	; (8003758 <HAL_UART_AbortReceive_IT+0xb4>)
 8003710:	6383      	str	r3, [r0, #56]	; 0x38
 8003712:	f7fe f8bb 	bl	800188c <HAL_DMA_Abort_IT>
 8003716:	b110      	cbz	r0, 800371e <HAL_UART_AbortReceive_IT+0x7a>
 8003718:	6f20      	ldr	r0, [r4, #112]	; 0x70
 800371a:	6b83      	ldr	r3, [r0, #56]	; 0x38
 800371c:	4798      	blx	r3
 800371e:	2000      	movs	r0, #0
 8003720:	bd10      	pop	{r4, pc}
 8003722:	220f      	movs	r2, #15
 8003724:	f8a4 005a 	strh.w	r0, [r4, #90]	; 0x5a
 8003728:	6560      	str	r0, [r4, #84]	; 0x54
 800372a:	621a      	str	r2, [r3, #32]
 800372c:	8b1a      	ldrh	r2, [r3, #24]
 800372e:	b292      	uxth	r2, r2
 8003730:	f042 0208 	orr.w	r2, r2, #8
 8003734:	831a      	strh	r2, [r3, #24]
 8003736:	2320      	movs	r3, #32
 8003738:	67e3      	str	r3, [r4, #124]	; 0x7c
 800373a:	6620      	str	r0, [r4, #96]	; 0x60
 800373c:	4620      	mov	r0, r4
 800373e:	f7ff ffaf 	bl	80036a0 <HAL_UART_AbortReceiveCpltCallback>
 8003742:	e7ec      	b.n	800371e <HAL_UART_AbortReceive_IT+0x7a>
 8003744:	210f      	movs	r1, #15
 8003746:	f8a4 205a 	strh.w	r2, [r4, #90]	; 0x5a
 800374a:	6562      	str	r2, [r4, #84]	; 0x54
 800374c:	6219      	str	r1, [r3, #32]
 800374e:	2320      	movs	r3, #32
 8003750:	67e3      	str	r3, [r4, #124]	; 0x7c
 8003752:	6622      	str	r2, [r4, #96]	; 0x60
 8003754:	e7f2      	b.n	800373c <HAL_UART_AbortReceive_IT+0x98>
 8003756:	bf00      	nop
 8003758:	0800375d 	.word	0x0800375d

0800375c <UART_DMARxOnlyAbortCallback>:
 800375c:	6a80      	ldr	r0, [r0, #40]	; 0x28
 800375e:	6802      	ldr	r2, [r0, #0]
 8003760:	b508      	push	{r3, lr}
 8003762:	2100      	movs	r1, #0
 8003764:	230f      	movs	r3, #15
 8003766:	f8a0 105a 	strh.w	r1, [r0, #90]	; 0x5a
 800376a:	6213      	str	r3, [r2, #32]
 800376c:	8b13      	ldrh	r3, [r2, #24]
 800376e:	b29b      	uxth	r3, r3
 8003770:	f043 0308 	orr.w	r3, r3, #8
 8003774:	8313      	strh	r3, [r2, #24]
 8003776:	2320      	movs	r3, #32
 8003778:	67c3      	str	r3, [r0, #124]	; 0x7c
 800377a:	6601      	str	r1, [r0, #96]	; 0x60
 800377c:	f7ff ff90 	bl	80036a0 <HAL_UART_AbortReceiveCpltCallback>
 8003780:	bd08      	pop	{r3, pc}

08003782 <HAL_UARTEx_RxEventCallback>:
 8003782:	4770      	bx	lr

08003784 <HAL_UART_IRQHandler>:
 8003784:	6803      	ldr	r3, [r0, #0]
 8003786:	69da      	ldr	r2, [r3, #28]
 8003788:	6819      	ldr	r1, [r3, #0]
 800378a:	b570      	push	{r4, r5, r6, lr}
 800378c:	f640 060f 	movw	r6, #2063	; 0x80f
 8003790:	4232      	tst	r2, r6
 8003792:	689d      	ldr	r5, [r3, #8]
 8003794:	4604      	mov	r4, r0
 8003796:	d10b      	bne.n	80037b0 <HAL_UART_IRQHandler+0x2c>
 8003798:	0696      	lsls	r6, r2, #26
 800379a:	f140 8088 	bpl.w	80038ae <HAL_UART_IRQHandler+0x12a>
 800379e:	068e      	lsls	r6, r1, #26
 80037a0:	f140 8085 	bpl.w	80038ae <HAL_UART_IRQHandler+0x12a>
 80037a4:	6e43      	ldr	r3, [r0, #100]	; 0x64
 80037a6:	2b00      	cmp	r3, #0
 80037a8:	d07b      	beq.n	80038a2 <HAL_UART_IRQHandler+0x11e>
 80037aa:	e8bd 4070 	ldmia.w	sp!, {r4, r5, r6, lr}
 80037ae:	4718      	bx	r3
 80037b0:	4e95      	ldr	r6, [pc, #596]	; (8003a08 <HAL_UART_IRQHandler+0x284>)
 80037b2:	f005 0001 	and.w	r0, r5, #1
 80037b6:	400e      	ands	r6, r1
 80037b8:	4306      	orrs	r6, r0
 80037ba:	d078      	beq.n	80038ae <HAL_UART_IRQHandler+0x12a>
 80037bc:	07d5      	lsls	r5, r2, #31
 80037be:	d509      	bpl.n	80037d4 <HAL_UART_IRQHandler+0x50>
 80037c0:	05ce      	lsls	r6, r1, #23
 80037c2:	d507      	bpl.n	80037d4 <HAL_UART_IRQHandler+0x50>
 80037c4:	2501      	movs	r5, #1
 80037c6:	621d      	str	r5, [r3, #32]
 80037c8:	f8d4 5080 	ldr.w	r5, [r4, #128]	; 0x80
 80037cc:	f045 0501 	orr.w	r5, r5, #1
 80037d0:	f8c4 5080 	str.w	r5, [r4, #128]	; 0x80
 80037d4:	0795      	lsls	r5, r2, #30
 80037d6:	d508      	bpl.n	80037ea <HAL_UART_IRQHandler+0x66>
 80037d8:	b138      	cbz	r0, 80037ea <HAL_UART_IRQHandler+0x66>
 80037da:	2502      	movs	r5, #2
 80037dc:	621d      	str	r5, [r3, #32]
 80037de:	f8d4 5080 	ldr.w	r5, [r4, #128]	; 0x80
 80037e2:	f045 0504 	orr.w	r5, r5, #4
 80037e6:	f8c4 5080 	str.w	r5, [r4, #128]	; 0x80
 80037ea:	0756      	lsls	r6, r2, #29
 80037ec:	d508      	bpl.n	8003800 <HAL_UART_IRQHandler+0x7c>
 80037ee:	b138      	cbz	r0, 8003800 <HAL_UART_IRQHandler+0x7c>
 80037f0:	2504      	movs	r5, #4
 80037f2:	621d      	str	r5, [r3, #32]
 80037f4:	f8d4 5080 	ldr.w	r5, [r4, #128]	; 0x80
 80037f8:	f045 0502 	orr.w	r5, r5, #2
 80037fc:	f8c4 5080 	str.w	r5, [r4, #128]	; 0x80
 8003800:	0715      	lsls	r5, r2, #28
 8003802:	d50b      	bpl.n	800381c <HAL_UART_IRQHandler+0x98>
 8003804:	f001 0520 	and.w	r5, r1, #32
 8003808:	4328      	orrs	r0, r5
 800380a:	d007      	beq.n	800381c <HAL_UART_IRQHandler+0x98>
 800380c:	2008      	movs	r0, #8
 800380e:	6218      	str	r0, [r3, #32]
 8003810:	f8d4 0080 	ldr.w	r0, [r4, #128]	; 0x80
 8003814:	f040 0008 	orr.w	r0, r0, #8
 8003818:	f8c4 0080 	str.w	r0, [r4, #128]	; 0x80
 800381c:	0516      	lsls	r6, r2, #20
 800381e:	d50a      	bpl.n	8003836 <HAL_UART_IRQHandler+0xb2>
 8003820:	014d      	lsls	r5, r1, #5
 8003822:	d508      	bpl.n	8003836 <HAL_UART_IRQHandler+0xb2>
 8003824:	f44f 6000 	mov.w	r0, #2048	; 0x800
 8003828:	6218      	str	r0, [r3, #32]
 800382a:	f8d4 3080 	ldr.w	r3, [r4, #128]	; 0x80
 800382e:	f043 0320 	orr.w	r3, r3, #32
 8003832:	f8c4 3080 	str.w	r3, [r4, #128]	; 0x80
 8003836:	f8d4 3080 	ldr.w	r3, [r4, #128]	; 0x80
 800383a:	2b00      	cmp	r3, #0
 800383c:	d031      	beq.n	80038a2 <HAL_UART_IRQHandler+0x11e>
 800383e:	0690      	lsls	r0, r2, #26
 8003840:	d505      	bpl.n	800384e <HAL_UART_IRQHandler+0xca>
 8003842:	068a      	lsls	r2, r1, #26
 8003844:	d503      	bpl.n	800384e <HAL_UART_IRQHandler+0xca>
 8003846:	6e63      	ldr	r3, [r4, #100]	; 0x64
 8003848:	b10b      	cbz	r3, 800384e <HAL_UART_IRQHandler+0xca>
 800384a:	4620      	mov	r0, r4
 800384c:	4798      	blx	r3
 800384e:	6823      	ldr	r3, [r4, #0]
 8003850:	f8d4 5080 	ldr.w	r5, [r4, #128]	; 0x80
 8003854:	689b      	ldr	r3, [r3, #8]
 8003856:	f005 0528 	and.w	r5, r5, #40	; 0x28
 800385a:	f003 0340 	and.w	r3, r3, #64	; 0x40
 800385e:	431d      	orrs	r5, r3
 8003860:	4620      	mov	r0, r4
 8003862:	d01f      	beq.n	80038a4 <HAL_UART_IRQHandler+0x120>
 8003864:	f7ff fe2d 	bl	80034c2 <UART_EndRxTransfer>
 8003868:	6822      	ldr	r2, [r4, #0]
 800386a:	6893      	ldr	r3, [r2, #8]
 800386c:	065b      	lsls	r3, r3, #25
 800386e:	d515      	bpl.n	800389c <HAL_UART_IRQHandler+0x118>
 8003870:	f102 0308 	add.w	r3, r2, #8
 8003874:	e853 3f00 	ldrex	r3, [r3]
 8003878:	f023 0340 	bic.w	r3, r3, #64	; 0x40
 800387c:	f102 0008 	add.w	r0, r2, #8
 8003880:	e840 3100 	strex	r1, r3, [r0]
 8003884:	2900      	cmp	r1, #0
 8003886:	d1f3      	bne.n	8003870 <HAL_UART_IRQHandler+0xec>
 8003888:	6f20      	ldr	r0, [r4, #112]	; 0x70
 800388a:	b138      	cbz	r0, 800389c <HAL_UART_IRQHandler+0x118>
 800388c:	4b5f      	ldr	r3, [pc, #380]	; (8003a0c <HAL_UART_IRQHandler+0x288>)
 800388e:	6383      	str	r3, [r0, #56]	; 0x38
 8003890:	f7fd fffc 	bl	800188c <HAL_DMA_Abort_IT>
 8003894:	b128      	cbz	r0, 80038a2 <HAL_UART_IRQHandler+0x11e>
 8003896:	6f20      	ldr	r0, [r4, #112]	; 0x70
 8003898:	6b83      	ldr	r3, [r0, #56]	; 0x38
 800389a:	e786      	b.n	80037aa <HAL_UART_IRQHandler+0x26>
 800389c:	4620      	mov	r0, r4
 800389e:	f7ff feb1 	bl	8003604 <HAL_UART_ErrorCallback>
 80038a2:	bd70      	pop	{r4, r5, r6, pc}
 80038a4:	f7ff feae 	bl	8003604 <HAL_UART_ErrorCallback>
 80038a8:	f8c4 5080 	str.w	r5, [r4, #128]	; 0x80
 80038ac:	e7f9      	b.n	80038a2 <HAL_UART_IRQHandler+0x11e>
 80038ae:	6e20      	ldr	r0, [r4, #96]	; 0x60
 80038b0:	2801      	cmp	r0, #1
 80038b2:	d17e      	bne.n	80039b2 <HAL_UART_IRQHandler+0x22e>
 80038b4:	06d6      	lsls	r6, r2, #27
 80038b6:	d57c      	bpl.n	80039b2 <HAL_UART_IRQHandler+0x22e>
 80038b8:	06c8      	lsls	r0, r1, #27
 80038ba:	d57a      	bpl.n	80039b2 <HAL_UART_IRQHandler+0x22e>
 80038bc:	2210      	movs	r2, #16
 80038be:	621a      	str	r2, [r3, #32]
 80038c0:	689a      	ldr	r2, [r3, #8]
 80038c2:	0651      	lsls	r1, r2, #25
 80038c4:	d546      	bpl.n	8003954 <HAL_UART_IRQHandler+0x1d0>
 80038c6:	6f22      	ldr	r2, [r4, #112]	; 0x70
 80038c8:	6811      	ldr	r1, [r2, #0]
 80038ca:	684a      	ldr	r2, [r1, #4]
 80038cc:	b292      	uxth	r2, r2
 80038ce:	2a00      	cmp	r2, #0
 80038d0:	d0e7      	beq.n	80038a2 <HAL_UART_IRQHandler+0x11e>
 80038d2:	f8b4 0058 	ldrh.w	r0, [r4, #88]	; 0x58
 80038d6:	4290      	cmp	r0, r2
 80038d8:	d9e3      	bls.n	80038a2 <HAL_UART_IRQHandler+0x11e>
 80038da:	f8a4 205a 	strh.w	r2, [r4, #90]	; 0x5a
 80038de:	680a      	ldr	r2, [r1, #0]
 80038e0:	0692      	lsls	r2, r2, #26
 80038e2:	d42d      	bmi.n	8003940 <HAL_UART_IRQHandler+0x1bc>
 80038e4:	e853 2f00 	ldrex	r2, [r3]
 80038e8:	f422 7280 	bic.w	r2, r2, #256	; 0x100
 80038ec:	e843 2100 	strex	r1, r2, [r3]
 80038f0:	2900      	cmp	r1, #0
 80038f2:	d1f7      	bne.n	80038e4 <HAL_UART_IRQHandler+0x160>
 80038f4:	f103 0208 	add.w	r2, r3, #8
 80038f8:	e852 2f00 	ldrex	r2, [r2]
 80038fc:	f022 0201 	bic.w	r2, r2, #1
 8003900:	f103 0008 	add.w	r0, r3, #8
 8003904:	e840 2100 	strex	r1, r2, [r0]
 8003908:	2900      	cmp	r1, #0
 800390a:	d1f3      	bne.n	80038f4 <HAL_UART_IRQHandler+0x170>
 800390c:	f103 0208 	add.w	r2, r3, #8
 8003910:	e852 2f00 	ldrex	r2, [r2]
 8003914:	f022 0240 	bic.w	r2, r2, #64	; 0x40
 8003918:	f103 0008 	add.w	r0, r3, #8
 800391c:	e840 2100 	strex	r1, r2, [r0]
 8003920:	2900      	cmp	r1, #0
 8003922:	d1f3      	bne.n	800390c <HAL_UART_IRQHandler+0x188>
 8003924:	2220      	movs	r2, #32
 8003926:	67e2      	str	r2, [r4, #124]	; 0x7c
 8003928:	6621      	str	r1, [r4, #96]	; 0x60
 800392a:	e853 2f00 	ldrex	r2, [r3]
 800392e:	f022 0210 	bic.w	r2, r2, #16
 8003932:	e843 2100 	strex	r1, r2, [r3]
 8003936:	2900      	cmp	r1, #0
 8003938:	d1f7      	bne.n	800392a <HAL_UART_IRQHandler+0x1a6>
 800393a:	6f20      	ldr	r0, [r4, #112]	; 0x70
 800393c:	f7fd ff83 	bl	8001846 <HAL_DMA_Abort>
 8003940:	f8b4 305a 	ldrh.w	r3, [r4, #90]	; 0x5a
 8003944:	f8b4 1058 	ldrh.w	r1, [r4, #88]	; 0x58
 8003948:	1ac9      	subs	r1, r1, r3
 800394a:	b289      	uxth	r1, r1
 800394c:	4620      	mov	r0, r4
 800394e:	f7ff ff18 	bl	8003782 <HAL_UARTEx_RxEventCallback>
 8003952:	e7a6      	b.n	80038a2 <HAL_UART_IRQHandler+0x11e>
 8003954:	f8b4 105a 	ldrh.w	r1, [r4, #90]	; 0x5a
 8003958:	b28a      	uxth	r2, r1
 800395a:	f8b4 105a 	ldrh.w	r1, [r4, #90]	; 0x5a
 800395e:	b289      	uxth	r1, r1
 8003960:	2900      	cmp	r1, #0
 8003962:	d09e      	beq.n	80038a2 <HAL_UART_IRQHandler+0x11e>
 8003964:	f8b4 1058 	ldrh.w	r1, [r4, #88]	; 0x58
 8003968:	1a89      	subs	r1, r1, r2
 800396a:	b289      	uxth	r1, r1
 800396c:	2900      	cmp	r1, #0
 800396e:	d098      	beq.n	80038a2 <HAL_UART_IRQHandler+0x11e>
 8003970:	e853 2f00 	ldrex	r2, [r3]
 8003974:	f422 7290 	bic.w	r2, r2, #288	; 0x120
 8003978:	e843 2000 	strex	r0, r2, [r3]
 800397c:	2800      	cmp	r0, #0
 800397e:	d1f7      	bne.n	8003970 <HAL_UART_IRQHandler+0x1ec>
 8003980:	f103 0208 	add.w	r2, r3, #8
 8003984:	e852 2f00 	ldrex	r2, [r2]
 8003988:	f022 0201 	bic.w	r2, r2, #1
 800398c:	f103 0508 	add.w	r5, r3, #8
 8003990:	e845 2000 	strex	r0, r2, [r5]
 8003994:	2800      	cmp	r0, #0
 8003996:	d1f3      	bne.n	8003980 <HAL_UART_IRQHandler+0x1fc>
 8003998:	2220      	movs	r2, #32
 800399a:	67e2      	str	r2, [r4, #124]	; 0x7c
 800399c:	6660      	str	r0, [r4, #100]	; 0x64
 800399e:	6620      	str	r0, [r4, #96]	; 0x60
 80039a0:	e853 2f00 	ldrex	r2, [r3]
 80039a4:	f022 0210 	bic.w	r2, r2, #16
 80039a8:	e843 2000 	strex	r0, r2, [r3]
 80039ac:	2800      	cmp	r0, #0
 80039ae:	d1f7      	bne.n	80039a0 <HAL_UART_IRQHandler+0x21c>
 80039b0:	e7cc      	b.n	800394c <HAL_UART_IRQHandler+0x1c8>
 80039b2:	02d6      	lsls	r6, r2, #11
 80039b4:	d509      	bpl.n	80039ca <HAL_UART_IRQHandler+0x246>
 80039b6:	0268      	lsls	r0, r5, #9
 80039b8:	d507      	bpl.n	80039ca <HAL_UART_IRQHandler+0x246>
 80039ba:	f44f 1280 	mov.w	r2, #1048576	; 0x100000
 80039be:	4620      	mov	r0, r4
 80039c0:	621a      	str	r2, [r3, #32]
 80039c2:	e8bd 4070 	ldmia.w	sp!, {r4, r5, r6, lr}
 80039c6:	f000 bb6f 	b.w	80040a8 <HAL_UARTEx_WakeupCallback>
 80039ca:	0616      	lsls	r6, r2, #24
 80039cc:	d507      	bpl.n	80039de <HAL_UART_IRQHandler+0x25a>
 80039ce:	060d      	lsls	r5, r1, #24
 80039d0:	d505      	bpl.n	80039de <HAL_UART_IRQHandler+0x25a>
 80039d2:	6ea3      	ldr	r3, [r4, #104]	; 0x68
 80039d4:	2b00      	cmp	r3, #0
 80039d6:	f43f af64 	beq.w	80038a2 <HAL_UART_IRQHandler+0x11e>
 80039da:	4620      	mov	r0, r4
 80039dc:	e6e5      	b.n	80037aa <HAL_UART_IRQHandler+0x26>
 80039de:	0650      	lsls	r0, r2, #25
 80039e0:	f57f af5f 	bpl.w	80038a2 <HAL_UART_IRQHandler+0x11e>
 80039e4:	064a      	lsls	r2, r1, #25
 80039e6:	f57f af5c 	bpl.w	80038a2 <HAL_UART_IRQHandler+0x11e>
 80039ea:	e853 2f00 	ldrex	r2, [r3]
 80039ee:	f022 0240 	bic.w	r2, r2, #64	; 0x40
 80039f2:	e843 2100 	strex	r1, r2, [r3]
 80039f6:	2900      	cmp	r1, #0
 80039f8:	d1f7      	bne.n	80039ea <HAL_UART_IRQHandler+0x266>
 80039fa:	2320      	movs	r3, #32
 80039fc:	67a3      	str	r3, [r4, #120]	; 0x78
 80039fe:	66a1      	str	r1, [r4, #104]	; 0x68
 8003a00:	4620      	mov	r0, r4
 8003a02:	f001 f909 	bl	8004c18 <HAL_UART_TxCpltCallback>
 8003a06:	e74c      	b.n	80038a2 <HAL_UART_IRQHandler+0x11e>
 8003a08:	04000120 	.word	0x04000120
 8003a0c:	08003607 	.word	0x08003607

08003a10 <UART_RxISR_8BIT>:
 8003a10:	b508      	push	{r3, lr}
 8003a12:	6fc3      	ldr	r3, [r0, #124]	; 0x7c
 8003a14:	6802      	ldr	r2, [r0, #0]
 8003a16:	2b22      	cmp	r3, #34	; 0x22
 8003a18:	d144      	bne.n	8003aa4 <UART_RxISR_8BIT+0x94>
 8003a1a:	8c93      	ldrh	r3, [r2, #36]	; 0x24
 8003a1c:	f8b0 105c 	ldrh.w	r1, [r0, #92]	; 0x5c
 8003a20:	6d42      	ldr	r2, [r0, #84]	; 0x54
 8003a22:	400b      	ands	r3, r1
 8003a24:	7013      	strb	r3, [r2, #0]
 8003a26:	6d43      	ldr	r3, [r0, #84]	; 0x54
 8003a28:	3301      	adds	r3, #1
 8003a2a:	6543      	str	r3, [r0, #84]	; 0x54
 8003a2c:	f8b0 305a 	ldrh.w	r3, [r0, #90]	; 0x5a
 8003a30:	3b01      	subs	r3, #1
 8003a32:	b29b      	uxth	r3, r3
 8003a34:	f8a0 305a 	strh.w	r3, [r0, #90]	; 0x5a
 8003a38:	f8b0 305a 	ldrh.w	r3, [r0, #90]	; 0x5a
 8003a3c:	b29b      	uxth	r3, r3
 8003a3e:	bb6b      	cbnz	r3, 8003a9c <UART_RxISR_8BIT+0x8c>
 8003a40:	6802      	ldr	r2, [r0, #0]
 8003a42:	e852 3f00 	ldrex	r3, [r2]
 8003a46:	f423 7390 	bic.w	r3, r3, #288	; 0x120
 8003a4a:	e842 3100 	strex	r1, r3, [r2]
 8003a4e:	6803      	ldr	r3, [r0, #0]
 8003a50:	2900      	cmp	r1, #0
 8003a52:	d1f5      	bne.n	8003a40 <UART_RxISR_8BIT+0x30>
 8003a54:	f103 0208 	add.w	r2, r3, #8
 8003a58:	e852 2f00 	ldrex	r2, [r2]
 8003a5c:	f022 0201 	bic.w	r2, r2, #1
 8003a60:	f103 0c08 	add.w	ip, r3, #8
 8003a64:	e84c 2100 	strex	r1, r2, [ip]
 8003a68:	2900      	cmp	r1, #0
 8003a6a:	d1f3      	bne.n	8003a54 <UART_RxISR_8BIT+0x44>
 8003a6c:	2220      	movs	r2, #32
 8003a6e:	67c2      	str	r2, [r0, #124]	; 0x7c
 8003a70:	6e02      	ldr	r2, [r0, #96]	; 0x60
 8003a72:	6641      	str	r1, [r0, #100]	; 0x64
 8003a74:	2a01      	cmp	r2, #1
 8003a76:	d112      	bne.n	8003a9e <UART_RxISR_8BIT+0x8e>
 8003a78:	6601      	str	r1, [r0, #96]	; 0x60
 8003a7a:	e853 2f00 	ldrex	r2, [r3]
 8003a7e:	f022 0210 	bic.w	r2, r2, #16
 8003a82:	e843 2100 	strex	r1, r2, [r3]
 8003a86:	2900      	cmp	r1, #0
 8003a88:	d1f7      	bne.n	8003a7a <UART_RxISR_8BIT+0x6a>
 8003a8a:	69da      	ldr	r2, [r3, #28]
 8003a8c:	f8b0 1058 	ldrh.w	r1, [r0, #88]	; 0x58
 8003a90:	06d2      	lsls	r2, r2, #27
 8003a92:	bf44      	itt	mi
 8003a94:	2210      	movmi	r2, #16
 8003a96:	621a      	strmi	r2, [r3, #32]
 8003a98:	f7ff fe73 	bl	8003782 <HAL_UARTEx_RxEventCallback>
 8003a9c:	bd08      	pop	{r3, pc}
 8003a9e:	f001 f8c9 	bl	8004c34 <HAL_UART_RxCpltCallback>
 8003aa2:	e7fb      	b.n	8003a9c <UART_RxISR_8BIT+0x8c>
 8003aa4:	8b13      	ldrh	r3, [r2, #24]
 8003aa6:	b29b      	uxth	r3, r3
 8003aa8:	f043 0308 	orr.w	r3, r3, #8
 8003aac:	8313      	strh	r3, [r2, #24]
 8003aae:	e7f5      	b.n	8003a9c <UART_RxISR_8BIT+0x8c>

08003ab0 <UART_RxISR_16BIT>:
 8003ab0:	6fc2      	ldr	r2, [r0, #124]	; 0x7c
 8003ab2:	2a22      	cmp	r2, #34	; 0x22
 8003ab4:	b508      	push	{r3, lr}
 8003ab6:	6803      	ldr	r3, [r0, #0]
 8003ab8:	d141      	bne.n	8003b3e <UART_RxISR_16BIT+0x8e>
 8003aba:	8c99      	ldrh	r1, [r3, #36]	; 0x24
 8003abc:	f8b0 205c 	ldrh.w	r2, [r0, #92]	; 0x5c
 8003ac0:	4011      	ands	r1, r2
 8003ac2:	6d42      	ldr	r2, [r0, #84]	; 0x54
 8003ac4:	f822 1b02 	strh.w	r1, [r2], #2
 8003ac8:	6542      	str	r2, [r0, #84]	; 0x54
 8003aca:	f8b0 205a 	ldrh.w	r2, [r0, #90]	; 0x5a
 8003ace:	3a01      	subs	r2, #1
 8003ad0:	b292      	uxth	r2, r2
 8003ad2:	f8a0 205a 	strh.w	r2, [r0, #90]	; 0x5a
 8003ad6:	f8b0 205a 	ldrh.w	r2, [r0, #90]	; 0x5a
 8003ada:	b292      	uxth	r2, r2
 8003adc:	bb5a      	cbnz	r2, 8003b36 <UART_RxISR_16BIT+0x86>
 8003ade:	e853 2f00 	ldrex	r2, [r3]
 8003ae2:	f422 7290 	bic.w	r2, r2, #288	; 0x120
 8003ae6:	e843 2100 	strex	r1, r2, [r3]
 8003aea:	2900      	cmp	r1, #0
 8003aec:	d1f7      	bne.n	8003ade <UART_RxISR_16BIT+0x2e>
 8003aee:	f103 0208 	add.w	r2, r3, #8
 8003af2:	e852 2f00 	ldrex	r2, [r2]
 8003af6:	f022 0201 	bic.w	r2, r2, #1
 8003afa:	f103 0c08 	add.w	ip, r3, #8
 8003afe:	e84c 2100 	strex	r1, r2, [ip]
 8003b02:	2900      	cmp	r1, #0
 8003b04:	d1f3      	bne.n	8003aee <UART_RxISR_16BIT+0x3e>
 8003b06:	2220      	movs	r2, #32
 8003b08:	67c2      	str	r2, [r0, #124]	; 0x7c
 8003b0a:	6e02      	ldr	r2, [r0, #96]	; 0x60
 8003b0c:	6641      	str	r1, [r0, #100]	; 0x64
 8003b0e:	2a01      	cmp	r2, #1
 8003b10:	d112      	bne.n	8003b38 <UART_RxISR_16BIT+0x88>
 8003b12:	6601      	str	r1, [r0, #96]	; 0x60
 8003b14:	e853 2f00 	ldrex	r2, [r3]
 8003b18:	f022 0210 	bic.w	r2, r2, #16
 8003b1c:	e843 2100 	strex	r1, r2, [r3]
 8003b20:	2900      	cmp	r1, #0
 8003b22:	d1f7      	bne.n	8003b14 <UART_RxISR_16BIT+0x64>
 8003b24:	69da      	ldr	r2, [r3, #28]
 8003b26:	f8b0 1058 	ldrh.w	r1, [r0, #88]	; 0x58
 8003b2a:	06d2      	lsls	r2, r2, #27
 8003b2c:	bf44      	itt	mi
 8003b2e:	2210      	movmi	r2, #16
 8003b30:	621a      	strmi	r2, [r3, #32]
 8003b32:	f7ff fe26 	bl	8003782 <HAL_UARTEx_RxEventCallback>
 8003b36:	bd08      	pop	{r3, pc}
 8003b38:	f001 f87c 	bl	8004c34 <HAL_UART_RxCpltCallback>
 8003b3c:	e7fb      	b.n	8003b36 <UART_RxISR_16BIT+0x86>
 8003b3e:	8b1a      	ldrh	r2, [r3, #24]
 8003b40:	b292      	uxth	r2, r2
 8003b42:	f042 0208 	orr.w	r2, r2, #8
 8003b46:	831a      	strh	r2, [r3, #24]
 8003b48:	e7f5      	b.n	8003b36 <UART_RxISR_16BIT+0x86>
	...

08003b4c <UART_SetConfig>:
 8003b4c:	b570      	push	{r4, r5, r6, lr}
 8003b4e:	4604      	mov	r4, r0
 8003b50:	6803      	ldr	r3, [r0, #0]
 8003b52:	6921      	ldr	r1, [r4, #16]
 8003b54:	68a2      	ldr	r2, [r4, #8]
 8003b56:	681d      	ldr	r5, [r3, #0]
 8003b58:	69c0      	ldr	r0, [r0, #28]
 8003b5a:	430a      	orrs	r2, r1
 8003b5c:	6961      	ldr	r1, [r4, #20]
 8003b5e:	430a      	orrs	r2, r1
 8003b60:	4979      	ldr	r1, [pc, #484]	; (8003d48 <UART_SetConfig+0x1fc>)
 8003b62:	4302      	orrs	r2, r0
 8003b64:	4029      	ands	r1, r5
 8003b66:	430a      	orrs	r2, r1
 8003b68:	601a      	str	r2, [r3, #0]
 8003b6a:	685a      	ldr	r2, [r3, #4]
 8003b6c:	68e1      	ldr	r1, [r4, #12]
 8003b6e:	f422 5240 	bic.w	r2, r2, #12288	; 0x3000
 8003b72:	430a      	orrs	r2, r1
 8003b74:	605a      	str	r2, [r3, #4]
 8003b76:	4a75      	ldr	r2, [pc, #468]	; (8003d4c <UART_SetConfig+0x200>)
 8003b78:	69a1      	ldr	r1, [r4, #24]
 8003b7a:	4293      	cmp	r3, r2
 8003b7c:	bf1c      	itt	ne
 8003b7e:	6a22      	ldrne	r2, [r4, #32]
 8003b80:	4311      	orrne	r1, r2
 8003b82:	689a      	ldr	r2, [r3, #8]
 8003b84:	f422 6230 	bic.w	r2, r2, #2816	; 0xb00
 8003b88:	430a      	orrs	r2, r1
 8003b8a:	609a      	str	r2, [r3, #8]
 8003b8c:	4a70      	ldr	r2, [pc, #448]	; (8003d50 <UART_SetConfig+0x204>)
 8003b8e:	4293      	cmp	r3, r2
 8003b90:	d117      	bne.n	8003bc2 <UART_SetConfig+0x76>
 8003b92:	4b70      	ldr	r3, [pc, #448]	; (8003d54 <UART_SetConfig+0x208>)
 8003b94:	f8d3 3088 	ldr.w	r3, [r3, #136]	; 0x88
 8003b98:	f003 0303 	and.w	r3, r3, #3
 8003b9c:	3b01      	subs	r3, #1
 8003b9e:	2b02      	cmp	r3, #2
 8003ba0:	f200 80b0 	bhi.w	8003d04 <UART_SetConfig+0x1b8>
 8003ba4:	4a6c      	ldr	r2, [pc, #432]	; (8003d58 <UART_SetConfig+0x20c>)
 8003ba6:	5cd3      	ldrb	r3, [r2, r3]
 8003ba8:	f5b0 4f00 	cmp.w	r0, #32768	; 0x8000
 8003bac:	f040 808b 	bne.w	8003cc6 <UART_SetConfig+0x17a>
 8003bb0:	2b08      	cmp	r3, #8
 8003bb2:	d822      	bhi.n	8003bfa <UART_SetConfig+0xae>
 8003bb4:	e8df f003 	tbb	[pc, r3]
 8003bb8:	2185a969 	.word	0x2185a969
 8003bbc:	21212182 	.word	0x21212182
 8003bc0:	6d          	.byte	0x6d
 8003bc1:	00          	.byte	0x00
 8003bc2:	4a66      	ldr	r2, [pc, #408]	; (8003d5c <UART_SetConfig+0x210>)
 8003bc4:	4293      	cmp	r3, r2
 8003bc6:	d106      	bne.n	8003bd6 <UART_SetConfig+0x8a>
 8003bc8:	4b62      	ldr	r3, [pc, #392]	; (8003d54 <UART_SetConfig+0x208>)
 8003bca:	4a65      	ldr	r2, [pc, #404]	; (8003d60 <UART_SetConfig+0x214>)
 8003bcc:	f8d3 3088 	ldr.w	r3, [r3, #136]	; 0x88
 8003bd0:	f003 030c 	and.w	r3, r3, #12
 8003bd4:	e7e7      	b.n	8003ba6 <UART_SetConfig+0x5a>
 8003bd6:	4a63      	ldr	r2, [pc, #396]	; (8003d64 <UART_SetConfig+0x218>)
 8003bd8:	4293      	cmp	r3, r2
 8003bda:	d118      	bne.n	8003c0e <UART_SetConfig+0xc2>
 8003bdc:	4b5d      	ldr	r3, [pc, #372]	; (8003d54 <UART_SetConfig+0x208>)
 8003bde:	f8d3 3088 	ldr.w	r3, [r3, #136]	; 0x88
 8003be2:	f003 0330 	and.w	r3, r3, #48	; 0x30
 8003be6:	2b20      	cmp	r3, #32
 8003be8:	f000 8087 	beq.w	8003cfa <UART_SetConfig+0x1ae>
 8003bec:	d807      	bhi.n	8003bfe <UART_SetConfig+0xb2>
 8003bee:	2b00      	cmp	r3, #0
 8003bf0:	f000 8094 	beq.w	8003d1c <UART_SetConfig+0x1d0>
 8003bf4:	2b10      	cmp	r3, #16
 8003bf6:	f000 808b 	beq.w	8003d10 <UART_SetConfig+0x1c4>
 8003bfa:	2001      	movs	r0, #1
 8003bfc:	e024      	b.n	8003c48 <UART_SetConfig+0xfc>
 8003bfe:	2b30      	cmp	r3, #48	; 0x30
 8003c00:	d1fb      	bne.n	8003bfa <UART_SetConfig+0xae>
 8003c02:	f5b0 4f00 	cmp.w	r0, #32768	; 0x8000
 8003c06:	d044      	beq.n	8003c92 <UART_SetConfig+0x146>
 8003c08:	f44f 4000 	mov.w	r0, #32768	; 0x8000
 8003c0c:	e08d      	b.n	8003d2a <UART_SetConfig+0x1de>
 8003c0e:	4a4f      	ldr	r2, [pc, #316]	; (8003d4c <UART_SetConfig+0x200>)
 8003c10:	4293      	cmp	r3, r2
 8003c12:	d1f2      	bne.n	8003bfa <UART_SetConfig+0xae>
 8003c14:	4b4f      	ldr	r3, [pc, #316]	; (8003d54 <UART_SetConfig+0x208>)
 8003c16:	f8d3 3088 	ldr.w	r3, [r3, #136]	; 0x88
 8003c1a:	f403 6340 	and.w	r3, r3, #3072	; 0xc00
 8003c1e:	f5b3 6f00 	cmp.w	r3, #2048	; 0x800
 8003c22:	d015      	beq.n	8003c50 <UART_SetConfig+0x104>
 8003c24:	d806      	bhi.n	8003c34 <UART_SetConfig+0xe8>
 8003c26:	b15b      	cbz	r3, 8003c40 <UART_SetConfig+0xf4>
 8003c28:	f5b3 6f80 	cmp.w	r3, #1024	; 0x400
 8003c2c:	d1e5      	bne.n	8003bfa <UART_SetConfig+0xae>
 8003c2e:	f7fd ffc5 	bl	8001bbc <HAL_RCC_GetSysClockFreq>
 8003c32:	e007      	b.n	8003c44 <UART_SetConfig+0xf8>
 8003c34:	f5b3 6f40 	cmp.w	r3, #3072	; 0xc00
 8003c38:	d1df      	bne.n	8003bfa <UART_SetConfig+0xae>
 8003c3a:	f44f 4000 	mov.w	r0, #32768	; 0x8000
 8003c3e:	e008      	b.n	8003c52 <UART_SetConfig+0x106>
 8003c40:	f7fe fb58 	bl	80022f4 <HAL_RCC_GetPCLK1Freq>
 8003c44:	b928      	cbnz	r0, 8003c52 <UART_SetConfig+0x106>
 8003c46:	2000      	movs	r0, #0
 8003c48:	2300      	movs	r3, #0
 8003c4a:	e9c4 3319 	strd	r3, r3, [r4, #100]	; 0x64
 8003c4e:	bd70      	pop	{r4, r5, r6, pc}
 8003c50:	4845      	ldr	r0, [pc, #276]	; (8003d68 <UART_SetConfig+0x21c>)
 8003c52:	6862      	ldr	r2, [r4, #4]
 8003c54:	eb02 0342 	add.w	r3, r2, r2, lsl #1
 8003c58:	4283      	cmp	r3, r0
 8003c5a:	d8ce      	bhi.n	8003bfa <UART_SetConfig+0xae>
 8003c5c:	ebb0 3f02 	cmp.w	r0, r2, lsl #12
 8003c60:	d8cb      	bhi.n	8003bfa <UART_SetConfig+0xae>
 8003c62:	0851      	lsrs	r1, r2, #1
 8003c64:	2500      	movs	r5, #0
 8003c66:	468c      	mov	ip, r1
 8003c68:	f44f 7680 	mov.w	r6, #256	; 0x100
 8003c6c:	4629      	mov	r1, r5
 8003c6e:	fbe0 c106 	umlal	ip, r1, r0, r6
 8003c72:	462b      	mov	r3, r5
 8003c74:	4660      	mov	r0, ip
 8003c76:	f7fc ff97 	bl	8000ba8 <__aeabi_uldivmod>
 8003c7a:	4b3c      	ldr	r3, [pc, #240]	; (8003d6c <UART_SetConfig+0x220>)
 8003c7c:	f5a0 7240 	sub.w	r2, r0, #768	; 0x300
 8003c80:	429a      	cmp	r2, r3
 8003c82:	d8ba      	bhi.n	8003bfa <UART_SetConfig+0xae>
 8003c84:	6823      	ldr	r3, [r4, #0]
 8003c86:	60d8      	str	r0, [r3, #12]
 8003c88:	e7dd      	b.n	8003c46 <UART_SetConfig+0xfa>
 8003c8a:	f7fe fb33 	bl	80022f4 <HAL_RCC_GetPCLK1Freq>
 8003c8e:	2800      	cmp	r0, #0
 8003c90:	d0d9      	beq.n	8003c46 <UART_SetConfig+0xfa>
 8003c92:	6862      	ldr	r2, [r4, #4]
 8003c94:	0853      	lsrs	r3, r2, #1
 8003c96:	eb03 0040 	add.w	r0, r3, r0, lsl #1
 8003c9a:	f64f 73ef 	movw	r3, #65519	; 0xffef
 8003c9e:	fbb0 f0f2 	udiv	r0, r0, r2
 8003ca2:	f1a0 0210 	sub.w	r2, r0, #16
 8003ca6:	429a      	cmp	r2, r3
 8003ca8:	d8a7      	bhi.n	8003bfa <UART_SetConfig+0xae>
 8003caa:	f020 030f 	bic.w	r3, r0, #15
 8003cae:	6822      	ldr	r2, [r4, #0]
 8003cb0:	b29b      	uxth	r3, r3
 8003cb2:	f3c0 0042 	ubfx	r0, r0, #1, #3
 8003cb6:	4318      	orrs	r0, r3
 8003cb8:	60d0      	str	r0, [r2, #12]
 8003cba:	e7c4      	b.n	8003c46 <UART_SetConfig+0xfa>
 8003cbc:	f7fd ff7e 	bl	8001bbc <HAL_RCC_GetSysClockFreq>
 8003cc0:	e7e5      	b.n	8003c8e <UART_SetConfig+0x142>
 8003cc2:	4829      	ldr	r0, [pc, #164]	; (8003d68 <UART_SetConfig+0x21c>)
 8003cc4:	e7e5      	b.n	8003c92 <UART_SetConfig+0x146>
 8003cc6:	2b08      	cmp	r3, #8
 8003cc8:	d897      	bhi.n	8003bfa <UART_SetConfig+0xae>
 8003cca:	a201      	add	r2, pc, #4	; (adr r2, 8003cd0 <UART_SetConfig+0x184>)
 8003ccc:	f852 f023 	ldr.w	pc, [r2, r3, lsl #2]
 8003cd0:	08003d23 	.word	0x08003d23
 8003cd4:	08003cf5 	.word	0x08003cf5
 8003cd8:	08003d01 	.word	0x08003d01
 8003cdc:	08003bfb 	.word	0x08003bfb
 8003ce0:	08003d17 	.word	0x08003d17
 8003ce4:	08003bfb 	.word	0x08003bfb
 8003ce8:	08003bfb 	.word	0x08003bfb
 8003cec:	08003bfb 	.word	0x08003bfb
 8003cf0:	08003c09 	.word	0x08003c09
 8003cf4:	f7fe fb10 	bl	8002318 <HAL_RCC_GetPCLK2Freq>
 8003cf8:	e015      	b.n	8003d26 <UART_SetConfig+0x1da>
 8003cfa:	f5b0 4f00 	cmp.w	r0, #32768	; 0x8000
 8003cfe:	d0e0      	beq.n	8003cc2 <UART_SetConfig+0x176>
 8003d00:	4819      	ldr	r0, [pc, #100]	; (8003d68 <UART_SetConfig+0x21c>)
 8003d02:	e012      	b.n	8003d2a <UART_SetConfig+0x1de>
 8003d04:	f5b0 4f00 	cmp.w	r0, #32768	; 0x8000
 8003d08:	d1f4      	bne.n	8003cf4 <UART_SetConfig+0x1a8>
 8003d0a:	f7fe fb05 	bl	8002318 <HAL_RCC_GetPCLK2Freq>
 8003d0e:	e7be      	b.n	8003c8e <UART_SetConfig+0x142>
 8003d10:	f5b0 4f00 	cmp.w	r0, #32768	; 0x8000
 8003d14:	d0d2      	beq.n	8003cbc <UART_SetConfig+0x170>
 8003d16:	f7fd ff51 	bl	8001bbc <HAL_RCC_GetSysClockFreq>
 8003d1a:	e004      	b.n	8003d26 <UART_SetConfig+0x1da>
 8003d1c:	f5b0 4f00 	cmp.w	r0, #32768	; 0x8000
 8003d20:	d0b3      	beq.n	8003c8a <UART_SetConfig+0x13e>
 8003d22:	f7fe fae7 	bl	80022f4 <HAL_RCC_GetPCLK1Freq>
 8003d26:	2800      	cmp	r0, #0
 8003d28:	d08d      	beq.n	8003c46 <UART_SetConfig+0xfa>
 8003d2a:	6862      	ldr	r2, [r4, #4]
 8003d2c:	eb00 0352 	add.w	r3, r0, r2, lsr #1
 8003d30:	fbb3 f3f2 	udiv	r3, r3, r2
 8003d34:	f64f 72ef 	movw	r2, #65519	; 0xffef
 8003d38:	f1a3 0110 	sub.w	r1, r3, #16
 8003d3c:	4291      	cmp	r1, r2
 8003d3e:	f63f af5c 	bhi.w	8003bfa <UART_SetConfig+0xae>
 8003d42:	6822      	ldr	r2, [r4, #0]
 8003d44:	60d3      	str	r3, [r2, #12]
 8003d46:	e77e      	b.n	8003c46 <UART_SetConfig+0xfa>
 8003d48:	efff69f3 	.word	0xefff69f3
 8003d4c:	40008000 	.word	0x40008000
 8003d50:	40013800 	.word	0x40013800
 8003d54:	40021000 	.word	0x40021000
 8003d58:	08007eac 	.word	0x08007eac
 8003d5c:	40004400 	.word	0x40004400
 8003d60:	08007eaf 	.word	0x08007eaf
 8003d64:	40004800 	.word	0x40004800
 8003d68:	00f42400 	.word	0x00f42400
 8003d6c:	000ffcff 	.word	0x000ffcff

08003d70 <UART_AdvFeatureConfig>:
 8003d70:	6a43      	ldr	r3, [r0, #36]	; 0x24
 8003d72:	07da      	lsls	r2, r3, #31
 8003d74:	b510      	push	{r4, lr}
 8003d76:	d506      	bpl.n	8003d86 <UART_AdvFeatureConfig+0x16>
 8003d78:	6801      	ldr	r1, [r0, #0]
 8003d7a:	6a84      	ldr	r4, [r0, #40]	; 0x28
 8003d7c:	684a      	ldr	r2, [r1, #4]
 8003d7e:	f422 3200 	bic.w	r2, r2, #131072	; 0x20000
 8003d82:	4322      	orrs	r2, r4
 8003d84:	604a      	str	r2, [r1, #4]
 8003d86:	079c      	lsls	r4, r3, #30
 8003d88:	d506      	bpl.n	8003d98 <UART_AdvFeatureConfig+0x28>
 8003d8a:	6801      	ldr	r1, [r0, #0]
 8003d8c:	6ac4      	ldr	r4, [r0, #44]	; 0x2c
 8003d8e:	684a      	ldr	r2, [r1, #4]
 8003d90:	f422 3280 	bic.w	r2, r2, #65536	; 0x10000
 8003d94:	4322      	orrs	r2, r4
 8003d96:	604a      	str	r2, [r1, #4]
 8003d98:	0759      	lsls	r1, r3, #29
 8003d9a:	d506      	bpl.n	8003daa <UART_AdvFeatureConfig+0x3a>
 8003d9c:	6801      	ldr	r1, [r0, #0]
 8003d9e:	6b04      	ldr	r4, [r0, #48]	; 0x30
 8003da0:	684a      	ldr	r2, [r1, #4]
 8003da2:	f422 2280 	bic.w	r2, r2, #262144	; 0x40000
 8003da6:	4322      	orrs	r2, r4
 8003da8:	604a      	str	r2, [r1, #4]
 8003daa:	071a      	lsls	r2, r3, #28
 8003dac:	d506      	bpl.n	8003dbc <UART_AdvFeatureConfig+0x4c>
 8003dae:	6801      	ldr	r1, [r0, #0]
 8003db0:	6b44      	ldr	r4, [r0, #52]	; 0x34
 8003db2:	684a      	ldr	r2, [r1, #4]
 8003db4:	f422 4200 	bic.w	r2, r2, #32768	; 0x8000
 8003db8:	4322      	orrs	r2, r4
 8003dba:	604a      	str	r2, [r1, #4]
 8003dbc:	06dc      	lsls	r4, r3, #27
 8003dbe:	d506      	bpl.n	8003dce <UART_AdvFeatureConfig+0x5e>
 8003dc0:	6801      	ldr	r1, [r0, #0]
 8003dc2:	6b84      	ldr	r4, [r0, #56]	; 0x38
 8003dc4:	688a      	ldr	r2, [r1, #8]
 8003dc6:	f422 5280 	bic.w	r2, r2, #4096	; 0x1000
 8003dca:	4322      	orrs	r2, r4
 8003dcc:	608a      	str	r2, [r1, #8]
 8003dce:	0699      	lsls	r1, r3, #26
 8003dd0:	d506      	bpl.n	8003de0 <UART_AdvFeatureConfig+0x70>
 8003dd2:	6801      	ldr	r1, [r0, #0]
 8003dd4:	6bc4      	ldr	r4, [r0, #60]	; 0x3c
 8003dd6:	688a      	ldr	r2, [r1, #8]
 8003dd8:	f422 5200 	bic.w	r2, r2, #8192	; 0x2000
 8003ddc:	4322      	orrs	r2, r4
 8003dde:	608a      	str	r2, [r1, #8]
 8003de0:	065a      	lsls	r2, r3, #25
 8003de2:	d50f      	bpl.n	8003e04 <UART_AdvFeatureConfig+0x94>
 8003de4:	6801      	ldr	r1, [r0, #0]
 8003de6:	6c04      	ldr	r4, [r0, #64]	; 0x40
 8003de8:	684a      	ldr	r2, [r1, #4]
 8003dea:	f422 1280 	bic.w	r2, r2, #1048576	; 0x100000
 8003dee:	4322      	orrs	r2, r4
 8003df0:	f5b4 1f80 	cmp.w	r4, #1048576	; 0x100000
 8003df4:	604a      	str	r2, [r1, #4]
 8003df6:	d105      	bne.n	8003e04 <UART_AdvFeatureConfig+0x94>
 8003df8:	684a      	ldr	r2, [r1, #4]
 8003dfa:	6c44      	ldr	r4, [r0, #68]	; 0x44
 8003dfc:	f422 02c0 	bic.w	r2, r2, #6291456	; 0x600000
 8003e00:	4322      	orrs	r2, r4
 8003e02:	604a      	str	r2, [r1, #4]
 8003e04:	061b      	lsls	r3, r3, #24
 8003e06:	d506      	bpl.n	8003e16 <UART_AdvFeatureConfig+0xa6>
 8003e08:	6802      	ldr	r2, [r0, #0]
 8003e0a:	6c81      	ldr	r1, [r0, #72]	; 0x48
 8003e0c:	6853      	ldr	r3, [r2, #4]
 8003e0e:	f423 2300 	bic.w	r3, r3, #524288	; 0x80000
 8003e12:	430b      	orrs	r3, r1
 8003e14:	6053      	str	r3, [r2, #4]
 8003e16:	bd10      	pop	{r4, pc}

08003e18 <UART_WaitOnFlagUntilTimeout>:
 8003e18:	e92d 41f0 	stmdb	sp!, {r4, r5, r6, r7, r8, lr}
 8003e1c:	f8dd 8018 	ldr.w	r8, [sp, #24]
 8003e20:	4604      	mov	r4, r0
 8003e22:	460e      	mov	r6, r1
 8003e24:	4615      	mov	r5, r2
 8003e26:	461f      	mov	r7, r3
 8003e28:	6822      	ldr	r2, [r4, #0]
 8003e2a:	69d3      	ldr	r3, [r2, #28]
 8003e2c:	ea36 0303 	bics.w	r3, r6, r3
 8003e30:	bf0c      	ite	eq
 8003e32:	2301      	moveq	r3, #1
 8003e34:	2300      	movne	r3, #0
 8003e36:	42ab      	cmp	r3, r5
 8003e38:	d001      	beq.n	8003e3e <UART_WaitOnFlagUntilTimeout+0x26>
 8003e3a:	2000      	movs	r0, #0
 8003e3c:	e025      	b.n	8003e8a <UART_WaitOnFlagUntilTimeout+0x72>
 8003e3e:	f1b8 3fff 	cmp.w	r8, #4294967295
 8003e42:	d0f2      	beq.n	8003e2a <UART_WaitOnFlagUntilTimeout+0x12>
 8003e44:	f7fd fc8e 	bl	8001764 <HAL_GetTick>
 8003e48:	1bc0      	subs	r0, r0, r7
 8003e4a:	4540      	cmp	r0, r8
 8003e4c:	6820      	ldr	r0, [r4, #0]
 8003e4e:	d802      	bhi.n	8003e56 <UART_WaitOnFlagUntilTimeout+0x3e>
 8003e50:	f1b8 0f00 	cmp.w	r8, #0
 8003e54:	d11b      	bne.n	8003e8e <UART_WaitOnFlagUntilTimeout+0x76>
 8003e56:	e850 3f00 	ldrex	r3, [r0]
 8003e5a:	f423 73d0 	bic.w	r3, r3, #416	; 0x1a0
 8003e5e:	e840 3200 	strex	r2, r3, [r0]
 8003e62:	2a00      	cmp	r2, #0
 8003e64:	d1f7      	bne.n	8003e56 <UART_WaitOnFlagUntilTimeout+0x3e>
 8003e66:	f100 0308 	add.w	r3, r0, #8
 8003e6a:	e853 3f00 	ldrex	r3, [r3]
 8003e6e:	f023 0301 	bic.w	r3, r3, #1
 8003e72:	f100 0108 	add.w	r1, r0, #8
 8003e76:	e841 3200 	strex	r2, r3, [r1]
 8003e7a:	2a00      	cmp	r2, #0
 8003e7c:	d1f3      	bne.n	8003e66 <UART_WaitOnFlagUntilTimeout+0x4e>
 8003e7e:	2320      	movs	r3, #32
 8003e80:	67a3      	str	r3, [r4, #120]	; 0x78
 8003e82:	67e3      	str	r3, [r4, #124]	; 0x7c
 8003e84:	f884 2074 	strb.w	r2, [r4, #116]	; 0x74
 8003e88:	2003      	movs	r0, #3
 8003e8a:	e8bd 81f0 	ldmia.w	sp!, {r4, r5, r6, r7, r8, pc}
 8003e8e:	6803      	ldr	r3, [r0, #0]
 8003e90:	075a      	lsls	r2, r3, #29
 8003e92:	d5c9      	bpl.n	8003e28 <UART_WaitOnFlagUntilTimeout+0x10>
 8003e94:	69c3      	ldr	r3, [r0, #28]
 8003e96:	051b      	lsls	r3, r3, #20
 8003e98:	d5c6      	bpl.n	8003e28 <UART_WaitOnFlagUntilTimeout+0x10>
 8003e9a:	f44f 6300 	mov.w	r3, #2048	; 0x800
 8003e9e:	6203      	str	r3, [r0, #32]
 8003ea0:	e850 3f00 	ldrex	r3, [r0]
 8003ea4:	f423 73d0 	bic.w	r3, r3, #416	; 0x1a0
 8003ea8:	e840 3200 	strex	r2, r3, [r0]
 8003eac:	2a00      	cmp	r2, #0
 8003eae:	d1f7      	bne.n	8003ea0 <UART_WaitOnFlagUntilTimeout+0x88>
 8003eb0:	f100 0308 	add.w	r3, r0, #8
 8003eb4:	e853 3f00 	ldrex	r3, [r3]
 8003eb8:	f023 0301 	bic.w	r3, r3, #1
 8003ebc:	f100 0108 	add.w	r1, r0, #8
 8003ec0:	e841 3200 	strex	r2, r3, [r1]
 8003ec4:	2a00      	cmp	r2, #0
 8003ec6:	d1f3      	bne.n	8003eb0 <UART_WaitOnFlagUntilTimeout+0x98>
 8003ec8:	2320      	movs	r3, #32
 8003eca:	67a3      	str	r3, [r4, #120]	; 0x78
 8003ecc:	67e3      	str	r3, [r4, #124]	; 0x7c
 8003ece:	f8c4 3080 	str.w	r3, [r4, #128]	; 0x80
 8003ed2:	e7d7      	b.n	8003e84 <UART_WaitOnFlagUntilTimeout+0x6c>

08003ed4 <UART_CheckIdleState>:
 8003ed4:	b530      	push	{r4, r5, lr}
 8003ed6:	4604      	mov	r4, r0
 8003ed8:	2500      	movs	r5, #0
 8003eda:	b085      	sub	sp, #20
 8003edc:	f8c0 5080 	str.w	r5, [r0, #128]	; 0x80
 8003ee0:	f7fd fc40 	bl	8001764 <HAL_GetTick>
 8003ee4:	6822      	ldr	r2, [r4, #0]
 8003ee6:	6812      	ldr	r2, [r2, #0]
 8003ee8:	0711      	lsls	r1, r2, #28
 8003eea:	4603      	mov	r3, r0
 8003eec:	d415      	bmi.n	8003f1a <UART_CheckIdleState+0x46>
 8003eee:	6822      	ldr	r2, [r4, #0]
 8003ef0:	6812      	ldr	r2, [r2, #0]
 8003ef2:	0752      	lsls	r2, r2, #29
 8003ef4:	d509      	bpl.n	8003f0a <UART_CheckIdleState+0x36>
 8003ef6:	f06f 427e 	mvn.w	r2, #4261412864	; 0xfe000000
 8003efa:	9200      	str	r2, [sp, #0]
 8003efc:	f44f 0180 	mov.w	r1, #4194304	; 0x400000
 8003f00:	2200      	movs	r2, #0
 8003f02:	4620      	mov	r0, r4
 8003f04:	f7ff ff88 	bl	8003e18 <UART_WaitOnFlagUntilTimeout>
 8003f08:	b9a0      	cbnz	r0, 8003f34 <UART_CheckIdleState+0x60>
 8003f0a:	2320      	movs	r3, #32
 8003f0c:	2000      	movs	r0, #0
 8003f0e:	67a3      	str	r3, [r4, #120]	; 0x78
 8003f10:	f884 0074 	strb.w	r0, [r4, #116]	; 0x74
 8003f14:	67e3      	str	r3, [r4, #124]	; 0x7c
 8003f16:	6620      	str	r0, [r4, #96]	; 0x60
 8003f18:	e00d      	b.n	8003f36 <UART_CheckIdleState+0x62>
 8003f1a:	f06f 427e 	mvn.w	r2, #4261412864	; 0xfe000000
 8003f1e:	9200      	str	r2, [sp, #0]
 8003f20:	9003      	str	r0, [sp, #12]
 8003f22:	462a      	mov	r2, r5
 8003f24:	f44f 1100 	mov.w	r1, #2097152	; 0x200000
 8003f28:	4620      	mov	r0, r4
 8003f2a:	f7ff ff75 	bl	8003e18 <UART_WaitOnFlagUntilTimeout>
 8003f2e:	9b03      	ldr	r3, [sp, #12]
 8003f30:	2800      	cmp	r0, #0
 8003f32:	d0dc      	beq.n	8003eee <UART_CheckIdleState+0x1a>
 8003f34:	2003      	movs	r0, #3
 8003f36:	b005      	add	sp, #20
 8003f38:	bd30      	pop	{r4, r5, pc}

08003f3a <HAL_UART_Init>:
 8003f3a:	b510      	push	{r4, lr}
 8003f3c:	4604      	mov	r4, r0
 8003f3e:	b340      	cbz	r0, 8003f92 <HAL_UART_Init+0x58>
 8003f40:	6f83      	ldr	r3, [r0, #120]	; 0x78
 8003f42:	b91b      	cbnz	r3, 8003f4c <HAL_UART_Init+0x12>
 8003f44:	f880 3074 	strb.w	r3, [r0, #116]	; 0x74
 8003f48:	f7fd faba 	bl	80014c0 <HAL_UART_MspInit>
 8003f4c:	6822      	ldr	r2, [r4, #0]
 8003f4e:	2324      	movs	r3, #36	; 0x24
 8003f50:	67a3      	str	r3, [r4, #120]	; 0x78
 8003f52:	6813      	ldr	r3, [r2, #0]
 8003f54:	f023 0301 	bic.w	r3, r3, #1
 8003f58:	6013      	str	r3, [r2, #0]
 8003f5a:	4620      	mov	r0, r4
 8003f5c:	f7ff fdf6 	bl	8003b4c <UART_SetConfig>
 8003f60:	2801      	cmp	r0, #1
 8003f62:	d016      	beq.n	8003f92 <HAL_UART_Init+0x58>
 8003f64:	6a63      	ldr	r3, [r4, #36]	; 0x24
 8003f66:	b113      	cbz	r3, 8003f6e <HAL_UART_Init+0x34>
 8003f68:	4620      	mov	r0, r4
 8003f6a:	f7ff ff01 	bl	8003d70 <UART_AdvFeatureConfig>
 8003f6e:	6823      	ldr	r3, [r4, #0]
 8003f70:	685a      	ldr	r2, [r3, #4]
 8003f72:	f422 4290 	bic.w	r2, r2, #18432	; 0x4800
 8003f76:	605a      	str	r2, [r3, #4]
 8003f78:	689a      	ldr	r2, [r3, #8]
 8003f7a:	f022 022a 	bic.w	r2, r2, #42	; 0x2a
 8003f7e:	609a      	str	r2, [r3, #8]
 8003f80:	681a      	ldr	r2, [r3, #0]
 8003f82:	f042 0201 	orr.w	r2, r2, #1
 8003f86:	4620      	mov	r0, r4
 8003f88:	601a      	str	r2, [r3, #0]
 8003f8a:	e8bd 4010 	ldmia.w	sp!, {r4, lr}
 8003f8e:	f7ff bfa1 	b.w	8003ed4 <UART_CheckIdleState>
 8003f92:	2001      	movs	r0, #1
 8003f94:	bd10      	pop	{r4, pc}
	...

08003f98 <UART_Start_Receive_IT>:
 8003f98:	6883      	ldr	r3, [r0, #8]
 8003f9a:	b510      	push	{r4, lr}
 8003f9c:	f5b3 5f80 	cmp.w	r3, #4096	; 0x1000
 8003fa0:	f8a0 2058 	strh.w	r2, [r0, #88]	; 0x58
 8003fa4:	f8a0 205a 	strh.w	r2, [r0, #90]	; 0x5a
 8003fa8:	f04f 0200 	mov.w	r2, #0
 8003fac:	6541      	str	r1, [r0, #84]	; 0x54
 8003fae:	6642      	str	r2, [r0, #100]	; 0x64
 8003fb0:	d132      	bne.n	8004018 <UART_Start_Receive_IT+0x80>
 8003fb2:	6903      	ldr	r3, [r0, #16]
 8003fb4:	bb73      	cbnz	r3, 8004014 <UART_Start_Receive_IT+0x7c>
 8003fb6:	f240 13ff 	movw	r3, #511	; 0x1ff
 8003fba:	f8a0 305c 	strh.w	r3, [r0, #92]	; 0x5c
 8003fbe:	2300      	movs	r3, #0
 8003fc0:	f8c0 3080 	str.w	r3, [r0, #128]	; 0x80
 8003fc4:	2322      	movs	r3, #34	; 0x22
 8003fc6:	67c3      	str	r3, [r0, #124]	; 0x7c
 8003fc8:	6802      	ldr	r2, [r0, #0]
 8003fca:	f102 0308 	add.w	r3, r2, #8
 8003fce:	e853 3f00 	ldrex	r3, [r3]
 8003fd2:	f043 0301 	orr.w	r3, r3, #1
 8003fd6:	3208      	adds	r2, #8
 8003fd8:	e842 3100 	strex	r1, r3, [r2]
 8003fdc:	6802      	ldr	r2, [r0, #0]
 8003fde:	2900      	cmp	r1, #0
 8003fe0:	d1f2      	bne.n	8003fc8 <UART_Start_Receive_IT+0x30>
 8003fe2:	6883      	ldr	r3, [r0, #8]
 8003fe4:	6901      	ldr	r1, [r0, #16]
 8003fe6:	f5b3 5f80 	cmp.w	r3, #4096	; 0x1000
 8003fea:	d126      	bne.n	800403a <UART_Start_Receive_IT+0xa2>
 8003fec:	4b18      	ldr	r3, [pc, #96]	; (8004050 <UART_Start_Receive_IT+0xb8>)
 8003fee:	4c19      	ldr	r4, [pc, #100]	; (8004054 <UART_Start_Receive_IT+0xbc>)
 8003ff0:	2900      	cmp	r1, #0
 8003ff2:	bf18      	it	ne
 8003ff4:	4623      	movne	r3, r4
 8003ff6:	6643      	str	r3, [r0, #100]	; 0x64
 8003ff8:	2300      	movs	r3, #0
 8003ffa:	f880 3074 	strb.w	r3, [r0, #116]	; 0x74
 8003ffe:	b1f1      	cbz	r1, 800403e <UART_Start_Receive_IT+0xa6>
 8004000:	e852 3f00 	ldrex	r3, [r2]
 8004004:	f443 7390 	orr.w	r3, r3, #288	; 0x120
 8004008:	e842 3100 	strex	r1, r3, [r2]
 800400c:	2900      	cmp	r1, #0
 800400e:	d1f7      	bne.n	8004000 <UART_Start_Receive_IT+0x68>
 8004010:	2000      	movs	r0, #0
 8004012:	bd10      	pop	{r4, pc}
 8004014:	23ff      	movs	r3, #255	; 0xff
 8004016:	e7d0      	b.n	8003fba <UART_Start_Receive_IT+0x22>
 8004018:	b923      	cbnz	r3, 8004024 <UART_Start_Receive_IT+0x8c>
 800401a:	6903      	ldr	r3, [r0, #16]
 800401c:	2b00      	cmp	r3, #0
 800401e:	d0f9      	beq.n	8004014 <UART_Start_Receive_IT+0x7c>
 8004020:	237f      	movs	r3, #127	; 0x7f
 8004022:	e7ca      	b.n	8003fba <UART_Start_Receive_IT+0x22>
 8004024:	f1b3 5f80 	cmp.w	r3, #268435456	; 0x10000000
 8004028:	d104      	bne.n	8004034 <UART_Start_Receive_IT+0x9c>
 800402a:	6903      	ldr	r3, [r0, #16]
 800402c:	2b00      	cmp	r3, #0
 800402e:	d0f7      	beq.n	8004020 <UART_Start_Receive_IT+0x88>
 8004030:	233f      	movs	r3, #63	; 0x3f
 8004032:	e7c2      	b.n	8003fba <UART_Start_Receive_IT+0x22>
 8004034:	f8a0 205c 	strh.w	r2, [r0, #92]	; 0x5c
 8004038:	e7c1      	b.n	8003fbe <UART_Start_Receive_IT+0x26>
 800403a:	4b06      	ldr	r3, [pc, #24]	; (8004054 <UART_Start_Receive_IT+0xbc>)
 800403c:	e7db      	b.n	8003ff6 <UART_Start_Receive_IT+0x5e>
 800403e:	e852 3f00 	ldrex	r3, [r2]
 8004042:	f043 0320 	orr.w	r3, r3, #32
 8004046:	e842 3100 	strex	r1, r3, [r2]
 800404a:	2900      	cmp	r1, #0
 800404c:	d1f7      	bne.n	800403e <UART_Start_Receive_IT+0xa6>
 800404e:	e7df      	b.n	8004010 <UART_Start_Receive_IT+0x78>
 8004050:	08003ab1 	.word	0x08003ab1
 8004054:	08003a11 	.word	0x08003a11

08004058 <HAL_UART_Receive_IT>:
 8004058:	6fc3      	ldr	r3, [r0, #124]	; 0x7c
 800405a:	2b20      	cmp	r3, #32
 800405c:	b430      	push	{r4, r5}
 800405e:	d11f      	bne.n	80040a0 <HAL_UART_Receive_IT+0x48>
 8004060:	b1d9      	cbz	r1, 800409a <HAL_UART_Receive_IT+0x42>
 8004062:	b1d2      	cbz	r2, 800409a <HAL_UART_Receive_IT+0x42>
 8004064:	f890 3074 	ldrb.w	r3, [r0, #116]	; 0x74
 8004068:	2b01      	cmp	r3, #1
 800406a:	d019      	beq.n	80040a0 <HAL_UART_Receive_IT+0x48>
 800406c:	2301      	movs	r3, #1
 800406e:	f880 3074 	strb.w	r3, [r0, #116]	; 0x74
 8004072:	2300      	movs	r3, #0
 8004074:	6804      	ldr	r4, [r0, #0]
 8004076:	6603      	str	r3, [r0, #96]	; 0x60
 8004078:	4b0a      	ldr	r3, [pc, #40]	; (80040a4 <HAL_UART_Receive_IT+0x4c>)
 800407a:	429c      	cmp	r4, r3
 800407c:	d00a      	beq.n	8004094 <HAL_UART_Receive_IT+0x3c>
 800407e:	6863      	ldr	r3, [r4, #4]
 8004080:	021b      	lsls	r3, r3, #8
 8004082:	d507      	bpl.n	8004094 <HAL_UART_Receive_IT+0x3c>
 8004084:	e854 3f00 	ldrex	r3, [r4]
 8004088:	f043 6380 	orr.w	r3, r3, #67108864	; 0x4000000
 800408c:	e844 3500 	strex	r5, r3, [r4]
 8004090:	2d00      	cmp	r5, #0
 8004092:	d1f7      	bne.n	8004084 <HAL_UART_Receive_IT+0x2c>
 8004094:	bc30      	pop	{r4, r5}
 8004096:	f7ff bf7f 	b.w	8003f98 <UART_Start_Receive_IT>
 800409a:	2001      	movs	r0, #1
 800409c:	bc30      	pop	{r4, r5}
 800409e:	4770      	bx	lr
 80040a0:	2002      	movs	r0, #2
 80040a2:	e7fb      	b.n	800409c <HAL_UART_Receive_IT+0x44>
 80040a4:	40008000 	.word	0x40008000

080040a8 <HAL_UARTEx_WakeupCallback>:
 80040a8:	4770      	bx	lr

080040aa <_GetAvailWriteSpace>:
 80040aa:	6903      	ldr	r3, [r0, #16]
 80040ac:	68c2      	ldr	r2, [r0, #12]
 80040ae:	4293      	cmp	r3, r2
 80040b0:	bf9c      	itt	ls
 80040b2:	6880      	ldrls	r0, [r0, #8]
 80040b4:	181b      	addls	r3, r3, r0
 80040b6:	3b01      	subs	r3, #1
 80040b8:	1a98      	subs	r0, r3, r2
 80040ba:	4770      	bx	lr

080040bc <_WriteNoCheck>:
 80040bc:	e92d 43f8 	stmdb	sp!, {r3, r4, r5, r6, r7, r8, r9, lr}
 80040c0:	e9d0 9402 	ldrd	r9, r4, [r0, #8]
 80040c4:	4605      	mov	r5, r0
 80040c6:	eba9 0804 	sub.w	r8, r9, r4
 80040ca:	6840      	ldr	r0, [r0, #4]
 80040cc:	4590      	cmp	r8, r2
 80040ce:	4420      	add	r0, r4
 80040d0:	460f      	mov	r7, r1
 80040d2:	4414      	add	r4, r2
 80040d4:	d904      	bls.n	80040e0 <_WriteNoCheck+0x24>
 80040d6:	f000 ffe3 	bl	80050a0 <memcpy>
 80040da:	60ec      	str	r4, [r5, #12]
 80040dc:	e8bd 83f8 	ldmia.w	sp!, {r3, r4, r5, r6, r7, r8, r9, pc}
 80040e0:	4642      	mov	r2, r8
 80040e2:	eba4 0409 	sub.w	r4, r4, r9
 80040e6:	f000 ffdb 	bl	80050a0 <memcpy>
 80040ea:	6868      	ldr	r0, [r5, #4]
 80040ec:	4622      	mov	r2, r4
 80040ee:	eb07 0108 	add.w	r1, r7, r8
 80040f2:	e7f0      	b.n	80040d6 <_WriteNoCheck+0x1a>

080040f4 <_WriteBlocking>:
 80040f4:	e92d 43f8 	stmdb	sp!, {r3, r4, r5, r6, r7, r8, r9, lr}
 80040f8:	68c5      	ldr	r5, [r0, #12]
 80040fa:	4606      	mov	r6, r0
 80040fc:	4689      	mov	r9, r1
 80040fe:	4617      	mov	r7, r2
 8004100:	f04f 0800 	mov.w	r8, #0
 8004104:	6934      	ldr	r4, [r6, #16]
 8004106:	68b3      	ldr	r3, [r6, #8]
 8004108:	6870      	ldr	r0, [r6, #4]
 800410a:	42a5      	cmp	r5, r4
 800410c:	bf28      	it	cs
 800410e:	18e4      	addcs	r4, r4, r3
 8004110:	3c01      	subs	r4, #1
 8004112:	1b62      	subs	r2, r4, r5
 8004114:	1b5c      	subs	r4, r3, r5
 8004116:	42bc      	cmp	r4, r7
 8004118:	bf28      	it	cs
 800411a:	463c      	movcs	r4, r7
 800411c:	4294      	cmp	r4, r2
 800411e:	bf28      	it	cs
 8004120:	4614      	movcs	r4, r2
 8004122:	4649      	mov	r1, r9
 8004124:	4428      	add	r0, r5
 8004126:	4622      	mov	r2, r4
 8004128:	f000 ffba 	bl	80050a0 <memcpy>
 800412c:	68b3      	ldr	r3, [r6, #8]
 800412e:	4425      	add	r5, r4
 8004130:	42ab      	cmp	r3, r5
 8004132:	bf08      	it	eq
 8004134:	2500      	moveq	r5, #0
 8004136:	1b3f      	subs	r7, r7, r4
 8004138:	44a0      	add	r8, r4
 800413a:	44a1      	add	r9, r4
 800413c:	60f5      	str	r5, [r6, #12]
 800413e:	d1e1      	bne.n	8004104 <_WriteBlocking+0x10>
 8004140:	4640      	mov	r0, r8
 8004142:	e8bd 83f8 	ldmia.w	sp!, {r3, r4, r5, r6, r7, r8, r9, pc}
	...

08004148 <_DoInit>:
 8004148:	b510      	push	{r4, lr}
 800414a:	4c11      	ldr	r4, [pc, #68]	; (8004190 <_DoInit+0x48>)
 800414c:	4a11      	ldr	r2, [pc, #68]	; (8004194 <_DoInit+0x4c>)
 800414e:	61a2      	str	r2, [r4, #24]
 8004150:	2302      	movs	r3, #2
 8004152:	e9c4 3304 	strd	r3, r3, [r4, #16]
 8004156:	4b10      	ldr	r3, [pc, #64]	; (8004198 <_DoInit+0x50>)
 8004158:	61e3      	str	r3, [r4, #28]
 800415a:	64a2      	str	r2, [r4, #72]	; 0x48
 800415c:	f44f 5300 	mov.w	r3, #8192	; 0x2000
 8004160:	4a0e      	ldr	r2, [pc, #56]	; (800419c <_DoInit+0x54>)
 8004162:	490f      	ldr	r1, [pc, #60]	; (80041a0 <_DoInit+0x58>)
 8004164:	6223      	str	r3, [r4, #32]
 8004166:	64e2      	str	r2, [r4, #76]	; 0x4c
 8004168:	2300      	movs	r3, #0
 800416a:	2210      	movs	r2, #16
 800416c:	1de0      	adds	r0, r4, #7
 800416e:	62a3      	str	r3, [r4, #40]	; 0x28
 8004170:	6263      	str	r3, [r4, #36]	; 0x24
 8004172:	62e3      	str	r3, [r4, #44]	; 0x2c
 8004174:	65a3      	str	r3, [r4, #88]	; 0x58
 8004176:	6563      	str	r3, [r4, #84]	; 0x54
 8004178:	65e3      	str	r3, [r4, #92]	; 0x5c
 800417a:	6522      	str	r2, [r4, #80]	; 0x50
 800417c:	f001 fd8a 	bl	8005c94 <strcpy>
 8004180:	4908      	ldr	r1, [pc, #32]	; (80041a4 <_DoInit+0x5c>)
 8004182:	4620      	mov	r0, r4
 8004184:	f001 fd86 	bl	8005c94 <strcpy>
 8004188:	2320      	movs	r3, #32
 800418a:	71a3      	strb	r3, [r4, #6]
 800418c:	bd10      	pop	{r4, pc}
 800418e:	bf00      	nop
 8004190:	20000428 	.word	0x20000428
 8004194:	08007ebc 	.word	0x08007ebc
 8004198:	200004b0 	.word	0x200004b0
 800419c:	200004a0 	.word	0x200004a0
 80041a0:	08007ec5 	.word	0x08007ec5
 80041a4:	08007ec9 	.word	0x08007ec9

080041a8 <SEGGER_RTT_WriteNoLock>:
 80041a8:	b570      	push	{r4, r5, r6, lr}
 80041aa:	4b16      	ldr	r3, [pc, #88]	; (8004204 <SEGGER_RTT_WriteNoLock+0x5c>)
 80041ac:	2418      	movs	r4, #24
 80041ae:	fb00 4504 	mla	r5, r0, r4, r4
 80041b2:	441d      	add	r5, r3
 80041b4:	fb04 3300 	mla	r3, r4, r0, r3
 80041b8:	4616      	mov	r6, r2
 80041ba:	6adc      	ldr	r4, [r3, #44]	; 0x2c
 80041bc:	2c01      	cmp	r4, #1
 80041be:	d00e      	beq.n	80041de <SEGGER_RTT_WriteNoLock+0x36>
 80041c0:	2c02      	cmp	r4, #2
 80041c2:	d018      	beq.n	80041f6 <SEGGER_RTT_WriteNoLock+0x4e>
 80041c4:	b9e4      	cbnz	r4, 8004200 <SEGGER_RTT_WriteNoLock+0x58>
 80041c6:	4628      	mov	r0, r5
 80041c8:	f7ff ff6f 	bl	80040aa <_GetAvailWriteSpace>
 80041cc:	4286      	cmp	r6, r0
 80041ce:	d804      	bhi.n	80041da <SEGGER_RTT_WriteNoLock+0x32>
 80041d0:	4632      	mov	r2, r6
 80041d2:	4628      	mov	r0, r5
 80041d4:	f7ff ff72 	bl	80040bc <_WriteNoCheck>
 80041d8:	4634      	mov	r4, r6
 80041da:	4620      	mov	r0, r4
 80041dc:	bd70      	pop	{r4, r5, r6, pc}
 80041de:	4628      	mov	r0, r5
 80041e0:	f7ff ff63 	bl	80040aa <_GetAvailWriteSpace>
 80041e4:	4286      	cmp	r6, r0
 80041e6:	4634      	mov	r4, r6
 80041e8:	bf28      	it	cs
 80041ea:	4604      	movcs	r4, r0
 80041ec:	4622      	mov	r2, r4
 80041ee:	4628      	mov	r0, r5
 80041f0:	f7ff ff64 	bl	80040bc <_WriteNoCheck>
 80041f4:	e7f1      	b.n	80041da <SEGGER_RTT_WriteNoLock+0x32>
 80041f6:	4628      	mov	r0, r5
 80041f8:	e8bd 4070 	ldmia.w	sp!, {r4, r5, r6, lr}
 80041fc:	f7ff bf7a 	b.w	80040f4 <_WriteBlocking>
 8004200:	2400      	movs	r4, #0
 8004202:	e7ea      	b.n	80041da <SEGGER_RTT_WriteNoLock+0x32>
 8004204:	20000428 	.word	0x20000428

08004208 <SEGGER_RTT_Write>:
 8004208:	b537      	push	{r0, r1, r2, r4, r5, lr}
 800420a:	4b0b      	ldr	r3, [pc, #44]	; (8004238 <SEGGER_RTT_Write+0x30>)
 800420c:	781b      	ldrb	r3, [r3, #0]
 800420e:	460c      	mov	r4, r1
 8004210:	b92b      	cbnz	r3, 800421e <SEGGER_RTT_Write+0x16>
 8004212:	e9cd 0200 	strd	r0, r2, [sp]
 8004216:	f7ff ff97 	bl	8004148 <_DoInit>
 800421a:	e9dd 0200 	ldrd	r0, r2, [sp]
 800421e:	f3ef 8511 	mrs	r5, BASEPRI
 8004222:	f04f 0150 	mov.w	r1, #80	; 0x50
 8004226:	f381 8811 	msr	BASEPRI, r1
 800422a:	4621      	mov	r1, r4
 800422c:	f7ff ffbc 	bl	80041a8 <SEGGER_RTT_WriteNoLock>
 8004230:	f385 8811 	msr	BASEPRI, r5
 8004234:	b003      	add	sp, #12
 8004236:	bd30      	pop	{r4, r5, pc}
 8004238:	20000428 	.word	0x20000428

0800423c <_StoreChar>:
 800423c:	6882      	ldr	r2, [r0, #8]
 800423e:	b510      	push	{r4, lr}
 8004240:	4604      	mov	r4, r0
 8004242:	6840      	ldr	r0, [r0, #4]
 8004244:	1c53      	adds	r3, r2, #1
 8004246:	4283      	cmp	r3, r0
 8004248:	d805      	bhi.n	8004256 <_StoreChar+0x1a>
 800424a:	6820      	ldr	r0, [r4, #0]
 800424c:	5481      	strb	r1, [r0, r2]
 800424e:	60a3      	str	r3, [r4, #8]
 8004250:	68e3      	ldr	r3, [r4, #12]
 8004252:	3301      	adds	r3, #1
 8004254:	60e3      	str	r3, [r4, #12]
 8004256:	e9d4 3201 	ldrd	r3, r2, [r4, #4]
 800425a:	429a      	cmp	r2, r3
 800425c:	d10b      	bne.n	8004276 <_StoreChar+0x3a>
 800425e:	6821      	ldr	r1, [r4, #0]
 8004260:	6920      	ldr	r0, [r4, #16]
 8004262:	f7ff ffd1 	bl	8004208 <SEGGER_RTT_Write>
 8004266:	68a3      	ldr	r3, [r4, #8]
 8004268:	4298      	cmp	r0, r3
 800426a:	bf15      	itete	ne
 800426c:	f04f 33ff 	movne.w	r3, #4294967295
 8004270:	2300      	moveq	r3, #0
 8004272:	60e3      	strne	r3, [r4, #12]
 8004274:	60a3      	streq	r3, [r4, #8]
 8004276:	bd10      	pop	{r4, pc}

08004278 <_PrintUnsigned>:
 8004278:	e92d 4ff8 	stmdb	sp!, {r3, r4, r5, r6, r7, r8, r9, sl, fp, lr}
 800427c:	4699      	mov	r9, r3
 800427e:	e9dd 430a 	ldrd	r4, r3, [sp, #40]	; 0x28
 8004282:	4616      	mov	r6, r2
 8004284:	4605      	mov	r5, r0
 8004286:	4688      	mov	r8, r1
 8004288:	460a      	mov	r2, r1
 800428a:	f04f 0a01 	mov.w	sl, #1
 800428e:	42b2      	cmp	r2, r6
 8004290:	d212      	bcs.n	80042b8 <_PrintUnsigned+0x40>
 8004292:	45ca      	cmp	sl, r9
 8004294:	bf38      	it	cc
 8004296:	46ca      	movcc	sl, r9
 8004298:	f013 0b01 	ands.w	fp, r3, #1
 800429c:	d101      	bne.n	80042a2 <_PrintUnsigned+0x2a>
 800429e:	b984      	cbnz	r4, 80042c2 <_PrintUnsigned+0x4a>
 80042a0:	2400      	movs	r4, #0
 80042a2:	68eb      	ldr	r3, [r5, #12]
 80042a4:	2b00      	cmp	r3, #0
 80042a6:	db48      	blt.n	800433a <_PrintUnsigned+0xc2>
 80042a8:	2701      	movs	r7, #1
 80042aa:	f1b9 0f01 	cmp.w	r9, #1
 80042ae:	d91f      	bls.n	80042f0 <_PrintUnsigned+0x78>
 80042b0:	f109 39ff 	add.w	r9, r9, #4294967295
 80042b4:	4377      	muls	r7, r6
 80042b6:	e7f8      	b.n	80042aa <_PrintUnsigned+0x32>
 80042b8:	f10a 0a01 	add.w	sl, sl, #1
 80042bc:	fbb2 f2f6 	udiv	r2, r2, r6
 80042c0:	e7e5      	b.n	800428e <_PrintUnsigned+0x16>
 80042c2:	079b      	lsls	r3, r3, #30
 80042c4:	d512      	bpl.n	80042ec <_PrintUnsigned+0x74>
 80042c6:	f1b9 0f00 	cmp.w	r9, #0
 80042ca:	bf0c      	ite	eq
 80042cc:	2730      	moveq	r7, #48	; 0x30
 80042ce:	2720      	movne	r7, #32
 80042d0:	45a2      	cmp	sl, r4
 80042d2:	d2e6      	bcs.n	80042a2 <_PrintUnsigned+0x2a>
 80042d4:	4639      	mov	r1, r7
 80042d6:	4628      	mov	r0, r5
 80042d8:	f7ff ffb0 	bl	800423c <_StoreChar>
 80042dc:	68eb      	ldr	r3, [r5, #12]
 80042de:	2b00      	cmp	r3, #0
 80042e0:	f104 34ff 	add.w	r4, r4, #4294967295
 80042e4:	dbdd      	blt.n	80042a2 <_PrintUnsigned+0x2a>
 80042e6:	2c00      	cmp	r4, #0
 80042e8:	d1f2      	bne.n	80042d0 <_PrintUnsigned+0x58>
 80042ea:	e7d9      	b.n	80042a0 <_PrintUnsigned+0x28>
 80042ec:	2720      	movs	r7, #32
 80042ee:	e7ef      	b.n	80042d0 <_PrintUnsigned+0x58>
 80042f0:	fbb8 f3f7 	udiv	r3, r8, r7
 80042f4:	429e      	cmp	r6, r3
 80042f6:	d9dd      	bls.n	80042b4 <_PrintUnsigned+0x3c>
 80042f8:	f8df 9048 	ldr.w	r9, [pc, #72]	; 8004344 <_PrintUnsigned+0xcc>
 80042fc:	fbb8 f3f7 	udiv	r3, r8, r7
 8004300:	4628      	mov	r0, r5
 8004302:	f819 1003 	ldrb.w	r1, [r9, r3]
 8004306:	fb07 8813 	mls	r8, r7, r3, r8
 800430a:	f7ff ff97 	bl	800423c <_StoreChar>
 800430e:	68eb      	ldr	r3, [r5, #12]
 8004310:	2b00      	cmp	r3, #0
 8004312:	db03      	blt.n	800431c <_PrintUnsigned+0xa4>
 8004314:	fbb7 f3f6 	udiv	r3, r7, r6
 8004318:	42b7      	cmp	r7, r6
 800431a:	d210      	bcs.n	800433e <_PrintUnsigned+0xc6>
 800431c:	f1bb 0f00 	cmp.w	fp, #0
 8004320:	d00b      	beq.n	800433a <_PrintUnsigned+0xc2>
 8004322:	b154      	cbz	r4, 800433a <_PrintUnsigned+0xc2>
 8004324:	45a2      	cmp	sl, r4
 8004326:	d208      	bcs.n	800433a <_PrintUnsigned+0xc2>
 8004328:	2120      	movs	r1, #32
 800432a:	4628      	mov	r0, r5
 800432c:	f7ff ff86 	bl	800423c <_StoreChar>
 8004330:	68eb      	ldr	r3, [r5, #12]
 8004332:	2b00      	cmp	r3, #0
 8004334:	f104 34ff 	add.w	r4, r4, #4294967295
 8004338:	daf3      	bge.n	8004322 <_PrintUnsigned+0xaa>
 800433a:	e8bd 8ff8 	ldmia.w	sp!, {r3, r4, r5, r6, r7, r8, r9, sl, fp, pc}
 800433e:	461f      	mov	r7, r3
 8004340:	e7dc      	b.n	80042fc <_PrintUnsigned+0x84>
 8004342:	bf00      	nop
 8004344:	08007ed0 	.word	0x08007ed0

08004348 <SEGGER_RTT_vprintf>:
 8004348:	e92d 4ff0 	stmdb	sp!, {r4, r5, r6, r7, r8, r9, sl, fp, lr}
 800434c:	b09b      	sub	sp, #108	; 0x6c
 800434e:	ab0a      	add	r3, sp, #40	; 0x28
 8004350:	460e      	mov	r6, r1
 8004352:	9305      	str	r3, [sp, #20]
 8004354:	2140      	movs	r1, #64	; 0x40
 8004356:	2300      	movs	r3, #0
 8004358:	e9cd 1306 	strd	r1, r3, [sp, #24]
 800435c:	e9cd 3008 	strd	r3, r0, [sp, #32]
 8004360:	9003      	str	r0, [sp, #12]
 8004362:	4615      	mov	r5, r2
 8004364:	f04f 0a0a 	mov.w	sl, #10
 8004368:	f816 1b01 	ldrb.w	r1, [r6], #1
 800436c:	b939      	cbnz	r1, 800437e <SEGGER_RTT_vprintf+0x36>
 800436e:	9b08      	ldr	r3, [sp, #32]
 8004370:	2b00      	cmp	r3, #0
 8004372:	f300 810b 	bgt.w	800458c <SEGGER_RTT_vprintf+0x244>
 8004376:	9808      	ldr	r0, [sp, #32]
 8004378:	b01b      	add	sp, #108	; 0x6c
 800437a:	e8bd 8ff0 	ldmia.w	sp!, {r4, r5, r6, r7, r8, r9, sl, fp, pc}
 800437e:	2925      	cmp	r1, #37	; 0x25
 8004380:	f040 80b5 	bne.w	80044ee <SEGGER_RTT_vprintf+0x1a6>
 8004384:	f04f 0b00 	mov.w	fp, #0
 8004388:	e007      	b.n	800439a <SEGGER_RTT_vprintf+0x52>
 800438a:	2b30      	cmp	r3, #48	; 0x30
 800438c:	d10f      	bne.n	80043ae <SEGGER_RTT_vprintf+0x66>
 800438e:	f04b 0b02 	orr.w	fp, fp, #2
 8004392:	e001      	b.n	8004398 <SEGGER_RTT_vprintf+0x50>
 8004394:	f04b 0b01 	orr.w	fp, fp, #1
 8004398:	460e      	mov	r6, r1
 800439a:	4631      	mov	r1, r6
 800439c:	f811 3b01 	ldrb.w	r3, [r1], #1
 80043a0:	2b2d      	cmp	r3, #45	; 0x2d
 80043a2:	d0f7      	beq.n	8004394 <SEGGER_RTT_vprintf+0x4c>
 80043a4:	d8f1      	bhi.n	800438a <SEGGER_RTT_vprintf+0x42>
 80043a6:	2b23      	cmp	r3, #35	; 0x23
 80043a8:	d011      	beq.n	80043ce <SEGGER_RTT_vprintf+0x86>
 80043aa:	2b2b      	cmp	r3, #43	; 0x2b
 80043ac:	d00c      	beq.n	80043c8 <SEGGER_RTT_vprintf+0x80>
 80043ae:	2400      	movs	r4, #0
 80043b0:	4631      	mov	r1, r6
 80043b2:	f811 3b01 	ldrb.w	r3, [r1], #1
 80043b6:	f1a3 0030 	sub.w	r0, r3, #48	; 0x30
 80043ba:	2809      	cmp	r0, #9
 80043bc:	d80a      	bhi.n	80043d4 <SEGGER_RTT_vprintf+0x8c>
 80043be:	fb0a 3404 	mla	r4, sl, r4, r3
 80043c2:	3c30      	subs	r4, #48	; 0x30
 80043c4:	460e      	mov	r6, r1
 80043c6:	e7f3      	b.n	80043b0 <SEGGER_RTT_vprintf+0x68>
 80043c8:	f04b 0b04 	orr.w	fp, fp, #4
 80043cc:	e7e4      	b.n	8004398 <SEGGER_RTT_vprintf+0x50>
 80043ce:	f04b 0b08 	orr.w	fp, fp, #8
 80043d2:	e7e1      	b.n	8004398 <SEGGER_RTT_vprintf+0x50>
 80043d4:	2b2e      	cmp	r3, #46	; 0x2e
 80043d6:	d10f      	bne.n	80043f8 <SEGGER_RTT_vprintf+0xb0>
 80043d8:	460e      	mov	r6, r1
 80043da:	f04f 0900 	mov.w	r9, #0
 80043de:	4630      	mov	r0, r6
 80043e0:	f810 1b01 	ldrb.w	r1, [r0], #1
 80043e4:	f1a1 0730 	sub.w	r7, r1, #48	; 0x30
 80043e8:	2f09      	cmp	r7, #9
 80043ea:	d807      	bhi.n	80043fc <SEGGER_RTT_vprintf+0xb4>
 80043ec:	fb0a 1309 	mla	r3, sl, r9, r1
 80043f0:	f1a3 0930 	sub.w	r9, r3, #48	; 0x30
 80043f4:	4606      	mov	r6, r0
 80043f6:	e7f2      	b.n	80043de <SEGGER_RTT_vprintf+0x96>
 80043f8:	f04f 0900 	mov.w	r9, #0
 80043fc:	4630      	mov	r0, r6
 80043fe:	f810 1b01 	ldrb.w	r1, [r0], #1
 8004402:	f001 07fb 	and.w	r7, r1, #251	; 0xfb
 8004406:	2f68      	cmp	r7, #104	; 0x68
 8004408:	4606      	mov	r6, r0
 800440a:	d0f8      	beq.n	80043fe <SEGGER_RTT_vprintf+0xb6>
 800440c:	2978      	cmp	r1, #120	; 0x78
 800440e:	d809      	bhi.n	8004424 <SEGGER_RTT_vprintf+0xdc>
 8004410:	296f      	cmp	r1, #111	; 0x6f
 8004412:	d80b      	bhi.n	800442c <SEGGER_RTT_vprintf+0xe4>
 8004414:	2963      	cmp	r1, #99	; 0x63
 8004416:	d066      	beq.n	80044e6 <SEGGER_RTT_vprintf+0x19e>
 8004418:	d820      	bhi.n	800445c <SEGGER_RTT_vprintf+0x114>
 800441a:	2925      	cmp	r1, #37	; 0x25
 800441c:	d067      	beq.n	80044ee <SEGGER_RTT_vprintf+0x1a6>
 800441e:	2958      	cmp	r1, #88	; 0x58
 8004420:	f000 8094 	beq.w	800454c <SEGGER_RTT_vprintf+0x204>
 8004424:	9b08      	ldr	r3, [sp, #32]
 8004426:	2b00      	cmp	r3, #0
 8004428:	da9e      	bge.n	8004368 <SEGGER_RTT_vprintf+0x20>
 800442a:	e7a0      	b.n	800436e <SEGGER_RTT_vprintf+0x26>
 800442c:	3970      	subs	r1, #112	; 0x70
 800442e:	2908      	cmp	r1, #8
 8004430:	d8f8      	bhi.n	8004424 <SEGGER_RTT_vprintf+0xdc>
 8004432:	a301      	add	r3, pc, #4	; (adr r3, 8004438 <SEGGER_RTT_vprintf+0xf0>)
 8004434:	f853 f021 	ldr.w	pc, [r3, r1, lsl #2]
 8004438:	0800457d 	.word	0x0800457d
 800443c:	08004425 	.word	0x08004425
 8004440:	08004425 	.word	0x08004425
 8004444:	0800455d 	.word	0x0800455d
 8004448:	08004425 	.word	0x08004425
 800444c:	0800453b 	.word	0x0800453b
 8004450:	08004425 	.word	0x08004425
 8004454:	08004425 	.word	0x08004425
 8004458:	0800454d 	.word	0x0800454d
 800445c:	2964      	cmp	r1, #100	; 0x64
 800445e:	d1e1      	bne.n	8004424 <SEGGER_RTT_vprintf+0xdc>
 8004460:	6829      	ldr	r1, [r5, #0]
 8004462:	680f      	ldr	r7, [r1, #0]
 8004464:	1d08      	adds	r0, r1, #4
 8004466:	ea87 71e7 	eor.w	r1, r7, r7, asr #31
 800446a:	6028      	str	r0, [r5, #0]
 800446c:	eba1 71e7 	sub.w	r1, r1, r7, asr #31
 8004470:	f04f 0801 	mov.w	r8, #1
 8004474:	2909      	cmp	r1, #9
 8004476:	dc3e      	bgt.n	80044f6 <SEGGER_RTT_vprintf+0x1ae>
 8004478:	45c8      	cmp	r8, r9
 800447a:	bf38      	it	cc
 800447c:	46c8      	movcc	r8, r9
 800447e:	b12c      	cbz	r4, 800448c <SEGGER_RTT_vprintf+0x144>
 8004480:	2f00      	cmp	r7, #0
 8004482:	db02      	blt.n	800448a <SEGGER_RTT_vprintf+0x142>
 8004484:	f01b 0f04 	tst.w	fp, #4
 8004488:	d000      	beq.n	800448c <SEGGER_RTT_vprintf+0x144>
 800448a:	3c01      	subs	r4, #1
 800448c:	f01b 0f02 	tst.w	fp, #2
 8004490:	d002      	beq.n	8004498 <SEGGER_RTT_vprintf+0x150>
 8004492:	f1b9 0f00 	cmp.w	r9, #0
 8004496:	d004      	beq.n	80044a2 <SEGGER_RTT_vprintf+0x15a>
 8004498:	f01b 0f01 	tst.w	fp, #1
 800449c:	d101      	bne.n	80044a2 <SEGGER_RTT_vprintf+0x15a>
 800449e:	bb7c      	cbnz	r4, 8004500 <SEGGER_RTT_vprintf+0x1b8>
 80044a0:	2400      	movs	r4, #0
 80044a2:	9908      	ldr	r1, [sp, #32]
 80044a4:	2900      	cmp	r1, #0
 80044a6:	dbbd      	blt.n	8004424 <SEGGER_RTT_vprintf+0xdc>
 80044a8:	2f00      	cmp	r7, #0
 80044aa:	da35      	bge.n	8004518 <SEGGER_RTT_vprintf+0x1d0>
 80044ac:	427f      	negs	r7, r7
 80044ae:	212d      	movs	r1, #45	; 0x2d
 80044b0:	a805      	add	r0, sp, #20
 80044b2:	f7ff fec3 	bl	800423c <_StoreChar>
 80044b6:	9908      	ldr	r1, [sp, #32]
 80044b8:	2900      	cmp	r1, #0
 80044ba:	dbb3      	blt.n	8004424 <SEGGER_RTT_vprintf+0xdc>
 80044bc:	f00b 0103 	and.w	r1, fp, #3
 80044c0:	2902      	cmp	r1, #2
 80044c2:	d104      	bne.n	80044ce <SEGGER_RTT_vprintf+0x186>
 80044c4:	f1b9 0f00 	cmp.w	r9, #0
 80044c8:	d101      	bne.n	80044ce <SEGGER_RTT_vprintf+0x186>
 80044ca:	bb54      	cbnz	r4, 8004522 <SEGGER_RTT_vprintf+0x1da>
 80044cc:	2400      	movs	r4, #0
 80044ce:	9908      	ldr	r1, [sp, #32]
 80044d0:	2900      	cmp	r1, #0
 80044d2:	dba7      	blt.n	8004424 <SEGGER_RTT_vprintf+0xdc>
 80044d4:	e9cd 4b00 	strd	r4, fp, [sp]
 80044d8:	464b      	mov	r3, r9
 80044da:	220a      	movs	r2, #10
 80044dc:	4639      	mov	r1, r7
 80044de:	a805      	add	r0, sp, #20
 80044e0:	f7ff feca 	bl	8004278 <_PrintUnsigned>
 80044e4:	e79e      	b.n	8004424 <SEGGER_RTT_vprintf+0xdc>
 80044e6:	682b      	ldr	r3, [r5, #0]
 80044e8:	1d1a      	adds	r2, r3, #4
 80044ea:	7819      	ldrb	r1, [r3, #0]
 80044ec:	602a      	str	r2, [r5, #0]
 80044ee:	a805      	add	r0, sp, #20
 80044f0:	f7ff fea4 	bl	800423c <_StoreChar>
 80044f4:	e796      	b.n	8004424 <SEGGER_RTT_vprintf+0xdc>
 80044f6:	f108 0801 	add.w	r8, r8, #1
 80044fa:	fbb1 f1fa 	udiv	r1, r1, sl
 80044fe:	e7b9      	b.n	8004474 <SEGGER_RTT_vprintf+0x12c>
 8004500:	45a0      	cmp	r8, r4
 8004502:	d2ce      	bcs.n	80044a2 <SEGGER_RTT_vprintf+0x15a>
 8004504:	2120      	movs	r1, #32
 8004506:	a805      	add	r0, sp, #20
 8004508:	f7ff fe98 	bl	800423c <_StoreChar>
 800450c:	9908      	ldr	r1, [sp, #32]
 800450e:	2900      	cmp	r1, #0
 8004510:	f104 34ff 	add.w	r4, r4, #4294967295
 8004514:	dac3      	bge.n	800449e <SEGGER_RTT_vprintf+0x156>
 8004516:	e7c4      	b.n	80044a2 <SEGGER_RTT_vprintf+0x15a>
 8004518:	f01b 0f04 	tst.w	fp, #4
 800451c:	d0cb      	beq.n	80044b6 <SEGGER_RTT_vprintf+0x16e>
 800451e:	212b      	movs	r1, #43	; 0x2b
 8004520:	e7c6      	b.n	80044b0 <SEGGER_RTT_vprintf+0x168>
 8004522:	45a0      	cmp	r8, r4
 8004524:	d2d3      	bcs.n	80044ce <SEGGER_RTT_vprintf+0x186>
 8004526:	2130      	movs	r1, #48	; 0x30
 8004528:	a805      	add	r0, sp, #20
 800452a:	f7ff fe87 	bl	800423c <_StoreChar>
 800452e:	9908      	ldr	r1, [sp, #32]
 8004530:	2900      	cmp	r1, #0
 8004532:	f104 34ff 	add.w	r4, r4, #4294967295
 8004536:	dac8      	bge.n	80044ca <SEGGER_RTT_vprintf+0x182>
 8004538:	e7c9      	b.n	80044ce <SEGGER_RTT_vprintf+0x186>
 800453a:	6829      	ldr	r1, [r5, #0]
 800453c:	e9cd 4b00 	strd	r4, fp, [sp]
 8004540:	1d08      	adds	r0, r1, #4
 8004542:	6028      	str	r0, [r5, #0]
 8004544:	464b      	mov	r3, r9
 8004546:	220a      	movs	r2, #10
 8004548:	6809      	ldr	r1, [r1, #0]
 800454a:	e7c8      	b.n	80044de <SEGGER_RTT_vprintf+0x196>
 800454c:	6829      	ldr	r1, [r5, #0]
 800454e:	e9cd 4b00 	strd	r4, fp, [sp]
 8004552:	1d08      	adds	r0, r1, #4
 8004554:	6028      	str	r0, [r5, #0]
 8004556:	464b      	mov	r3, r9
 8004558:	2210      	movs	r2, #16
 800455a:	e7f5      	b.n	8004548 <SEGGER_RTT_vprintf+0x200>
 800455c:	682b      	ldr	r3, [r5, #0]
 800455e:	1d1a      	adds	r2, r3, #4
 8004560:	602a      	str	r2, [r5, #0]
 8004562:	681c      	ldr	r4, [r3, #0]
 8004564:	f814 1b01 	ldrb.w	r1, [r4], #1
 8004568:	2900      	cmp	r1, #0
 800456a:	f43f af5b 	beq.w	8004424 <SEGGER_RTT_vprintf+0xdc>
 800456e:	a805      	add	r0, sp, #20
 8004570:	f7ff fe64 	bl	800423c <_StoreChar>
 8004574:	9b08      	ldr	r3, [sp, #32]
 8004576:	2b00      	cmp	r3, #0
 8004578:	daf4      	bge.n	8004564 <SEGGER_RTT_vprintf+0x21c>
 800457a:	e753      	b.n	8004424 <SEGGER_RTT_vprintf+0xdc>
 800457c:	6829      	ldr	r1, [r5, #0]
 800457e:	1d0b      	adds	r3, r1, #4
 8004580:	602b      	str	r3, [r5, #0]
 8004582:	2200      	movs	r2, #0
 8004584:	2308      	movs	r3, #8
 8004586:	e9cd 3200 	strd	r3, r2, [sp]
 800458a:	e7e5      	b.n	8004558 <SEGGER_RTT_vprintf+0x210>
 800458c:	9a07      	ldr	r2, [sp, #28]
 800458e:	b11a      	cbz	r2, 8004598 <SEGGER_RTT_vprintf+0x250>
 8004590:	9803      	ldr	r0, [sp, #12]
 8004592:	a90a      	add	r1, sp, #40	; 0x28
 8004594:	f7ff fe38 	bl	8004208 <SEGGER_RTT_Write>
 8004598:	e9dd 2307 	ldrd	r2, r3, [sp, #28]
 800459c:	4413      	add	r3, r2
 800459e:	9308      	str	r3, [sp, #32]
 80045a0:	e6e9      	b.n	8004376 <SEGGER_RTT_vprintf+0x2e>
 80045a2:	bf00      	nop

080045a4 <SEGGER_RTT_printf>:
 80045a4:	b40e      	push	{r1, r2, r3}
 80045a6:	b503      	push	{r0, r1, lr}
 80045a8:	ab03      	add	r3, sp, #12
 80045aa:	aa01      	add	r2, sp, #4
 80045ac:	f853 1b04 	ldr.w	r1, [r3], #4
 80045b0:	9301      	str	r3, [sp, #4]
 80045b2:	f7ff fec9 	bl	8004348 <SEGGER_RTT_vprintf>
 80045b6:	b002      	add	sp, #8
 80045b8:	f85d eb04 	ldr.w	lr, [sp], #4
 80045bc:	b003      	add	sp, #12
 80045be:	4770      	bx	lr

080045c0 <eMBFuncReadCoils>:
 80045c0:	b538      	push	{r3, r4, r5, lr}
 80045c2:	880b      	ldrh	r3, [r1, #0]
 80045c4:	2b05      	cmp	r3, #5
 80045c6:	460c      	mov	r4, r1
 80045c8:	d12e      	bne.n	8004628 <eMBFuncReadCoils+0x68>
 80045ca:	f8b0 2003 	ldrh.w	r2, [r0, #3]
 80045ce:	ba52      	rev16	r2, r2
 80045d0:	b292      	uxth	r2, r2
 80045d2:	1e53      	subs	r3, r2, #1
 80045d4:	b29b      	uxth	r3, r3
 80045d6:	f240 71ce 	movw	r1, #1998	; 0x7ce
 80045da:	428b      	cmp	r3, r1
 80045dc:	d824      	bhi.n	8004628 <eMBFuncReadCoils+0x68>
 80045de:	2300      	movs	r3, #0
 80045e0:	f8b0 1001 	ldrh.w	r1, [r0, #1]
 80045e4:	8023      	strh	r3, [r4, #0]
 80045e6:	2301      	movs	r3, #1
 80045e8:	7003      	strb	r3, [r0, #0]
 80045ea:	8823      	ldrh	r3, [r4, #0]
 80045ec:	3301      	adds	r3, #1
 80045ee:	8023      	strh	r3, [r4, #0]
 80045f0:	f3c2 05c7 	ubfx	r5, r2, #3, #8
 80045f4:	0753      	lsls	r3, r2, #29
 80045f6:	bf1c      	itt	ne
 80045f8:	3501      	addne	r5, #1
 80045fa:	b2ed      	uxtbne	r5, r5
 80045fc:	7045      	strb	r5, [r0, #1]
 80045fe:	8823      	ldrh	r3, [r4, #0]
 8004600:	ba49      	rev16	r1, r1
 8004602:	3301      	adds	r3, #1
 8004604:	3101      	adds	r1, #1
 8004606:	8023      	strh	r3, [r4, #0]
 8004608:	b289      	uxth	r1, r1
 800460a:	2300      	movs	r3, #0
 800460c:	3002      	adds	r0, #2
 800460e:	f7fc fe61 	bl	80012d4 <eMBRegCoilsCB>
 8004612:	4603      	mov	r3, r0
 8004614:	b118      	cbz	r0, 800461e <eMBFuncReadCoils+0x5e>
 8004616:	e8bd 4038 	ldmia.w	sp!, {r3, r4, r5, lr}
 800461a:	f000 b983 	b.w	8004924 <prveMBError2Exception>
 800461e:	8822      	ldrh	r2, [r4, #0]
 8004620:	4415      	add	r5, r2
 8004622:	8025      	strh	r5, [r4, #0]
 8004624:	4618      	mov	r0, r3
 8004626:	bd38      	pop	{r3, r4, r5, pc}
 8004628:	2303      	movs	r3, #3
 800462a:	e7fb      	b.n	8004624 <eMBFuncReadCoils+0x64>

0800462c <eMBFuncWriteCoil>:
 800462c:	880b      	ldrh	r3, [r1, #0]
 800462e:	2b05      	cmp	r3, #5
 8004630:	b513      	push	{r0, r1, r4, lr}
 8004632:	d120      	bne.n	8004676 <eMBFuncWriteCoil+0x4a>
 8004634:	7904      	ldrb	r4, [r0, #4]
 8004636:	b9f4      	cbnz	r4, 8004676 <eMBFuncWriteCoil+0x4a>
 8004638:	78c3      	ldrb	r3, [r0, #3]
 800463a:	1e5a      	subs	r2, r3, #1
 800463c:	b2d2      	uxtb	r2, r2
 800463e:	2afd      	cmp	r2, #253	; 0xfd
 8004640:	d919      	bls.n	8004676 <eMBFuncWriteCoil+0x4a>
 8004642:	f8b0 1001 	ldrh.w	r1, [r0, #1]
 8004646:	f88d 4005 	strb.w	r4, [sp, #5]
 800464a:	f1a3 02ff 	sub.w	r2, r3, #255	; 0xff
 800464e:	4253      	negs	r3, r2
 8004650:	4153      	adcs	r3, r2
 8004652:	ba49      	rev16	r1, r1
 8004654:	f88d 3004 	strb.w	r3, [sp, #4]
 8004658:	3101      	adds	r1, #1
 800465a:	2301      	movs	r3, #1
 800465c:	461a      	mov	r2, r3
 800465e:	b289      	uxth	r1, r1
 8004660:	a801      	add	r0, sp, #4
 8004662:	f7fc fe37 	bl	80012d4 <eMBRegCoilsCB>
 8004666:	4603      	mov	r3, r0
 8004668:	b110      	cbz	r0, 8004670 <eMBFuncWriteCoil+0x44>
 800466a:	f000 f95b 	bl	8004924 <prveMBError2Exception>
 800466e:	4603      	mov	r3, r0
 8004670:	4618      	mov	r0, r3
 8004672:	b002      	add	sp, #8
 8004674:	bd10      	pop	{r4, pc}
 8004676:	2303      	movs	r3, #3
 8004678:	e7fa      	b.n	8004670 <eMBFuncWriteCoil+0x44>

0800467a <eMBFuncWriteMultipleCoils>:
 800467a:	b538      	push	{r3, r4, r5, lr}
 800467c:	880b      	ldrh	r3, [r1, #0]
 800467e:	2b05      	cmp	r3, #5
 8004680:	460d      	mov	r5, r1
 8004682:	d925      	bls.n	80046d0 <eMBFuncWriteMultipleCoils+0x56>
 8004684:	f8b0 1003 	ldrh.w	r1, [r0, #3]
 8004688:	ba49      	rev16	r1, r1
 800468a:	f3c1 03c7 	ubfx	r3, r1, #3, #8
 800468e:	b28a      	uxth	r2, r1
 8004690:	0749      	lsls	r1, r1, #29
 8004692:	bf18      	it	ne
 8004694:	3301      	addne	r3, #1
 8004696:	f102 31ff 	add.w	r1, r2, #4294967295
 800469a:	bf18      	it	ne
 800469c:	b2db      	uxtbne	r3, r3
 800469e:	f5b1 6ff6 	cmp.w	r1, #1968	; 0x7b0
 80046a2:	d215      	bcs.n	80046d0 <eMBFuncWriteMultipleCoils+0x56>
 80046a4:	7941      	ldrb	r1, [r0, #5]
 80046a6:	4299      	cmp	r1, r3
 80046a8:	d112      	bne.n	80046d0 <eMBFuncWriteMultipleCoils+0x56>
 80046aa:	f8b0 4001 	ldrh.w	r4, [r0, #1]
 80046ae:	ba64      	rev16	r4, r4
 80046b0:	3401      	adds	r4, #1
 80046b2:	2301      	movs	r3, #1
 80046b4:	b2a1      	uxth	r1, r4
 80046b6:	3006      	adds	r0, #6
 80046b8:	f7fc fe0c 	bl	80012d4 <eMBRegCoilsCB>
 80046bc:	4603      	mov	r3, r0
 80046be:	b118      	cbz	r0, 80046c8 <eMBFuncWriteMultipleCoils+0x4e>
 80046c0:	e8bd 4038 	ldmia.w	sp!, {r3, r4, r5, lr}
 80046c4:	f000 b92e 	b.w	8004924 <prveMBError2Exception>
 80046c8:	2205      	movs	r2, #5
 80046ca:	802a      	strh	r2, [r5, #0]
 80046cc:	4618      	mov	r0, r3
 80046ce:	bd38      	pop	{r3, r4, r5, pc}
 80046d0:	2303      	movs	r3, #3
 80046d2:	e7fb      	b.n	80046cc <eMBFuncWriteMultipleCoils+0x52>

080046d4 <eMBFuncReadDiscreteInputs>:
 80046d4:	b538      	push	{r3, r4, r5, lr}
 80046d6:	880b      	ldrh	r3, [r1, #0]
 80046d8:	2b05      	cmp	r3, #5
 80046da:	460c      	mov	r4, r1
 80046dc:	d12d      	bne.n	800473a <eMBFuncReadDiscreteInputs+0x66>
 80046de:	f8b0 2003 	ldrh.w	r2, [r0, #3]
 80046e2:	ba52      	rev16	r2, r2
 80046e4:	b292      	uxth	r2, r2
 80046e6:	1e53      	subs	r3, r2, #1
 80046e8:	b29b      	uxth	r3, r3
 80046ea:	f240 71ce 	movw	r1, #1998	; 0x7ce
 80046ee:	428b      	cmp	r3, r1
 80046f0:	d823      	bhi.n	800473a <eMBFuncReadDiscreteInputs+0x66>
 80046f2:	2300      	movs	r3, #0
 80046f4:	f8b0 1001 	ldrh.w	r1, [r0, #1]
 80046f8:	8023      	strh	r3, [r4, #0]
 80046fa:	2302      	movs	r3, #2
 80046fc:	7003      	strb	r3, [r0, #0]
 80046fe:	8823      	ldrh	r3, [r4, #0]
 8004700:	3301      	adds	r3, #1
 8004702:	8023      	strh	r3, [r4, #0]
 8004704:	f3c2 05c7 	ubfx	r5, r2, #3, #8
 8004708:	0753      	lsls	r3, r2, #29
 800470a:	bf1c      	itt	ne
 800470c:	3501      	addne	r5, #1
 800470e:	b2ed      	uxtbne	r5, r5
 8004710:	7045      	strb	r5, [r0, #1]
 8004712:	8823      	ldrh	r3, [r4, #0]
 8004714:	ba49      	rev16	r1, r1
 8004716:	3301      	adds	r3, #1
 8004718:	3101      	adds	r1, #1
 800471a:	8023      	strh	r3, [r4, #0]
 800471c:	b289      	uxth	r1, r1
 800471e:	3002      	adds	r0, #2
 8004720:	f7fc fdda 	bl	80012d8 <eMBRegDiscreteCB>
 8004724:	4603      	mov	r3, r0
 8004726:	b118      	cbz	r0, 8004730 <eMBFuncReadDiscreteInputs+0x5c>
 8004728:	e8bd 4038 	ldmia.w	sp!, {r3, r4, r5, lr}
 800472c:	f000 b8fa 	b.w	8004924 <prveMBError2Exception>
 8004730:	8822      	ldrh	r2, [r4, #0]
 8004732:	4415      	add	r5, r2
 8004734:	8025      	strh	r5, [r4, #0]
 8004736:	4618      	mov	r0, r3
 8004738:	bd38      	pop	{r3, r4, r5, pc}
 800473a:	2303      	movs	r3, #3
 800473c:	e7fb      	b.n	8004736 <eMBFuncReadDiscreteInputs+0x62>

0800473e <eMBFuncWriteHoldingRegister>:
 800473e:	b508      	push	{r3, lr}
 8004740:	880b      	ldrh	r3, [r1, #0]
 8004742:	2b05      	cmp	r3, #5
 8004744:	d10f      	bne.n	8004766 <eMBFuncWriteHoldingRegister+0x28>
 8004746:	f8b0 1001 	ldrh.w	r1, [r0, #1]
 800474a:	ba49      	rev16	r1, r1
 800474c:	2301      	movs	r3, #1
 800474e:	3101      	adds	r1, #1
 8004750:	461a      	mov	r2, r3
 8004752:	b289      	uxth	r1, r1
 8004754:	3003      	adds	r0, #3
 8004756:	f7fc fdbb 	bl	80012d0 <eMBRegHoldingCB>
 800475a:	4603      	mov	r3, r0
 800475c:	b120      	cbz	r0, 8004768 <eMBFuncWriteHoldingRegister+0x2a>
 800475e:	e8bd 4008 	ldmia.w	sp!, {r3, lr}
 8004762:	f000 b8df 	b.w	8004924 <prveMBError2Exception>
 8004766:	2303      	movs	r3, #3
 8004768:	4618      	mov	r0, r3
 800476a:	bd08      	pop	{r3, pc}

0800476c <eMBFuncWriteMultipleHoldingRegister>:
 800476c:	b538      	push	{r3, r4, r5, lr}
 800476e:	880b      	ldrh	r3, [r1, #0]
 8004770:	2b05      	cmp	r3, #5
 8004772:	460d      	mov	r5, r1
 8004774:	d91e      	bls.n	80047b4 <eMBFuncWriteMultipleHoldingRegister+0x48>
 8004776:	f8b0 2003 	ldrh.w	r2, [r0, #3]
 800477a:	ba52      	rev16	r2, r2
 800477c:	b292      	uxth	r2, r2
 800477e:	1e53      	subs	r3, r2, #1
 8004780:	2b77      	cmp	r3, #119	; 0x77
 8004782:	d817      	bhi.n	80047b4 <eMBFuncWriteMultipleHoldingRegister+0x48>
 8004784:	7941      	ldrb	r1, [r0, #5]
 8004786:	0053      	lsls	r3, r2, #1
 8004788:	b2db      	uxtb	r3, r3
 800478a:	4299      	cmp	r1, r3
 800478c:	d112      	bne.n	80047b4 <eMBFuncWriteMultipleHoldingRegister+0x48>
 800478e:	f8b0 4001 	ldrh.w	r4, [r0, #1]
 8004792:	ba64      	rev16	r4, r4
 8004794:	3401      	adds	r4, #1
 8004796:	2301      	movs	r3, #1
 8004798:	b2a1      	uxth	r1, r4
 800479a:	3006      	adds	r0, #6
 800479c:	f7fc fd98 	bl	80012d0 <eMBRegHoldingCB>
 80047a0:	4603      	mov	r3, r0
 80047a2:	b118      	cbz	r0, 80047ac <eMBFuncWriteMultipleHoldingRegister+0x40>
 80047a4:	e8bd 4038 	ldmia.w	sp!, {r3, r4, r5, lr}
 80047a8:	f000 b8bc 	b.w	8004924 <prveMBError2Exception>
 80047ac:	2205      	movs	r2, #5
 80047ae:	802a      	strh	r2, [r5, #0]
 80047b0:	4618      	mov	r0, r3
 80047b2:	bd38      	pop	{r3, r4, r5, pc}
 80047b4:	2303      	movs	r3, #3
 80047b6:	e7fb      	b.n	80047b0 <eMBFuncWriteMultipleHoldingRegister+0x44>

080047b8 <eMBFuncReadHoldingRegister>:
 80047b8:	880b      	ldrh	r3, [r1, #0]
 80047ba:	2b05      	cmp	r3, #5
 80047bc:	b570      	push	{r4, r5, r6, lr}
 80047be:	460c      	mov	r4, r1
 80047c0:	d125      	bne.n	800480e <eMBFuncReadHoldingRegister+0x56>
 80047c2:	7902      	ldrb	r2, [r0, #4]
 80047c4:	1e53      	subs	r3, r2, #1
 80047c6:	2b7c      	cmp	r3, #124	; 0x7c
 80047c8:	4615      	mov	r5, r2
 80047ca:	d820      	bhi.n	800480e <eMBFuncReadHoldingRegister+0x56>
 80047cc:	2300      	movs	r3, #0
 80047ce:	2603      	movs	r6, #3
 80047d0:	f8b0 1001 	ldrh.w	r1, [r0, #1]
 80047d4:	8023      	strh	r3, [r4, #0]
 80047d6:	7006      	strb	r6, [r0, #0]
 80047d8:	8826      	ldrh	r6, [r4, #0]
 80047da:	0052      	lsls	r2, r2, #1
 80047dc:	3601      	adds	r6, #1
 80047de:	8026      	strh	r6, [r4, #0]
 80047e0:	7042      	strb	r2, [r0, #1]
 80047e2:	8822      	ldrh	r2, [r4, #0]
 80047e4:	ba49      	rev16	r1, r1
 80047e6:	3201      	adds	r2, #1
 80047e8:	3101      	adds	r1, #1
 80047ea:	8022      	strh	r2, [r4, #0]
 80047ec:	b289      	uxth	r1, r1
 80047ee:	462a      	mov	r2, r5
 80047f0:	3002      	adds	r0, #2
 80047f2:	f7fc fd6d 	bl	80012d0 <eMBRegHoldingCB>
 80047f6:	4603      	mov	r3, r0
 80047f8:	b118      	cbz	r0, 8004802 <eMBFuncReadHoldingRegister+0x4a>
 80047fa:	e8bd 4070 	ldmia.w	sp!, {r4, r5, r6, lr}
 80047fe:	f000 b891 	b.w	8004924 <prveMBError2Exception>
 8004802:	8821      	ldrh	r1, [r4, #0]
 8004804:	eb01 0145 	add.w	r1, r1, r5, lsl #1
 8004808:	8021      	strh	r1, [r4, #0]
 800480a:	4618      	mov	r0, r3
 800480c:	bd70      	pop	{r4, r5, r6, pc}
 800480e:	2303      	movs	r3, #3
 8004810:	e7fb      	b.n	800480a <eMBFuncReadHoldingRegister+0x52>

08004812 <eMBFuncReadWriteMultipleHoldingRegister>:
 8004812:	880b      	ldrh	r3, [r1, #0]
 8004814:	2b09      	cmp	r3, #9
 8004816:	e92d 41f0 	stmdb	sp!, {r4, r5, r6, r7, r8, lr}
 800481a:	4604      	mov	r4, r0
 800481c:	460d      	mov	r5, r1
 800481e:	d939      	bls.n	8004894 <eMBFuncReadWriteMultipleHoldingRegister+0x82>
 8004820:	f8b0 6003 	ldrh.w	r6, [r0, #3]
 8004824:	ba76      	rev16	r6, r6
 8004826:	b2b6      	uxth	r6, r6
 8004828:	1e73      	subs	r3, r6, #1
 800482a:	2b7c      	cmp	r3, #124	; 0x7c
 800482c:	d834      	bhi.n	8004898 <eMBFuncReadWriteMultipleHoldingRegister+0x86>
 800482e:	f8b0 2007 	ldrh.w	r2, [r0, #7]
 8004832:	ba52      	rev16	r2, r2
 8004834:	b292      	uxth	r2, r2
 8004836:	1e53      	subs	r3, r2, #1
 8004838:	2b78      	cmp	r3, #120	; 0x78
 800483a:	d82d      	bhi.n	8004898 <eMBFuncReadWriteMultipleHoldingRegister+0x86>
 800483c:	7a43      	ldrb	r3, [r0, #9]
 800483e:	ebb3 0f42 	cmp.w	r3, r2, lsl #1
 8004842:	d129      	bne.n	8004898 <eMBFuncReadWriteMultipleHoldingRegister+0x86>
 8004844:	f8b0 1005 	ldrh.w	r1, [r0, #5]
 8004848:	f8b0 7001 	ldrh.w	r7, [r0, #1]
 800484c:	ba49      	rev16	r1, r1
 800484e:	3101      	adds	r1, #1
 8004850:	2301      	movs	r3, #1
 8004852:	b289      	uxth	r1, r1
 8004854:	300a      	adds	r0, #10
 8004856:	f7fc fd3b 	bl	80012d0 <eMBRegHoldingCB>
 800485a:	b9f8      	cbnz	r0, 800489c <eMBFuncReadWriteMultipleHoldingRegister+0x8a>
 800485c:	2317      	movs	r3, #23
 800485e:	8028      	strh	r0, [r5, #0]
 8004860:	7023      	strb	r3, [r4, #0]
 8004862:	882b      	ldrh	r3, [r5, #0]
 8004864:	ea4f 0846 	mov.w	r8, r6, lsl #1
 8004868:	3301      	adds	r3, #1
 800486a:	802b      	strh	r3, [r5, #0]
 800486c:	f884 8001 	strb.w	r8, [r4, #1]
 8004870:	882b      	ldrh	r3, [r5, #0]
 8004872:	ba79      	rev16	r1, r7
 8004874:	3301      	adds	r3, #1
 8004876:	3101      	adds	r1, #1
 8004878:	802b      	strh	r3, [r5, #0]
 800487a:	4632      	mov	r2, r6
 800487c:	4603      	mov	r3, r0
 800487e:	b289      	uxth	r1, r1
 8004880:	1ca0      	adds	r0, r4, #2
 8004882:	f7fc fd25 	bl	80012d0 <eMBRegHoldingCB>
 8004886:	b948      	cbnz	r0, 800489c <eMBFuncReadWriteMultipleHoldingRegister+0x8a>
 8004888:	882b      	ldrh	r3, [r5, #0]
 800488a:	4498      	add	r8, r3
 800488c:	f8a5 8000 	strh.w	r8, [r5]
 8004890:	e8bd 81f0 	ldmia.w	sp!, {r4, r5, r6, r7, r8, pc}
 8004894:	2000      	movs	r0, #0
 8004896:	e7fb      	b.n	8004890 <eMBFuncReadWriteMultipleHoldingRegister+0x7e>
 8004898:	2003      	movs	r0, #3
 800489a:	e7f9      	b.n	8004890 <eMBFuncReadWriteMultipleHoldingRegister+0x7e>
 800489c:	e8bd 41f0 	ldmia.w	sp!, {r4, r5, r6, r7, r8, lr}
 80048a0:	f000 b840 	b.w	8004924 <prveMBError2Exception>

080048a4 <eMBFuncReadInputRegister>:
 80048a4:	b538      	push	{r3, r4, r5, lr}
 80048a6:	880b      	ldrh	r3, [r1, #0]
 80048a8:	2b05      	cmp	r3, #5
 80048aa:	460c      	mov	r4, r1
 80048ac:	d125      	bne.n	80048fa <eMBFuncReadInputRegister+0x56>
 80048ae:	f8b0 2003 	ldrh.w	r2, [r0, #3]
 80048b2:	ba52      	rev16	r2, r2
 80048b4:	b292      	uxth	r2, r2
 80048b6:	1e53      	subs	r3, r2, #1
 80048b8:	2b7b      	cmp	r3, #123	; 0x7b
 80048ba:	d81e      	bhi.n	80048fa <eMBFuncReadInputRegister+0x56>
 80048bc:	2300      	movs	r3, #0
 80048be:	f8b0 1001 	ldrh.w	r1, [r0, #1]
 80048c2:	8023      	strh	r3, [r4, #0]
 80048c4:	2304      	movs	r3, #4
 80048c6:	7003      	strb	r3, [r0, #0]
 80048c8:	8823      	ldrh	r3, [r4, #0]
 80048ca:	0055      	lsls	r5, r2, #1
 80048cc:	3301      	adds	r3, #1
 80048ce:	8023      	strh	r3, [r4, #0]
 80048d0:	7045      	strb	r5, [r0, #1]
 80048d2:	8823      	ldrh	r3, [r4, #0]
 80048d4:	ba49      	rev16	r1, r1
 80048d6:	3301      	adds	r3, #1
 80048d8:	3101      	adds	r1, #1
 80048da:	8023      	strh	r3, [r4, #0]
 80048dc:	b289      	uxth	r1, r1
 80048de:	3002      	adds	r0, #2
 80048e0:	f7fc fcd4 	bl	800128c <eMBRegInputCB>
 80048e4:	4603      	mov	r3, r0
 80048e6:	b118      	cbz	r0, 80048f0 <eMBFuncReadInputRegister+0x4c>
 80048e8:	e8bd 4038 	ldmia.w	sp!, {r3, r4, r5, lr}
 80048ec:	f000 b81a 	b.w	8004924 <prveMBError2Exception>
 80048f0:	8822      	ldrh	r2, [r4, #0]
 80048f2:	4415      	add	r5, r2
 80048f4:	8025      	strh	r5, [r4, #0]
 80048f6:	4618      	mov	r0, r3
 80048f8:	bd38      	pop	{r3, r4, r5, pc}
 80048fa:	2303      	movs	r3, #3
 80048fc:	e7fb      	b.n	80048f6 <eMBFuncReadInputRegister+0x52>
	...

08004900 <eMBFuncReportSlaveID>:
 8004900:	b538      	push	{r3, r4, r5, lr}
 8004902:	4b06      	ldr	r3, [pc, #24]	; (800491c <eMBFuncReportSlaveID+0x1c>)
 8004904:	881c      	ldrh	r4, [r3, #0]
 8004906:	460d      	mov	r5, r1
 8004908:	4622      	mov	r2, r4
 800490a:	4905      	ldr	r1, [pc, #20]	; (8004920 <eMBFuncReportSlaveID+0x20>)
 800490c:	3401      	adds	r4, #1
 800490e:	3001      	adds	r0, #1
 8004910:	f000 fbc6 	bl	80050a0 <memcpy>
 8004914:	802c      	strh	r4, [r5, #0]
 8004916:	2000      	movs	r0, #0
 8004918:	bd38      	pop	{r3, r4, r5, pc}
 800491a:	bf00      	nop
 800491c:	200024d0 	.word	0x200024d0
 8004920:	200024b0 	.word	0x200024b0

08004924 <prveMBError2Exception>:
 8004924:	2807      	cmp	r0, #7
 8004926:	bf9a      	itte	ls
 8004928:	4b01      	ldrls	r3, [pc, #4]	; (8004930 <prveMBError2Exception+0xc>)
 800492a:	5c18      	ldrbls	r0, [r3, r0]
 800492c:	2004      	movhi	r0, #4
 800492e:	4770      	bx	lr
 8004930:	08007ee0 	.word	0x08007ee0

08004934 <eMBInit>:
 8004934:	b538      	push	{r3, r4, r5, lr}
 8004936:	4604      	mov	r4, r0
 8004938:	4608      	mov	r0, r1
 800493a:	4611      	mov	r1, r2
 800493c:	461a      	mov	r2, r3
 800493e:	1e43      	subs	r3, r0, #1
 8004940:	b2db      	uxtb	r3, r3
 8004942:	2bf6      	cmp	r3, #246	; 0xf6
 8004944:	d902      	bls.n	800494c <eMBInit+0x18>
 8004946:	2402      	movs	r4, #2
 8004948:	4620      	mov	r0, r4
 800494a:	bd38      	pop	{r3, r4, r5, pc}
 800494c:	4b15      	ldr	r3, [pc, #84]	; (80049a4 <eMBInit+0x70>)
 800494e:	7018      	strb	r0, [r3, #0]
 8004950:	2c00      	cmp	r4, #0
 8004952:	d1f8      	bne.n	8004946 <eMBInit+0x12>
 8004954:	4b14      	ldr	r3, [pc, #80]	; (80049a8 <eMBInit+0x74>)
 8004956:	4d15      	ldr	r5, [pc, #84]	; (80049ac <eMBInit+0x78>)
 8004958:	601d      	str	r5, [r3, #0]
 800495a:	4b15      	ldr	r3, [pc, #84]	; (80049b0 <eMBInit+0x7c>)
 800495c:	4d15      	ldr	r5, [pc, #84]	; (80049b4 <eMBInit+0x80>)
 800495e:	601d      	str	r5, [r3, #0]
 8004960:	4b15      	ldr	r3, [pc, #84]	; (80049b8 <eMBInit+0x84>)
 8004962:	4d16      	ldr	r5, [pc, #88]	; (80049bc <eMBInit+0x88>)
 8004964:	601d      	str	r5, [r3, #0]
 8004966:	4b16      	ldr	r3, [pc, #88]	; (80049c0 <eMBInit+0x8c>)
 8004968:	4d16      	ldr	r5, [pc, #88]	; (80049c4 <eMBInit+0x90>)
 800496a:	601d      	str	r5, [r3, #0]
 800496c:	4b16      	ldr	r3, [pc, #88]	; (80049c8 <eMBInit+0x94>)
 800496e:	601c      	str	r4, [r3, #0]
 8004970:	4b16      	ldr	r3, [pc, #88]	; (80049cc <eMBInit+0x98>)
 8004972:	4c17      	ldr	r4, [pc, #92]	; (80049d0 <eMBInit+0x9c>)
 8004974:	601c      	str	r4, [r3, #0]
 8004976:	4b17      	ldr	r3, [pc, #92]	; (80049d4 <eMBInit+0xa0>)
 8004978:	4c17      	ldr	r4, [pc, #92]	; (80049d8 <eMBInit+0xa4>)
 800497a:	601c      	str	r4, [r3, #0]
 800497c:	4b17      	ldr	r3, [pc, #92]	; (80049dc <eMBInit+0xa8>)
 800497e:	4c18      	ldr	r4, [pc, #96]	; (80049e0 <eMBInit+0xac>)
 8004980:	601c      	str	r4, [r3, #0]
 8004982:	f89d 3010 	ldrb.w	r3, [sp, #16]
 8004986:	f000 f9ad 	bl	8004ce4 <eMBRTUInit>
 800498a:	4604      	mov	r4, r0
 800498c:	2800      	cmp	r0, #0
 800498e:	d1db      	bne.n	8004948 <eMBInit+0x14>
 8004990:	f000 f8d0 	bl	8004b34 <xMBPortEventInit>
 8004994:	b118      	cbz	r0, 800499e <eMBInit+0x6a>
 8004996:	4b13      	ldr	r3, [pc, #76]	; (80049e4 <eMBInit+0xb0>)
 8004998:	2201      	movs	r2, #1
 800499a:	701a      	strb	r2, [r3, #0]
 800499c:	e7d4      	b.n	8004948 <eMBInit+0x14>
 800499e:	2403      	movs	r4, #3
 80049a0:	e7d2      	b.n	8004948 <eMBInit+0x14>
 80049a2:	bf00      	nop
 80049a4:	200024f5 	.word	0x200024f5
 80049a8:	200024e0 	.word	0x200024e0
 80049ac:	08004d31 	.word	0x08004d31
 80049b0:	200024e4 	.word	0x200024e4
 80049b4:	08004d55 	.word	0x08004d55
 80049b8:	200024d8 	.word	0x200024d8
 80049bc:	08004de5 	.word	0x08004de5
 80049c0:	200024d4 	.word	0x200024d4
 80049c4:	08004d71 	.word	0x08004d71
 80049c8:	200024dc 	.word	0x200024dc
 80049cc:	200024e8 	.word	0x200024e8
 80049d0:	08004e6d 	.word	0x08004e6d
 80049d4:	200024ec 	.word	0x200024ec
 80049d8:	08004f01 	.word	0x08004f01
 80049dc:	200024f0 	.word	0x200024f0
 80049e0:	08004f8d 	.word	0x08004f8d
 80049e4:	20000014 	.word	0x20000014

080049e8 <eMBEnable>:
 80049e8:	b510      	push	{r4, lr}
 80049ea:	4c06      	ldr	r4, [pc, #24]	; (8004a04 <eMBEnable+0x1c>)
 80049ec:	7823      	ldrb	r3, [r4, #0]
 80049ee:	2b01      	cmp	r3, #1
 80049f0:	d105      	bne.n	80049fe <eMBEnable+0x16>
 80049f2:	4b05      	ldr	r3, [pc, #20]	; (8004a08 <eMBEnable+0x20>)
 80049f4:	681b      	ldr	r3, [r3, #0]
 80049f6:	4798      	blx	r3
 80049f8:	2000      	movs	r0, #0
 80049fa:	7020      	strb	r0, [r4, #0]
 80049fc:	bd10      	pop	{r4, pc}
 80049fe:	2006      	movs	r0, #6
 8004a00:	e7fc      	b.n	80049fc <eMBEnable+0x14>
 8004a02:	bf00      	nop
 8004a04:	20000014 	.word	0x20000014
 8004a08:	200024e0 	.word	0x200024e0

08004a0c <eMBPoll>:
 8004a0c:	b5f7      	push	{r0, r1, r2, r4, r5, r6, r7, lr}
 8004a0e:	4b30      	ldr	r3, [pc, #192]	; (8004ad0 <eMBPoll+0xc4>)
 8004a10:	781c      	ldrb	r4, [r3, #0]
 8004a12:	2c00      	cmp	r4, #0
 8004a14:	d159      	bne.n	8004aca <eMBPoll+0xbe>
 8004a16:	f10d 0007 	add.w	r0, sp, #7
 8004a1a:	f000 f89f 	bl	8004b5c <xMBPortEventGet>
 8004a1e:	2801      	cmp	r0, #1
 8004a20:	d105      	bne.n	8004a2e <eMBPoll+0x22>
 8004a22:	f89d 3007 	ldrb.w	r3, [sp, #7]
 8004a26:	2b01      	cmp	r3, #1
 8004a28:	d004      	beq.n	8004a34 <eMBPoll+0x28>
 8004a2a:	2b02      	cmp	r3, #2
 8004a2c:	d017      	beq.n	8004a5e <eMBPoll+0x52>
 8004a2e:	4620      	mov	r0, r4
 8004a30:	b003      	add	sp, #12
 8004a32:	bdf0      	pop	{r4, r5, r6, r7, pc}
 8004a34:	4d27      	ldr	r5, [pc, #156]	; (8004ad4 <eMBPoll+0xc8>)
 8004a36:	4b28      	ldr	r3, [pc, #160]	; (8004ad8 <eMBPoll+0xcc>)
 8004a38:	4a28      	ldr	r2, [pc, #160]	; (8004adc <eMBPoll+0xd0>)
 8004a3a:	681b      	ldr	r3, [r3, #0]
 8004a3c:	4928      	ldr	r1, [pc, #160]	; (8004ae0 <eMBPoll+0xd4>)
 8004a3e:	4628      	mov	r0, r5
 8004a40:	4798      	blx	r3
 8004a42:	2800      	cmp	r0, #0
 8004a44:	d1f3      	bne.n	8004a2e <eMBPoll+0x22>
 8004a46:	4a27      	ldr	r2, [pc, #156]	; (8004ae4 <eMBPoll+0xd8>)
 8004a48:	782b      	ldrb	r3, [r5, #0]
 8004a4a:	7812      	ldrb	r2, [r2, #0]
 8004a4c:	429a      	cmp	r2, r3
 8004a4e:	d001      	beq.n	8004a54 <eMBPoll+0x48>
 8004a50:	2b00      	cmp	r3, #0
 8004a52:	d1ec      	bne.n	8004a2e <eMBPoll+0x22>
 8004a54:	2002      	movs	r0, #2
 8004a56:	f000 f875 	bl	8004b44 <xMBPortEventPost>
 8004a5a:	2400      	movs	r4, #0
 8004a5c:	e7e7      	b.n	8004a2e <eMBPoll+0x22>
 8004a5e:	4d20      	ldr	r5, [pc, #128]	; (8004ae0 <eMBPoll+0xd4>)
 8004a60:	4f21      	ldr	r7, [pc, #132]	; (8004ae8 <eMBPoll+0xdc>)
 8004a62:	f8d5 c000 	ldr.w	ip, [r5]
 8004a66:	4e21      	ldr	r6, [pc, #132]	; (8004aec <eMBPoll+0xe0>)
 8004a68:	f89c 1000 	ldrb.w	r1, [ip]
 8004a6c:	4a20      	ldr	r2, [pc, #128]	; (8004af0 <eMBPoll+0xe4>)
 8004a6e:	7039      	strb	r1, [r7, #0]
 8004a70:	7030      	strb	r0, [r6, #0]
 8004a72:	4623      	mov	r3, r4
 8004a74:	f812 0033 	ldrb.w	r0, [r2, r3, lsl #3]
 8004a78:	b140      	cbz	r0, 8004a8c <eMBPoll+0x80>
 8004a7a:	4281      	cmp	r1, r0
 8004a7c:	d121      	bne.n	8004ac2 <eMBPoll+0xb6>
 8004a7e:	eb02 03c3 	add.w	r3, r2, r3, lsl #3
 8004a82:	4916      	ldr	r1, [pc, #88]	; (8004adc <eMBPoll+0xd0>)
 8004a84:	685b      	ldr	r3, [r3, #4]
 8004a86:	4660      	mov	r0, ip
 8004a88:	4798      	blx	r3
 8004a8a:	7030      	strb	r0, [r6, #0]
 8004a8c:	4b11      	ldr	r3, [pc, #68]	; (8004ad4 <eMBPoll+0xc8>)
 8004a8e:	781b      	ldrb	r3, [r3, #0]
 8004a90:	2b00      	cmp	r3, #0
 8004a92:	d0cc      	beq.n	8004a2e <eMBPoll+0x22>
 8004a94:	7831      	ldrb	r1, [r6, #0]
 8004a96:	4b11      	ldr	r3, [pc, #68]	; (8004adc <eMBPoll+0xd0>)
 8004a98:	b159      	cbz	r1, 8004ab2 <eMBPoll+0xa6>
 8004a9a:	783a      	ldrb	r2, [r7, #0]
 8004a9c:	6828      	ldr	r0, [r5, #0]
 8004a9e:	2601      	movs	r6, #1
 8004aa0:	f062 027f 	orn	r2, r2, #127	; 0x7f
 8004aa4:	801e      	strh	r6, [r3, #0]
 8004aa6:	7002      	strb	r2, [r0, #0]
 8004aa8:	881a      	ldrh	r2, [r3, #0]
 8004aaa:	6828      	ldr	r0, [r5, #0]
 8004aac:	1996      	adds	r6, r2, r6
 8004aae:	801e      	strh	r6, [r3, #0]
 8004ab0:	5481      	strb	r1, [r0, r2]
 8004ab2:	4a10      	ldr	r2, [pc, #64]	; (8004af4 <eMBPoll+0xe8>)
 8004ab4:	6829      	ldr	r1, [r5, #0]
 8004ab6:	6816      	ldr	r6, [r2, #0]
 8004ab8:	881a      	ldrh	r2, [r3, #0]
 8004aba:	4b0a      	ldr	r3, [pc, #40]	; (8004ae4 <eMBPoll+0xd8>)
 8004abc:	7818      	ldrb	r0, [r3, #0]
 8004abe:	47b0      	blx	r6
 8004ac0:	e7b5      	b.n	8004a2e <eMBPoll+0x22>
 8004ac2:	3301      	adds	r3, #1
 8004ac4:	2b10      	cmp	r3, #16
 8004ac6:	d1d5      	bne.n	8004a74 <eMBPoll+0x68>
 8004ac8:	e7e0      	b.n	8004a8c <eMBPoll+0x80>
 8004aca:	2406      	movs	r4, #6
 8004acc:	e7af      	b.n	8004a2e <eMBPoll+0x22>
 8004ace:	bf00      	nop
 8004ad0:	20000014 	.word	0x20000014
 8004ad4:	200024fc 	.word	0x200024fc
 8004ad8:	200024d4 	.word	0x200024d4
 8004adc:	200024fe 	.word	0x200024fe
 8004ae0:	200024f8 	.word	0x200024f8
 8004ae4:	200024f5 	.word	0x200024f5
 8004ae8:	200024f4 	.word	0x200024f4
 8004aec:	200024d2 	.word	0x200024d2
 8004af0:	20000018 	.word	0x20000018
 8004af4:	200024d8 	.word	0x200024d8

08004af8 <EnterCriticalSection>:
 8004af8:	b672      	cpsid	i
 8004afa:	4a02      	ldr	r2, [pc, #8]	; (8004b04 <EnterCriticalSection+0xc>)
 8004afc:	6813      	ldr	r3, [r2, #0]
 8004afe:	3301      	adds	r3, #1
 8004b00:	6013      	str	r3, [r2, #0]
 8004b02:	4770      	bx	lr
 8004b04:	20002500 	.word	0x20002500

08004b08 <ExitCriticalSection>:
 8004b08:	4a03      	ldr	r2, [pc, #12]	; (8004b18 <ExitCriticalSection+0x10>)
 8004b0a:	6813      	ldr	r3, [r2, #0]
 8004b0c:	3b01      	subs	r3, #1
 8004b0e:	6013      	str	r3, [r2, #0]
 8004b10:	b903      	cbnz	r3, 8004b14 <ExitCriticalSection+0xc>
 8004b12:	b662      	cpsie	i
 8004b14:	4770      	bx	lr
 8004b16:	bf00      	nop
 8004b18:	20002500 	.word	0x20002500

08004b1c <MT_PORT_SetTimerModule>:
 8004b1c:	4b01      	ldr	r3, [pc, #4]	; (8004b24 <MT_PORT_SetTimerModule+0x8>)
 8004b1e:	6018      	str	r0, [r3, #0]
 8004b20:	4770      	bx	lr
 8004b22:	bf00      	nop
 8004b24:	20002504 	.word	0x20002504

08004b28 <MT_PORT_SetUartModule>:
 8004b28:	4b01      	ldr	r3, [pc, #4]	; (8004b30 <MT_PORT_SetUartModule+0x8>)
 8004b2a:	6018      	str	r0, [r3, #0]
 8004b2c:	4770      	bx	lr
 8004b2e:	bf00      	nop
 8004b30:	20002508 	.word	0x20002508

08004b34 <xMBPortEventInit>:
 8004b34:	4b02      	ldr	r3, [pc, #8]	; (8004b40 <xMBPortEventInit+0xc>)
 8004b36:	2200      	movs	r2, #0
 8004b38:	701a      	strb	r2, [r3, #0]
 8004b3a:	2001      	movs	r0, #1
 8004b3c:	4770      	bx	lr
 8004b3e:	bf00      	nop
 8004b40:	2000250d 	.word	0x2000250d

08004b44 <xMBPortEventPost>:
 8004b44:	4a03      	ldr	r2, [pc, #12]	; (8004b54 <xMBPortEventPost+0x10>)
 8004b46:	2301      	movs	r3, #1
 8004b48:	7013      	strb	r3, [r2, #0]
 8004b4a:	4a03      	ldr	r2, [pc, #12]	; (8004b58 <xMBPortEventPost+0x14>)
 8004b4c:	7010      	strb	r0, [r2, #0]
 8004b4e:	4618      	mov	r0, r3
 8004b50:	4770      	bx	lr
 8004b52:	bf00      	nop
 8004b54:	2000250d 	.word	0x2000250d
 8004b58:	2000250c 	.word	0x2000250c

08004b5c <xMBPortEventGet>:
 8004b5c:	4a05      	ldr	r2, [pc, #20]	; (8004b74 <xMBPortEventGet+0x18>)
 8004b5e:	4603      	mov	r3, r0
 8004b60:	7810      	ldrb	r0, [r2, #0]
 8004b62:	b128      	cbz	r0, 8004b70 <xMBPortEventGet+0x14>
 8004b64:	4904      	ldr	r1, [pc, #16]	; (8004b78 <xMBPortEventGet+0x1c>)
 8004b66:	7809      	ldrb	r1, [r1, #0]
 8004b68:	7019      	strb	r1, [r3, #0]
 8004b6a:	2300      	movs	r3, #0
 8004b6c:	7013      	strb	r3, [r2, #0]
 8004b6e:	2001      	movs	r0, #1
 8004b70:	4770      	bx	lr
 8004b72:	bf00      	nop
 8004b74:	2000250d 	.word	0x2000250d
 8004b78:	2000250c 	.word	0x2000250c

08004b7c <vMBPortSerialEnable>:
 8004b7c:	b570      	push	{r4, r5, r6, lr}
 8004b7e:	4d13      	ldr	r5, [pc, #76]	; (8004bcc <vMBPortSerialEnable+0x50>)
 8004b80:	4603      	mov	r3, r0
 8004b82:	460c      	mov	r4, r1
 8004b84:	6828      	ldr	r0, [r5, #0]
 8004b86:	b93b      	cbnz	r3, 8004b98 <vMBPortSerialEnable+0x1c>
 8004b88:	f7fe fd8c 	bl	80036a4 <HAL_UART_AbortReceive_IT>
 8004b8c:	6828      	ldr	r0, [r5, #0]
 8004b8e:	b974      	cbnz	r4, 8004bae <vMBPortSerialEnable+0x32>
 8004b90:	e8bd 4070 	ldmia.w	sp!, {r4, r5, r6, lr}
 8004b94:	f7fe bd42 	b.w	800361c <HAL_UART_AbortTransmit_IT>
 8004b98:	f04f 4290 	mov.w	r2, #1207959552	; 0x48000000
 8004b9c:	490c      	ldr	r1, [pc, #48]	; (8004bd0 <vMBPortSerialEnable+0x54>)
 8004b9e:	6993      	ldr	r3, [r2, #24]
 8004ba0:	f443 3300 	orr.w	r3, r3, #131072	; 0x20000
 8004ba4:	6193      	str	r3, [r2, #24]
 8004ba6:	2201      	movs	r2, #1
 8004ba8:	f7ff fa56 	bl	8004058 <HAL_UART_Receive_IT>
 8004bac:	e7ee      	b.n	8004b8c <vMBPortSerialEnable+0x10>
 8004bae:	6f83      	ldr	r3, [r0, #120]	; 0x78
 8004bb0:	2b20      	cmp	r3, #32
 8004bb2:	d10a      	bne.n	8004bca <vMBPortSerialEnable+0x4e>
 8004bb4:	f04f 4290 	mov.w	r2, #1207959552	; 0x48000000
 8004bb8:	e8bd 4070 	ldmia.w	sp!, {r4, r5, r6, lr}
 8004bbc:	6993      	ldr	r3, [r2, #24]
 8004bbe:	f043 0302 	orr.w	r3, r3, #2
 8004bc2:	6193      	str	r3, [r2, #24]
 8004bc4:	4b03      	ldr	r3, [pc, #12]	; (8004bd4 <vMBPortSerialEnable+0x58>)
 8004bc6:	681b      	ldr	r3, [r3, #0]
 8004bc8:	4718      	bx	r3
 8004bca:	bd70      	pop	{r4, r5, r6, pc}
 8004bcc:	20002508 	.word	0x20002508
 8004bd0:	2000250e 	.word	0x2000250e
 8004bd4:	200024ec 	.word	0x200024ec

08004bd8 <xMBPortSerialInit>:
 8004bd8:	2001      	movs	r0, #1
 8004bda:	4770      	bx	lr

08004bdc <xMBPortSerialPutByte>:
 8004bdc:	b508      	push	{r3, lr}
 8004bde:	4904      	ldr	r1, [pc, #16]	; (8004bf0 <xMBPortSerialPutByte+0x14>)
 8004be0:	4b04      	ldr	r3, [pc, #16]	; (8004bf4 <xMBPortSerialPutByte+0x18>)
 8004be2:	7008      	strb	r0, [r1, #0]
 8004be4:	2201      	movs	r2, #1
 8004be6:	6818      	ldr	r0, [r3, #0]
 8004be8:	f7fe fcd6 	bl	8003598 <HAL_UART_Transmit_IT>
 8004bec:	2001      	movs	r0, #1
 8004bee:	bd08      	pop	{r3, pc}
 8004bf0:	2000250f 	.word	0x2000250f
 8004bf4:	20002508 	.word	0x20002508

08004bf8 <xMBPortSerialGetByte>:
 8004bf8:	b508      	push	{r3, lr}
 8004bfa:	4905      	ldr	r1, [pc, #20]	; (8004c10 <xMBPortSerialGetByte+0x18>)
 8004bfc:	780b      	ldrb	r3, [r1, #0]
 8004bfe:	7003      	strb	r3, [r0, #0]
 8004c00:	4b04      	ldr	r3, [pc, #16]	; (8004c14 <xMBPortSerialGetByte+0x1c>)
 8004c02:	2201      	movs	r2, #1
 8004c04:	6818      	ldr	r0, [r3, #0]
 8004c06:	f7ff fa27 	bl	8004058 <HAL_UART_Receive_IT>
 8004c0a:	2001      	movs	r0, #1
 8004c0c:	bd08      	pop	{r3, pc}
 8004c0e:	bf00      	nop
 8004c10:	2000250e 	.word	0x2000250e
 8004c14:	20002508 	.word	0x20002508

08004c18 <HAL_UART_TxCpltCallback>:
 8004c18:	4b04      	ldr	r3, [pc, #16]	; (8004c2c <HAL_UART_TxCpltCallback+0x14>)
 8004c1a:	6802      	ldr	r2, [r0, #0]
 8004c1c:	681b      	ldr	r3, [r3, #0]
 8004c1e:	681b      	ldr	r3, [r3, #0]
 8004c20:	429a      	cmp	r2, r3
 8004c22:	d102      	bne.n	8004c2a <HAL_UART_TxCpltCallback+0x12>
 8004c24:	4b02      	ldr	r3, [pc, #8]	; (8004c30 <HAL_UART_TxCpltCallback+0x18>)
 8004c26:	681b      	ldr	r3, [r3, #0]
 8004c28:	4718      	bx	r3
 8004c2a:	4770      	bx	lr
 8004c2c:	20002508 	.word	0x20002508
 8004c30:	200024ec 	.word	0x200024ec

08004c34 <HAL_UART_RxCpltCallback>:
 8004c34:	4b04      	ldr	r3, [pc, #16]	; (8004c48 <HAL_UART_RxCpltCallback+0x14>)
 8004c36:	6802      	ldr	r2, [r0, #0]
 8004c38:	681b      	ldr	r3, [r3, #0]
 8004c3a:	681b      	ldr	r3, [r3, #0]
 8004c3c:	429a      	cmp	r2, r3
 8004c3e:	d102      	bne.n	8004c46 <HAL_UART_RxCpltCallback+0x12>
 8004c40:	4b02      	ldr	r3, [pc, #8]	; (8004c4c <HAL_UART_RxCpltCallback+0x18>)
 8004c42:	681b      	ldr	r3, [r3, #0]
 8004c44:	4718      	bx	r3
 8004c46:	4770      	bx	lr
 8004c48:	20002508 	.word	0x20002508
 8004c4c:	200024e8 	.word	0x200024e8

08004c50 <xMBPortTimersInit>:
 8004c50:	4b01      	ldr	r3, [pc, #4]	; (8004c58 <xMBPortTimersInit+0x8>)
 8004c52:	8018      	strh	r0, [r3, #0]
 8004c54:	2001      	movs	r0, #1
 8004c56:	4770      	bx	lr
 8004c58:	20002512 	.word	0x20002512

08004c5c <vMBPortTimersEnable>:
 8004c5c:	4b03      	ldr	r3, [pc, #12]	; (8004c6c <vMBPortTimersEnable+0x10>)
 8004c5e:	2200      	movs	r2, #0
 8004c60:	801a      	strh	r2, [r3, #0]
 8004c62:	4b03      	ldr	r3, [pc, #12]	; (8004c70 <vMBPortTimersEnable+0x14>)
 8004c64:	6818      	ldr	r0, [r3, #0]
 8004c66:	f7fd bf5d 	b.w	8002b24 <HAL_TIM_Base_Start_IT>
 8004c6a:	bf00      	nop
 8004c6c:	20002510 	.word	0x20002510
 8004c70:	20002504 	.word	0x20002504

08004c74 <vMBPortTimersDisable>:
 8004c74:	4b01      	ldr	r3, [pc, #4]	; (8004c7c <vMBPortTimersDisable+0x8>)
 8004c76:	6818      	ldr	r0, [r3, #0]
 8004c78:	f7fd bf7e 	b.w	8002b78 <HAL_TIM_Base_Stop_IT>
 8004c7c:	20002504 	.word	0x20002504

08004c80 <HAL_TIM_PeriodElapsedCallback>:
 8004c80:	4b09      	ldr	r3, [pc, #36]	; (8004ca8 <HAL_TIM_PeriodElapsedCallback+0x28>)
 8004c82:	6802      	ldr	r2, [r0, #0]
 8004c84:	681b      	ldr	r3, [r3, #0]
 8004c86:	681b      	ldr	r3, [r3, #0]
 8004c88:	429a      	cmp	r2, r3
 8004c8a:	d10b      	bne.n	8004ca4 <HAL_TIM_PeriodElapsedCallback+0x24>
 8004c8c:	4a07      	ldr	r2, [pc, #28]	; (8004cac <HAL_TIM_PeriodElapsedCallback+0x2c>)
 8004c8e:	8813      	ldrh	r3, [r2, #0]
 8004c90:	3301      	adds	r3, #1
 8004c92:	b29b      	uxth	r3, r3
 8004c94:	8013      	strh	r3, [r2, #0]
 8004c96:	4a06      	ldr	r2, [pc, #24]	; (8004cb0 <HAL_TIM_PeriodElapsedCallback+0x30>)
 8004c98:	8812      	ldrh	r2, [r2, #0]
 8004c9a:	429a      	cmp	r2, r3
 8004c9c:	d102      	bne.n	8004ca4 <HAL_TIM_PeriodElapsedCallback+0x24>
 8004c9e:	4b05      	ldr	r3, [pc, #20]	; (8004cb4 <HAL_TIM_PeriodElapsedCallback+0x34>)
 8004ca0:	681b      	ldr	r3, [r3, #0]
 8004ca2:	4718      	bx	r3
 8004ca4:	4770      	bx	lr
 8004ca6:	bf00      	nop
 8004ca8:	20002504 	.word	0x20002504
 8004cac:	20002510 	.word	0x20002510
 8004cb0:	20002512 	.word	0x20002512
 8004cb4:	200024f0 	.word	0x200024f0

08004cb8 <usMBCRC16>:
 8004cb8:	b570      	push	{r4, r5, r6, lr}
 8004cba:	23ff      	movs	r3, #255	; 0xff
 8004cbc:	4d07      	ldr	r5, [pc, #28]	; (8004cdc <usMBCRC16+0x24>)
 8004cbe:	4e08      	ldr	r6, [pc, #32]	; (8004ce0 <usMBCRC16+0x28>)
 8004cc0:	4401      	add	r1, r0
 8004cc2:	461c      	mov	r4, r3
 8004cc4:	4281      	cmp	r1, r0
 8004cc6:	d102      	bne.n	8004cce <usMBCRC16+0x16>
 8004cc8:	ea43 2004 	orr.w	r0, r3, r4, lsl #8
 8004ccc:	bd70      	pop	{r4, r5, r6, pc}
 8004cce:	f810 2b01 	ldrb.w	r2, [r0], #1
 8004cd2:	405a      	eors	r2, r3
 8004cd4:	5cab      	ldrb	r3, [r5, r2]
 8004cd6:	4063      	eors	r3, r4
 8004cd8:	5cb4      	ldrb	r4, [r6, r2]
 8004cda:	e7f3      	b.n	8004cc4 <usMBCRC16+0xc>
 8004cdc:	08007ee8 	.word	0x08007ee8
 8004ce0:	08007fe8 	.word	0x08007fe8

08004ce4 <eMBRTUInit>:
 8004ce4:	b513      	push	{r0, r1, r4, lr}
 8004ce6:	4614      	mov	r4, r2
 8004ce8:	9101      	str	r1, [sp, #4]
 8004cea:	9300      	str	r3, [sp, #0]
 8004cec:	f7ff ff04 	bl	8004af8 <EnterCriticalSection>
 8004cf0:	9b00      	ldr	r3, [sp, #0]
 8004cf2:	9801      	ldr	r0, [sp, #4]
 8004cf4:	2208      	movs	r2, #8
 8004cf6:	4621      	mov	r1, r4
 8004cf8:	f7ff ff6e 	bl	8004bd8 <xMBPortSerialInit>
 8004cfc:	2801      	cmp	r0, #1
 8004cfe:	d10c      	bne.n	8004d1a <eMBRTUInit+0x36>
 8004d00:	f5b4 4f96 	cmp.w	r4, #19200	; 0x4b00
 8004d04:	bf97      	itett	ls
 8004d06:	4809      	ldrls	r0, [pc, #36]	; (8004d2c <eMBRTUInit+0x48>)
 8004d08:	2023      	movhi	r0, #35	; 0x23
 8004d0a:	0064      	lslls	r4, r4, #1
 8004d0c:	fbb0 f0f4 	udivls	r0, r0, r4
 8004d10:	b280      	uxth	r0, r0
 8004d12:	f7ff ff9d 	bl	8004c50 <xMBPortTimersInit>
 8004d16:	2801      	cmp	r0, #1
 8004d18:	d005      	beq.n	8004d26 <eMBRTUInit+0x42>
 8004d1a:	2403      	movs	r4, #3
 8004d1c:	f7ff fef4 	bl	8004b08 <ExitCriticalSection>
 8004d20:	4620      	mov	r0, r4
 8004d22:	b002      	add	sp, #8
 8004d24:	bd10      	pop	{r4, pc}
 8004d26:	2400      	movs	r4, #0
 8004d28:	e7f8      	b.n	8004d1c <eMBRTUInit+0x38>
 8004d2a:	bf00      	nop
 8004d2c:	00177fa0 	.word	0x00177fa0

08004d30 <eMBRTUStart>:
 8004d30:	b508      	push	{r3, lr}
 8004d32:	f7ff fee1 	bl	8004af8 <EnterCriticalSection>
 8004d36:	4b06      	ldr	r3, [pc, #24]	; (8004d50 <eMBRTUStart+0x20>)
 8004d38:	2100      	movs	r1, #0
 8004d3a:	2001      	movs	r0, #1
 8004d3c:	7019      	strb	r1, [r3, #0]
 8004d3e:	f7ff ff1d 	bl	8004b7c <vMBPortSerialEnable>
 8004d42:	f7ff ff8b 	bl	8004c5c <vMBPortTimersEnable>
 8004d46:	e8bd 4008 	ldmia.w	sp!, {r3, lr}
 8004d4a:	f7ff bedd 	b.w	8004b08 <ExitCriticalSection>
 8004d4e:	bf00      	nop
 8004d50:	20002514 	.word	0x20002514

08004d54 <eMBRTUStop>:
 8004d54:	b508      	push	{r3, lr}
 8004d56:	f7ff fecf 	bl	8004af8 <EnterCriticalSection>
 8004d5a:	2100      	movs	r1, #0
 8004d5c:	4608      	mov	r0, r1
 8004d5e:	f7ff ff0d 	bl	8004b7c <vMBPortSerialEnable>
 8004d62:	f7ff ff87 	bl	8004c74 <vMBPortTimersDisable>
 8004d66:	e8bd 4008 	ldmia.w	sp!, {r3, lr}
 8004d6a:	f7ff becd 	b.w	8004b08 <ExitCriticalSection>
	...

08004d70 <eMBRTUReceive>:
 8004d70:	e92d 43f8 	stmdb	sp!, {r3, r4, r5, r6, r7, r8, r9, lr}
 8004d74:	4e16      	ldr	r6, [pc, #88]	; (8004dd0 <eMBRTUReceive+0x60>)
 8004d76:	4681      	mov	r9, r0
 8004d78:	460f      	mov	r7, r1
 8004d7a:	4690      	mov	r8, r2
 8004d7c:	f7ff febc 	bl	8004af8 <EnterCriticalSection>
 8004d80:	8833      	ldrh	r3, [r6, #0]
 8004d82:	b29b      	uxth	r3, r3
 8004d84:	2bff      	cmp	r3, #255	; 0xff
 8004d86:	d905      	bls.n	8004d94 <eMBRTUReceive+0x24>
 8004d88:	4b12      	ldr	r3, [pc, #72]	; (8004dd4 <eMBRTUReceive+0x64>)
 8004d8a:	4a13      	ldr	r2, [pc, #76]	; (8004dd8 <eMBRTUReceive+0x68>)
 8004d8c:	4813      	ldr	r0, [pc, #76]	; (8004ddc <eMBRTUReceive+0x6c>)
 8004d8e:	219c      	movs	r1, #156	; 0x9c
 8004d90:	f000 f92c 	bl	8004fec <__assert_func>
 8004d94:	8833      	ldrh	r3, [r6, #0]
 8004d96:	b29b      	uxth	r3, r3
 8004d98:	2b03      	cmp	r3, #3
 8004d9a:	d805      	bhi.n	8004da8 <eMBRTUReceive+0x38>
 8004d9c:	2405      	movs	r4, #5
 8004d9e:	f7ff feb3 	bl	8004b08 <ExitCriticalSection>
 8004da2:	4620      	mov	r0, r4
 8004da4:	e8bd 83f8 	ldmia.w	sp!, {r3, r4, r5, r6, r7, r8, r9, pc}
 8004da8:	8831      	ldrh	r1, [r6, #0]
 8004daa:	4d0d      	ldr	r5, [pc, #52]	; (8004de0 <eMBRTUReceive+0x70>)
 8004dac:	b289      	uxth	r1, r1
 8004dae:	4628      	mov	r0, r5
 8004db0:	f7ff ff82 	bl	8004cb8 <usMBCRC16>
 8004db4:	4604      	mov	r4, r0
 8004db6:	2800      	cmp	r0, #0
 8004db8:	d1f0      	bne.n	8004d9c <eMBRTUReceive+0x2c>
 8004dba:	f815 2b01 	ldrb.w	r2, [r5], #1
 8004dbe:	f889 2000 	strb.w	r2, [r9]
 8004dc2:	8832      	ldrh	r2, [r6, #0]
 8004dc4:	3a03      	subs	r2, #3
 8004dc6:	f8a8 2000 	strh.w	r2, [r8]
 8004dca:	603d      	str	r5, [r7, #0]
 8004dcc:	e7e7      	b.n	8004d9e <eMBRTUReceive+0x2e>
 8004dce:	bf00      	nop
 8004dd0:	2000261c 	.word	0x2000261c
 8004dd4:	080080e8 	.word	0x080080e8
 8004dd8:	08008208 	.word	0x08008208
 8004ddc:	0800810d 	.word	0x0800810d
 8004de0:	2000251c 	.word	0x2000251c

08004de4 <eMBRTUSend>:
 8004de4:	e92d 41f0 	stmdb	sp!, {r4, r5, r6, r7, r8, lr}
 8004de8:	4680      	mov	r8, r0
 8004dea:	460e      	mov	r6, r1
 8004dec:	4617      	mov	r7, r2
 8004dee:	f7ff fe83 	bl	8004af8 <EnterCriticalSection>
 8004df2:	4b19      	ldr	r3, [pc, #100]	; (8004e58 <eMBRTUSend+0x74>)
 8004df4:	781b      	ldrb	r3, [r3, #0]
 8004df6:	2b01      	cmp	r3, #1
 8004df8:	b2dd      	uxtb	r5, r3
 8004dfa:	d12b      	bne.n	8004e54 <eMBRTUSend+0x70>
 8004dfc:	4c17      	ldr	r4, [pc, #92]	; (8004e5c <eMBRTUSend+0x78>)
 8004dfe:	4b18      	ldr	r3, [pc, #96]	; (8004e60 <eMBRTUSend+0x7c>)
 8004e00:	8025      	strh	r5, [r4, #0]
 8004e02:	1e70      	subs	r0, r6, #1
 8004e04:	f806 8c01 	strb.w	r8, [r6, #-1]
 8004e08:	6018      	str	r0, [r3, #0]
 8004e0a:	8823      	ldrh	r3, [r4, #0]
 8004e0c:	fa17 f283 	uxtah	r2, r7, r3
 8004e10:	b292      	uxth	r2, r2
 8004e12:	8022      	strh	r2, [r4, #0]
 8004e14:	8821      	ldrh	r1, [r4, #0]
 8004e16:	b289      	uxth	r1, r1
 8004e18:	f7ff ff4e 	bl	8004cb8 <usMBCRC16>
 8004e1c:	8823      	ldrh	r3, [r4, #0]
 8004e1e:	4911      	ldr	r1, [pc, #68]	; (8004e64 <eMBRTUSend+0x80>)
 8004e20:	b29b      	uxth	r3, r3
 8004e22:	1c5a      	adds	r2, r3, #1
 8004e24:	b292      	uxth	r2, r2
 8004e26:	8022      	strh	r2, [r4, #0]
 8004e28:	b2c2      	uxtb	r2, r0
 8004e2a:	54ca      	strb	r2, [r1, r3]
 8004e2c:	8823      	ldrh	r3, [r4, #0]
 8004e2e:	b29b      	uxth	r3, r3
 8004e30:	1c5a      	adds	r2, r3, #1
 8004e32:	b292      	uxth	r2, r2
 8004e34:	f3c0 2007 	ubfx	r0, r0, #8, #8
 8004e38:	8022      	strh	r2, [r4, #0]
 8004e3a:	54c8      	strb	r0, [r1, r3]
 8004e3c:	4b0a      	ldr	r3, [pc, #40]	; (8004e68 <eMBRTUSend+0x84>)
 8004e3e:	4629      	mov	r1, r5
 8004e40:	2000      	movs	r0, #0
 8004e42:	701d      	strb	r5, [r3, #0]
 8004e44:	f7ff fe9a 	bl	8004b7c <vMBPortSerialEnable>
 8004e48:	2400      	movs	r4, #0
 8004e4a:	f7ff fe5d 	bl	8004b08 <ExitCriticalSection>
 8004e4e:	4620      	mov	r0, r4
 8004e50:	e8bd 81f0 	ldmia.w	sp!, {r4, r5, r6, r7, r8, pc}
 8004e54:	2405      	movs	r4, #5
 8004e56:	e7f8      	b.n	8004e4a <eMBRTUSend+0x66>
 8004e58:	20002514 	.word	0x20002514
 8004e5c:	2000261e 	.word	0x2000261e
 8004e60:	20002518 	.word	0x20002518
 8004e64:	2000251c 	.word	0x2000251c
 8004e68:	20002515 	.word	0x20002515

08004e6c <xMBRTUReceiveFSM>:
 8004e6c:	b507      	push	{r0, r1, r2, lr}
 8004e6e:	4b1d      	ldr	r3, [pc, #116]	; (8004ee4 <xMBRTUReceiveFSM+0x78>)
 8004e70:	781b      	ldrb	r3, [r3, #0]
 8004e72:	b12b      	cbz	r3, 8004e80 <xMBRTUReceiveFSM+0x14>
 8004e74:	4b1c      	ldr	r3, [pc, #112]	; (8004ee8 <xMBRTUReceiveFSM+0x7c>)
 8004e76:	4a1d      	ldr	r2, [pc, #116]	; (8004eec <xMBRTUReceiveFSM+0x80>)
 8004e78:	481d      	ldr	r0, [pc, #116]	; (8004ef0 <xMBRTUReceiveFSM+0x84>)
 8004e7a:	21e6      	movs	r1, #230	; 0xe6
 8004e7c:	f000 f8b6 	bl	8004fec <__assert_func>
 8004e80:	f10d 0007 	add.w	r0, sp, #7
 8004e84:	f7ff feb8 	bl	8004bf8 <xMBPortSerialGetByte>
 8004e88:	4a1a      	ldr	r2, [pc, #104]	; (8004ef4 <xMBRTUReceiveFSM+0x88>)
 8004e8a:	7813      	ldrb	r3, [r2, #0]
 8004e8c:	2b03      	cmp	r3, #3
 8004e8e:	d822      	bhi.n	8004ed6 <xMBRTUReceiveFSM+0x6a>
 8004e90:	e8df f003 	tbb	[pc, r3]
 8004e94:	1f11021f 	.word	0x1f11021f
 8004e98:	4917      	ldr	r1, [pc, #92]	; (8004ef8 <xMBRTUReceiveFSM+0x8c>)
 8004e9a:	2300      	movs	r3, #0
 8004e9c:	800b      	strh	r3, [r1, #0]
 8004e9e:	880b      	ldrh	r3, [r1, #0]
 8004ea0:	b29b      	uxth	r3, r3
 8004ea2:	1c58      	adds	r0, r3, #1
 8004ea4:	b280      	uxth	r0, r0
 8004ea6:	8008      	strh	r0, [r1, #0]
 8004ea8:	4914      	ldr	r1, [pc, #80]	; (8004efc <xMBRTUReceiveFSM+0x90>)
 8004eaa:	f89d 0007 	ldrb.w	r0, [sp, #7]
 8004eae:	54c8      	strb	r0, [r1, r3]
 8004eb0:	2302      	movs	r3, #2
 8004eb2:	7013      	strb	r3, [r2, #0]
 8004eb4:	e00d      	b.n	8004ed2 <xMBRTUReceiveFSM+0x66>
 8004eb6:	4910      	ldr	r1, [pc, #64]	; (8004ef8 <xMBRTUReceiveFSM+0x8c>)
 8004eb8:	880b      	ldrh	r3, [r1, #0]
 8004eba:	b29b      	uxth	r3, r3
 8004ebc:	2bff      	cmp	r3, #255	; 0xff
 8004ebe:	d80e      	bhi.n	8004ede <xMBRTUReceiveFSM+0x72>
 8004ec0:	880b      	ldrh	r3, [r1, #0]
 8004ec2:	b29b      	uxth	r3, r3
 8004ec4:	1c5a      	adds	r2, r3, #1
 8004ec6:	b292      	uxth	r2, r2
 8004ec8:	800a      	strh	r2, [r1, #0]
 8004eca:	4a0c      	ldr	r2, [pc, #48]	; (8004efc <xMBRTUReceiveFSM+0x90>)
 8004ecc:	f89d 1007 	ldrb.w	r1, [sp, #7]
 8004ed0:	54d1      	strb	r1, [r2, r3]
 8004ed2:	f7ff fec3 	bl	8004c5c <vMBPortTimersEnable>
 8004ed6:	2000      	movs	r0, #0
 8004ed8:	b003      	add	sp, #12
 8004eda:	f85d fb04 	ldr.w	pc, [sp], #4
 8004ede:	2303      	movs	r3, #3
 8004ee0:	e7e7      	b.n	8004eb2 <xMBRTUReceiveFSM+0x46>
 8004ee2:	bf00      	nop
 8004ee4:	20002515 	.word	0x20002515
 8004ee8:	08008136 	.word	0x08008136
 8004eec:	080081f7 	.word	0x080081f7
 8004ef0:	0800810d 	.word	0x0800810d
 8004ef4:	20002514 	.word	0x20002514
 8004ef8:	2000261c 	.word	0x2000261c
 8004efc:	2000251c 	.word	0x2000251c

08004f00 <xMBRTUTransmitFSM>:
 8004f00:	b5f8      	push	{r3, r4, r5, r6, r7, lr}
 8004f02:	4b1b      	ldr	r3, [pc, #108]	; (8004f70 <xMBRTUTransmitFSM+0x70>)
 8004f04:	781b      	ldrb	r3, [r3, #0]
 8004f06:	2b01      	cmp	r3, #1
 8004f08:	b2df      	uxtb	r7, r3
 8004f0a:	d006      	beq.n	8004f1a <xMBRTUTransmitFSM+0x1a>
 8004f0c:	4b19      	ldr	r3, [pc, #100]	; (8004f74 <xMBRTUTransmitFSM+0x74>)
 8004f0e:	4a1a      	ldr	r2, [pc, #104]	; (8004f78 <xMBRTUTransmitFSM+0x78>)
 8004f10:	481a      	ldr	r0, [pc, #104]	; (8004f7c <xMBRTUTransmitFSM+0x7c>)
 8004f12:	f240 1121 	movw	r1, #289	; 0x121
 8004f16:	f000 f869 	bl	8004fec <__assert_func>
 8004f1a:	4e19      	ldr	r6, [pc, #100]	; (8004f80 <xMBRTUTransmitFSM+0x80>)
 8004f1c:	7833      	ldrb	r3, [r6, #0]
 8004f1e:	f003 04ff 	and.w	r4, r3, #255	; 0xff
 8004f22:	b11b      	cbz	r3, 8004f2c <xMBRTUTransmitFSM+0x2c>
 8004f24:	2c01      	cmp	r4, #1
 8004f26:	d007      	beq.n	8004f38 <xMBRTUTransmitFSM+0x38>
 8004f28:	2400      	movs	r4, #0
 8004f2a:	e003      	b.n	8004f34 <xMBRTUTransmitFSM+0x34>
 8004f2c:	4621      	mov	r1, r4
 8004f2e:	4638      	mov	r0, r7
 8004f30:	f7ff fe24 	bl	8004b7c <vMBPortSerialEnable>
 8004f34:	4620      	mov	r0, r4
 8004f36:	bdf8      	pop	{r3, r4, r5, r6, r7, pc}
 8004f38:	4c12      	ldr	r4, [pc, #72]	; (8004f84 <xMBRTUTransmitFSM+0x84>)
 8004f3a:	8825      	ldrh	r5, [r4, #0]
 8004f3c:	b2ad      	uxth	r5, r5
 8004f3e:	b165      	cbz	r5, 8004f5a <xMBRTUTransmitFSM+0x5a>
 8004f40:	4d11      	ldr	r5, [pc, #68]	; (8004f88 <xMBRTUTransmitFSM+0x88>)
 8004f42:	682b      	ldr	r3, [r5, #0]
 8004f44:	7818      	ldrb	r0, [r3, #0]
 8004f46:	f7ff fe49 	bl	8004bdc <xMBPortSerialPutByte>
 8004f4a:	682b      	ldr	r3, [r5, #0]
 8004f4c:	3301      	adds	r3, #1
 8004f4e:	602b      	str	r3, [r5, #0]
 8004f50:	8823      	ldrh	r3, [r4, #0]
 8004f52:	3b01      	subs	r3, #1
 8004f54:	b29b      	uxth	r3, r3
 8004f56:	8023      	strh	r3, [r4, #0]
 8004f58:	e7e6      	b.n	8004f28 <xMBRTUTransmitFSM+0x28>
 8004f5a:	2003      	movs	r0, #3
 8004f5c:	f7ff fdf2 	bl	8004b44 <xMBPortEventPost>
 8004f60:	4629      	mov	r1, r5
 8004f62:	4604      	mov	r4, r0
 8004f64:	4638      	mov	r0, r7
 8004f66:	f7ff fe09 	bl	8004b7c <vMBPortSerialEnable>
 8004f6a:	7035      	strb	r5, [r6, #0]
 8004f6c:	e7e2      	b.n	8004f34 <xMBRTUTransmitFSM+0x34>
 8004f6e:	bf00      	nop
 8004f70:	20002514 	.word	0x20002514
 8004f74:	08008151 	.word	0x08008151
 8004f78:	080081e5 	.word	0x080081e5
 8004f7c:	0800810d 	.word	0x0800810d
 8004f80:	20002515 	.word	0x20002515
 8004f84:	2000261e 	.word	0x2000261e
 8004f88:	20002518 	.word	0x20002518

08004f8c <xMBRTUTimerT35Expired>:
 8004f8c:	b538      	push	{r3, r4, r5, lr}
 8004f8e:	4d13      	ldr	r5, [pc, #76]	; (8004fdc <xMBRTUTimerT35Expired+0x50>)
 8004f90:	782b      	ldrb	r3, [r5, #0]
 8004f92:	2b02      	cmp	r3, #2
 8004f94:	b2d8      	uxtb	r0, r3
 8004f96:	d00b      	beq.n	8004fb0 <xMBRTUTimerT35Expired+0x24>
 8004f98:	2803      	cmp	r0, #3
 8004f9a:	d01d      	beq.n	8004fd8 <xMBRTUTimerT35Expired+0x4c>
 8004f9c:	b950      	cbnz	r0, 8004fb4 <xMBRTUTimerT35Expired+0x28>
 8004f9e:	f7ff fdd1 	bl	8004b44 <xMBPortEventPost>
 8004fa2:	4604      	mov	r4, r0
 8004fa4:	f7ff fe66 	bl	8004c74 <vMBPortTimersDisable>
 8004fa8:	2301      	movs	r3, #1
 8004faa:	702b      	strb	r3, [r5, #0]
 8004fac:	4620      	mov	r0, r4
 8004fae:	bd38      	pop	{r3, r4, r5, pc}
 8004fb0:	2001      	movs	r0, #1
 8004fb2:	e7f4      	b.n	8004f9e <xMBRTUTimerT35Expired+0x12>
 8004fb4:	782b      	ldrb	r3, [r5, #0]
 8004fb6:	f003 04ff 	and.w	r4, r3, #255	; 0xff
 8004fba:	2b00      	cmp	r3, #0
 8004fbc:	d0f2      	beq.n	8004fa4 <xMBRTUTimerT35Expired+0x18>
 8004fbe:	782b      	ldrb	r3, [r5, #0]
 8004fc0:	2b02      	cmp	r3, #2
 8004fc2:	d009      	beq.n	8004fd8 <xMBRTUTimerT35Expired+0x4c>
 8004fc4:	782b      	ldrb	r3, [r5, #0]
 8004fc6:	2b03      	cmp	r3, #3
 8004fc8:	d006      	beq.n	8004fd8 <xMBRTUTimerT35Expired+0x4c>
 8004fca:	4b05      	ldr	r3, [pc, #20]	; (8004fe0 <xMBRTUTimerT35Expired+0x54>)
 8004fcc:	4a05      	ldr	r2, [pc, #20]	; (8004fe4 <xMBRTUTimerT35Expired+0x58>)
 8004fce:	4806      	ldr	r0, [pc, #24]	; (8004fe8 <xMBRTUTimerT35Expired+0x5c>)
 8004fd0:	f44f 71ad 	mov.w	r1, #346	; 0x15a
 8004fd4:	f000 f80a 	bl	8004fec <__assert_func>
 8004fd8:	2400      	movs	r4, #0
 8004fda:	e7e3      	b.n	8004fa4 <xMBRTUTimerT35Expired+0x18>
 8004fdc:	20002514 	.word	0x20002514
 8004fe0:	0800816c 	.word	0x0800816c
 8004fe4:	080081cf 	.word	0x080081cf
 8004fe8:	0800810d 	.word	0x0800810d

08004fec <__assert_func>:
 8004fec:	b51f      	push	{r0, r1, r2, r3, r4, lr}
 8004fee:	4614      	mov	r4, r2
 8004ff0:	461a      	mov	r2, r3
 8004ff2:	4b09      	ldr	r3, [pc, #36]	; (8005018 <__assert_func+0x2c>)
 8004ff4:	681b      	ldr	r3, [r3, #0]
 8004ff6:	4605      	mov	r5, r0
 8004ff8:	68d8      	ldr	r0, [r3, #12]
 8004ffa:	b14c      	cbz	r4, 8005010 <__assert_func+0x24>
 8004ffc:	4b07      	ldr	r3, [pc, #28]	; (800501c <__assert_func+0x30>)
 8004ffe:	9100      	str	r1, [sp, #0]
 8005000:	e9cd 3401 	strd	r3, r4, [sp, #4]
 8005004:	4906      	ldr	r1, [pc, #24]	; (8005020 <__assert_func+0x34>)
 8005006:	462b      	mov	r3, r5
 8005008:	f000 f814 	bl	8005034 <fiprintf>
 800500c:	f000 ff0a 	bl	8005e24 <abort>
 8005010:	4b04      	ldr	r3, [pc, #16]	; (8005024 <__assert_func+0x38>)
 8005012:	461c      	mov	r4, r3
 8005014:	e7f3      	b.n	8004ffe <__assert_func+0x12>
 8005016:	bf00      	nop
 8005018:	20000098 	.word	0x20000098
 800501c:	08008216 	.word	0x08008216
 8005020:	08008223 	.word	0x08008223
 8005024:	08007e62 	.word	0x08007e62

08005028 <__errno>:
 8005028:	4b01      	ldr	r3, [pc, #4]	; (8005030 <__errno+0x8>)
 800502a:	6818      	ldr	r0, [r3, #0]
 800502c:	4770      	bx	lr
 800502e:	bf00      	nop
 8005030:	20000098 	.word	0x20000098

08005034 <fiprintf>:
 8005034:	b40e      	push	{r1, r2, r3}
 8005036:	b503      	push	{r0, r1, lr}
 8005038:	4601      	mov	r1, r0
 800503a:	ab03      	add	r3, sp, #12
 800503c:	4805      	ldr	r0, [pc, #20]	; (8005054 <fiprintf+0x20>)
 800503e:	f853 2b04 	ldr.w	r2, [r3], #4
 8005042:	6800      	ldr	r0, [r0, #0]
 8005044:	9301      	str	r3, [sp, #4]
 8005046:	f000 f86b 	bl	8005120 <_vfiprintf_r>
 800504a:	b002      	add	sp, #8
 800504c:	f85d eb04 	ldr.w	lr, [sp], #4
 8005050:	b003      	add	sp, #12
 8005052:	4770      	bx	lr
 8005054:	20000098 	.word	0x20000098

08005058 <__libc_init_array>:
 8005058:	b570      	push	{r4, r5, r6, lr}
 800505a:	4d0d      	ldr	r5, [pc, #52]	; (8005090 <__libc_init_array+0x38>)
 800505c:	4c0d      	ldr	r4, [pc, #52]	; (8005094 <__libc_init_array+0x3c>)
 800505e:	1b64      	subs	r4, r4, r5
 8005060:	10a4      	asrs	r4, r4, #2
 8005062:	2600      	movs	r6, #0
 8005064:	42a6      	cmp	r6, r4
 8005066:	d109      	bne.n	800507c <__libc_init_array+0x24>
 8005068:	4d0b      	ldr	r5, [pc, #44]	; (8005098 <__libc_init_array+0x40>)
 800506a:	4c0c      	ldr	r4, [pc, #48]	; (800509c <__libc_init_array+0x44>)
 800506c:	f002 fed8 	bl	8007e20 <_init>
 8005070:	1b64      	subs	r4, r4, r5
 8005072:	10a4      	asrs	r4, r4, #2
 8005074:	2600      	movs	r6, #0
 8005076:	42a6      	cmp	r6, r4
 8005078:	d105      	bne.n	8005086 <__libc_init_array+0x2e>
 800507a:	bd70      	pop	{r4, r5, r6, pc}
 800507c:	f855 3b04 	ldr.w	r3, [r5], #4
 8005080:	4798      	blx	r3
 8005082:	3601      	adds	r6, #1
 8005084:	e7ee      	b.n	8005064 <__libc_init_array+0xc>
 8005086:	f855 3b04 	ldr.w	r3, [r5], #4
 800508a:	4798      	blx	r3
 800508c:	3601      	adds	r6, #1
 800508e:	e7f2      	b.n	8005076 <__libc_init_array+0x1e>
 8005090:	08008600 	.word	0x08008600
 8005094:	08008600 	.word	0x08008600
 8005098:	08008600 	.word	0x08008600
 800509c:	08008604 	.word	0x08008604

080050a0 <memcpy>:
 80050a0:	440a      	add	r2, r1
 80050a2:	4291      	cmp	r1, r2
 80050a4:	f100 33ff 	add.w	r3, r0, #4294967295
 80050a8:	d100      	bne.n	80050ac <memcpy+0xc>
 80050aa:	4770      	bx	lr
 80050ac:	b510      	push	{r4, lr}
 80050ae:	f811 4b01 	ldrb.w	r4, [r1], #1
 80050b2:	f803 4f01 	strb.w	r4, [r3, #1]!
 80050b6:	4291      	cmp	r1, r2
 80050b8:	d1f9      	bne.n	80050ae <memcpy+0xe>
 80050ba:	bd10      	pop	{r4, pc}

080050bc <memset>:
 80050bc:	4402      	add	r2, r0
 80050be:	4603      	mov	r3, r0
 80050c0:	4293      	cmp	r3, r2
 80050c2:	d100      	bne.n	80050c6 <memset+0xa>
 80050c4:	4770      	bx	lr
 80050c6:	f803 1b01 	strb.w	r1, [r3], #1
 80050ca:	e7f9      	b.n	80050c0 <memset+0x4>

080050cc <__sfputc_r>:
 80050cc:	6893      	ldr	r3, [r2, #8]
 80050ce:	3b01      	subs	r3, #1
 80050d0:	2b00      	cmp	r3, #0
 80050d2:	b410      	push	{r4}
 80050d4:	6093      	str	r3, [r2, #8]
 80050d6:	da08      	bge.n	80050ea <__sfputc_r+0x1e>
 80050d8:	6994      	ldr	r4, [r2, #24]
 80050da:	42a3      	cmp	r3, r4
 80050dc:	db01      	blt.n	80050e2 <__sfputc_r+0x16>
 80050de:	290a      	cmp	r1, #10
 80050e0:	d103      	bne.n	80050ea <__sfputc_r+0x1e>
 80050e2:	f85d 4b04 	ldr.w	r4, [sp], #4
 80050e6:	f000 bddd 	b.w	8005ca4 <__swbuf_r>
 80050ea:	6813      	ldr	r3, [r2, #0]
 80050ec:	1c58      	adds	r0, r3, #1
 80050ee:	6010      	str	r0, [r2, #0]
 80050f0:	7019      	strb	r1, [r3, #0]
 80050f2:	4608      	mov	r0, r1
 80050f4:	f85d 4b04 	ldr.w	r4, [sp], #4
 80050f8:	4770      	bx	lr

080050fa <__sfputs_r>:
 80050fa:	b5f8      	push	{r3, r4, r5, r6, r7, lr}
 80050fc:	4606      	mov	r6, r0
 80050fe:	460f      	mov	r7, r1
 8005100:	4614      	mov	r4, r2
 8005102:	18d5      	adds	r5, r2, r3
 8005104:	42ac      	cmp	r4, r5
 8005106:	d101      	bne.n	800510c <__sfputs_r+0x12>
 8005108:	2000      	movs	r0, #0
 800510a:	e007      	b.n	800511c <__sfputs_r+0x22>
 800510c:	f814 1b01 	ldrb.w	r1, [r4], #1
 8005110:	463a      	mov	r2, r7
 8005112:	4630      	mov	r0, r6
 8005114:	f7ff ffda 	bl	80050cc <__sfputc_r>
 8005118:	1c43      	adds	r3, r0, #1
 800511a:	d1f3      	bne.n	8005104 <__sfputs_r+0xa>
 800511c:	bdf8      	pop	{r3, r4, r5, r6, r7, pc}
	...

08005120 <_vfiprintf_r>:
 8005120:	e92d 4ff0 	stmdb	sp!, {r4, r5, r6, r7, r8, r9, sl, fp, lr}
 8005124:	460d      	mov	r5, r1
 8005126:	b09d      	sub	sp, #116	; 0x74
 8005128:	4614      	mov	r4, r2
 800512a:	4698      	mov	r8, r3
 800512c:	4606      	mov	r6, r0
 800512e:	b118      	cbz	r0, 8005138 <_vfiprintf_r+0x18>
 8005130:	6983      	ldr	r3, [r0, #24]
 8005132:	b90b      	cbnz	r3, 8005138 <_vfiprintf_r+0x18>
 8005134:	f001 fe10 	bl	8006d58 <__sinit>
 8005138:	4b89      	ldr	r3, [pc, #548]	; (8005360 <_vfiprintf_r+0x240>)
 800513a:	429d      	cmp	r5, r3
 800513c:	d11b      	bne.n	8005176 <_vfiprintf_r+0x56>
 800513e:	6875      	ldr	r5, [r6, #4]
 8005140:	6e6b      	ldr	r3, [r5, #100]	; 0x64
 8005142:	07d9      	lsls	r1, r3, #31
 8005144:	d405      	bmi.n	8005152 <_vfiprintf_r+0x32>
 8005146:	89ab      	ldrh	r3, [r5, #12]
 8005148:	059a      	lsls	r2, r3, #22
 800514a:	d402      	bmi.n	8005152 <_vfiprintf_r+0x32>
 800514c:	6da8      	ldr	r0, [r5, #88]	; 0x58
 800514e:	f001 fea6 	bl	8006e9e <__retarget_lock_acquire_recursive>
 8005152:	89ab      	ldrh	r3, [r5, #12]
 8005154:	071b      	lsls	r3, r3, #28
 8005156:	d501      	bpl.n	800515c <_vfiprintf_r+0x3c>
 8005158:	692b      	ldr	r3, [r5, #16]
 800515a:	b9eb      	cbnz	r3, 8005198 <_vfiprintf_r+0x78>
 800515c:	4629      	mov	r1, r5
 800515e:	4630      	mov	r0, r6
 8005160:	f000 fdf2 	bl	8005d48 <__swsetup_r>
 8005164:	b1c0      	cbz	r0, 8005198 <_vfiprintf_r+0x78>
 8005166:	6e6b      	ldr	r3, [r5, #100]	; 0x64
 8005168:	07dc      	lsls	r4, r3, #31
 800516a:	d50e      	bpl.n	800518a <_vfiprintf_r+0x6a>
 800516c:	f04f 30ff 	mov.w	r0, #4294967295
 8005170:	b01d      	add	sp, #116	; 0x74
 8005172:	e8bd 8ff0 	ldmia.w	sp!, {r4, r5, r6, r7, r8, r9, sl, fp, pc}
 8005176:	4b7b      	ldr	r3, [pc, #492]	; (8005364 <_vfiprintf_r+0x244>)
 8005178:	429d      	cmp	r5, r3
 800517a:	d101      	bne.n	8005180 <_vfiprintf_r+0x60>
 800517c:	68b5      	ldr	r5, [r6, #8]
 800517e:	e7df      	b.n	8005140 <_vfiprintf_r+0x20>
 8005180:	4b79      	ldr	r3, [pc, #484]	; (8005368 <_vfiprintf_r+0x248>)
 8005182:	429d      	cmp	r5, r3
 8005184:	bf08      	it	eq
 8005186:	68f5      	ldreq	r5, [r6, #12]
 8005188:	e7da      	b.n	8005140 <_vfiprintf_r+0x20>
 800518a:	89ab      	ldrh	r3, [r5, #12]
 800518c:	0598      	lsls	r0, r3, #22
 800518e:	d4ed      	bmi.n	800516c <_vfiprintf_r+0x4c>
 8005190:	6da8      	ldr	r0, [r5, #88]	; 0x58
 8005192:	f001 fe85 	bl	8006ea0 <__retarget_lock_release_recursive>
 8005196:	e7e9      	b.n	800516c <_vfiprintf_r+0x4c>
 8005198:	2300      	movs	r3, #0
 800519a:	9309      	str	r3, [sp, #36]	; 0x24
 800519c:	2320      	movs	r3, #32
 800519e:	f88d 3029 	strb.w	r3, [sp, #41]	; 0x29
 80051a2:	f8cd 800c 	str.w	r8, [sp, #12]
 80051a6:	2330      	movs	r3, #48	; 0x30
 80051a8:	f8df 81c0 	ldr.w	r8, [pc, #448]	; 800536c <_vfiprintf_r+0x24c>
 80051ac:	f88d 302a 	strb.w	r3, [sp, #42]	; 0x2a
 80051b0:	f04f 0901 	mov.w	r9, #1
 80051b4:	4623      	mov	r3, r4
 80051b6:	469a      	mov	sl, r3
 80051b8:	f813 2b01 	ldrb.w	r2, [r3], #1
 80051bc:	b10a      	cbz	r2, 80051c2 <_vfiprintf_r+0xa2>
 80051be:	2a25      	cmp	r2, #37	; 0x25
 80051c0:	d1f9      	bne.n	80051b6 <_vfiprintf_r+0x96>
 80051c2:	ebba 0b04 	subs.w	fp, sl, r4
 80051c6:	d00b      	beq.n	80051e0 <_vfiprintf_r+0xc0>
 80051c8:	465b      	mov	r3, fp
 80051ca:	4622      	mov	r2, r4
 80051cc:	4629      	mov	r1, r5
 80051ce:	4630      	mov	r0, r6
 80051d0:	f7ff ff93 	bl	80050fa <__sfputs_r>
 80051d4:	3001      	adds	r0, #1
 80051d6:	f000 80aa 	beq.w	800532e <_vfiprintf_r+0x20e>
 80051da:	9a09      	ldr	r2, [sp, #36]	; 0x24
 80051dc:	445a      	add	r2, fp
 80051de:	9209      	str	r2, [sp, #36]	; 0x24
 80051e0:	f89a 3000 	ldrb.w	r3, [sl]
 80051e4:	2b00      	cmp	r3, #0
 80051e6:	f000 80a2 	beq.w	800532e <_vfiprintf_r+0x20e>
 80051ea:	2300      	movs	r3, #0
 80051ec:	f04f 32ff 	mov.w	r2, #4294967295
 80051f0:	e9cd 2305 	strd	r2, r3, [sp, #20]
 80051f4:	f10a 0a01 	add.w	sl, sl, #1
 80051f8:	9304      	str	r3, [sp, #16]
 80051fa:	9307      	str	r3, [sp, #28]
 80051fc:	f88d 3053 	strb.w	r3, [sp, #83]	; 0x53
 8005200:	931a      	str	r3, [sp, #104]	; 0x68
 8005202:	4654      	mov	r4, sl
 8005204:	2205      	movs	r2, #5
 8005206:	f814 1b01 	ldrb.w	r1, [r4], #1
 800520a:	4858      	ldr	r0, [pc, #352]	; (800536c <_vfiprintf_r+0x24c>)
 800520c:	f7fa ffe8 	bl	80001e0 <memchr>
 8005210:	9a04      	ldr	r2, [sp, #16]
 8005212:	b9d8      	cbnz	r0, 800524c <_vfiprintf_r+0x12c>
 8005214:	06d1      	lsls	r1, r2, #27
 8005216:	bf44      	itt	mi
 8005218:	2320      	movmi	r3, #32
 800521a:	f88d 3053 	strbmi.w	r3, [sp, #83]	; 0x53
 800521e:	0713      	lsls	r3, r2, #28
 8005220:	bf44      	itt	mi
 8005222:	232b      	movmi	r3, #43	; 0x2b
 8005224:	f88d 3053 	strbmi.w	r3, [sp, #83]	; 0x53
 8005228:	f89a 3000 	ldrb.w	r3, [sl]
 800522c:	2b2a      	cmp	r3, #42	; 0x2a
 800522e:	d015      	beq.n	800525c <_vfiprintf_r+0x13c>
 8005230:	9a07      	ldr	r2, [sp, #28]
 8005232:	4654      	mov	r4, sl
 8005234:	2000      	movs	r0, #0
 8005236:	f04f 0c0a 	mov.w	ip, #10
 800523a:	4621      	mov	r1, r4
 800523c:	f811 3b01 	ldrb.w	r3, [r1], #1
 8005240:	3b30      	subs	r3, #48	; 0x30
 8005242:	2b09      	cmp	r3, #9
 8005244:	d94e      	bls.n	80052e4 <_vfiprintf_r+0x1c4>
 8005246:	b1b0      	cbz	r0, 8005276 <_vfiprintf_r+0x156>
 8005248:	9207      	str	r2, [sp, #28]
 800524a:	e014      	b.n	8005276 <_vfiprintf_r+0x156>
 800524c:	eba0 0308 	sub.w	r3, r0, r8
 8005250:	fa09 f303 	lsl.w	r3, r9, r3
 8005254:	4313      	orrs	r3, r2
 8005256:	9304      	str	r3, [sp, #16]
 8005258:	46a2      	mov	sl, r4
 800525a:	e7d2      	b.n	8005202 <_vfiprintf_r+0xe2>
 800525c:	9b03      	ldr	r3, [sp, #12]
 800525e:	1d19      	adds	r1, r3, #4
 8005260:	681b      	ldr	r3, [r3, #0]
 8005262:	9103      	str	r1, [sp, #12]
 8005264:	2b00      	cmp	r3, #0
 8005266:	bfbb      	ittet	lt
 8005268:	425b      	neglt	r3, r3
 800526a:	f042 0202 	orrlt.w	r2, r2, #2
 800526e:	9307      	strge	r3, [sp, #28]
 8005270:	9307      	strlt	r3, [sp, #28]
 8005272:	bfb8      	it	lt
 8005274:	9204      	strlt	r2, [sp, #16]
 8005276:	7823      	ldrb	r3, [r4, #0]
 8005278:	2b2e      	cmp	r3, #46	; 0x2e
 800527a:	d10c      	bne.n	8005296 <_vfiprintf_r+0x176>
 800527c:	7863      	ldrb	r3, [r4, #1]
 800527e:	2b2a      	cmp	r3, #42	; 0x2a
 8005280:	d135      	bne.n	80052ee <_vfiprintf_r+0x1ce>
 8005282:	9b03      	ldr	r3, [sp, #12]
 8005284:	1d1a      	adds	r2, r3, #4
 8005286:	681b      	ldr	r3, [r3, #0]
 8005288:	9203      	str	r2, [sp, #12]
 800528a:	2b00      	cmp	r3, #0
 800528c:	bfb8      	it	lt
 800528e:	f04f 33ff 	movlt.w	r3, #4294967295
 8005292:	3402      	adds	r4, #2
 8005294:	9305      	str	r3, [sp, #20]
 8005296:	f8df a0e4 	ldr.w	sl, [pc, #228]	; 800537c <_vfiprintf_r+0x25c>
 800529a:	7821      	ldrb	r1, [r4, #0]
 800529c:	2203      	movs	r2, #3
 800529e:	4650      	mov	r0, sl
 80052a0:	f7fa ff9e 	bl	80001e0 <memchr>
 80052a4:	b140      	cbz	r0, 80052b8 <_vfiprintf_r+0x198>
 80052a6:	2340      	movs	r3, #64	; 0x40
 80052a8:	eba0 000a 	sub.w	r0, r0, sl
 80052ac:	fa03 f000 	lsl.w	r0, r3, r0
 80052b0:	9b04      	ldr	r3, [sp, #16]
 80052b2:	4303      	orrs	r3, r0
 80052b4:	3401      	adds	r4, #1
 80052b6:	9304      	str	r3, [sp, #16]
 80052b8:	f814 1b01 	ldrb.w	r1, [r4], #1
 80052bc:	482c      	ldr	r0, [pc, #176]	; (8005370 <_vfiprintf_r+0x250>)
 80052be:	f88d 1028 	strb.w	r1, [sp, #40]	; 0x28
 80052c2:	2206      	movs	r2, #6
 80052c4:	f7fa ff8c 	bl	80001e0 <memchr>
 80052c8:	2800      	cmp	r0, #0
 80052ca:	d03f      	beq.n	800534c <_vfiprintf_r+0x22c>
 80052cc:	4b29      	ldr	r3, [pc, #164]	; (8005374 <_vfiprintf_r+0x254>)
 80052ce:	bb1b      	cbnz	r3, 8005318 <_vfiprintf_r+0x1f8>
 80052d0:	9b03      	ldr	r3, [sp, #12]
 80052d2:	3307      	adds	r3, #7
 80052d4:	f023 0307 	bic.w	r3, r3, #7
 80052d8:	3308      	adds	r3, #8
 80052da:	9303      	str	r3, [sp, #12]
 80052dc:	9b09      	ldr	r3, [sp, #36]	; 0x24
 80052de:	443b      	add	r3, r7
 80052e0:	9309      	str	r3, [sp, #36]	; 0x24
 80052e2:	e767      	b.n	80051b4 <_vfiprintf_r+0x94>
 80052e4:	fb0c 3202 	mla	r2, ip, r2, r3
 80052e8:	460c      	mov	r4, r1
 80052ea:	2001      	movs	r0, #1
 80052ec:	e7a5      	b.n	800523a <_vfiprintf_r+0x11a>
 80052ee:	2300      	movs	r3, #0
 80052f0:	3401      	adds	r4, #1
 80052f2:	9305      	str	r3, [sp, #20]
 80052f4:	4619      	mov	r1, r3
 80052f6:	f04f 0c0a 	mov.w	ip, #10
 80052fa:	4620      	mov	r0, r4
 80052fc:	f810 2b01 	ldrb.w	r2, [r0], #1
 8005300:	3a30      	subs	r2, #48	; 0x30
 8005302:	2a09      	cmp	r2, #9
 8005304:	d903      	bls.n	800530e <_vfiprintf_r+0x1ee>
 8005306:	2b00      	cmp	r3, #0
 8005308:	d0c5      	beq.n	8005296 <_vfiprintf_r+0x176>
 800530a:	9105      	str	r1, [sp, #20]
 800530c:	e7c3      	b.n	8005296 <_vfiprintf_r+0x176>
 800530e:	fb0c 2101 	mla	r1, ip, r1, r2
 8005312:	4604      	mov	r4, r0
 8005314:	2301      	movs	r3, #1
 8005316:	e7f0      	b.n	80052fa <_vfiprintf_r+0x1da>
 8005318:	ab03      	add	r3, sp, #12
 800531a:	9300      	str	r3, [sp, #0]
 800531c:	462a      	mov	r2, r5
 800531e:	4b16      	ldr	r3, [pc, #88]	; (8005378 <_vfiprintf_r+0x258>)
 8005320:	a904      	add	r1, sp, #16
 8005322:	4630      	mov	r0, r6
 8005324:	f000 f8cc 	bl	80054c0 <_printf_float>
 8005328:	4607      	mov	r7, r0
 800532a:	1c78      	adds	r0, r7, #1
 800532c:	d1d6      	bne.n	80052dc <_vfiprintf_r+0x1bc>
 800532e:	6e6b      	ldr	r3, [r5, #100]	; 0x64
 8005330:	07d9      	lsls	r1, r3, #31
 8005332:	d405      	bmi.n	8005340 <_vfiprintf_r+0x220>
 8005334:	89ab      	ldrh	r3, [r5, #12]
 8005336:	059a      	lsls	r2, r3, #22
 8005338:	d402      	bmi.n	8005340 <_vfiprintf_r+0x220>
 800533a:	6da8      	ldr	r0, [r5, #88]	; 0x58
 800533c:	f001 fdb0 	bl	8006ea0 <__retarget_lock_release_recursive>
 8005340:	89ab      	ldrh	r3, [r5, #12]
 8005342:	065b      	lsls	r3, r3, #25
 8005344:	f53f af12 	bmi.w	800516c <_vfiprintf_r+0x4c>
 8005348:	9809      	ldr	r0, [sp, #36]	; 0x24
 800534a:	e711      	b.n	8005170 <_vfiprintf_r+0x50>
 800534c:	ab03      	add	r3, sp, #12
 800534e:	9300      	str	r3, [sp, #0]
 8005350:	462a      	mov	r2, r5
 8005352:	4b09      	ldr	r3, [pc, #36]	; (8005378 <_vfiprintf_r+0x258>)
 8005354:	a904      	add	r1, sp, #16
 8005356:	4630      	mov	r0, r6
 8005358:	f000 fb56 	bl	8005a08 <_printf_i>
 800535c:	e7e4      	b.n	8005328 <_vfiprintf_r+0x208>
 800535e:	bf00      	nop
 8005360:	08008350 	.word	0x08008350
 8005364:	08008370 	.word	0x08008370
 8005368:	08008330 	.word	0x08008330
 800536c:	08008258 	.word	0x08008258
 8005370:	08008262 	.word	0x08008262
 8005374:	080054c1 	.word	0x080054c1
 8005378:	080050fb 	.word	0x080050fb
 800537c:	0800825e 	.word	0x0800825e

08005380 <__cvt>:
 8005380:	e92d 47ff 	stmdb	sp!, {r0, r1, r2, r3, r4, r5, r6, r7, r8, r9, sl, lr}
 8005384:	ec55 4b10 	vmov	r4, r5, d0
 8005388:	2d00      	cmp	r5, #0
 800538a:	460e      	mov	r6, r1
 800538c:	4619      	mov	r1, r3
 800538e:	462b      	mov	r3, r5
 8005390:	bfbb      	ittet	lt
 8005392:	f105 4300 	addlt.w	r3, r5, #2147483648	; 0x80000000
 8005396:	461d      	movlt	r5, r3
 8005398:	2300      	movge	r3, #0
 800539a:	232d      	movlt	r3, #45	; 0x2d
 800539c:	700b      	strb	r3, [r1, #0]
 800539e:	9b0d      	ldr	r3, [sp, #52]	; 0x34
 80053a0:	f8dd a030 	ldr.w	sl, [sp, #48]	; 0x30
 80053a4:	4691      	mov	r9, r2
 80053a6:	f023 0820 	bic.w	r8, r3, #32
 80053aa:	bfbc      	itt	lt
 80053ac:	4622      	movlt	r2, r4
 80053ae:	4614      	movlt	r4, r2
 80053b0:	f1b8 0f46 	cmp.w	r8, #70	; 0x46
 80053b4:	d005      	beq.n	80053c2 <__cvt+0x42>
 80053b6:	f1b8 0f45 	cmp.w	r8, #69	; 0x45
 80053ba:	d100      	bne.n	80053be <__cvt+0x3e>
 80053bc:	3601      	adds	r6, #1
 80053be:	2102      	movs	r1, #2
 80053c0:	e000      	b.n	80053c4 <__cvt+0x44>
 80053c2:	2103      	movs	r1, #3
 80053c4:	ab03      	add	r3, sp, #12
 80053c6:	9301      	str	r3, [sp, #4]
 80053c8:	ab02      	add	r3, sp, #8
 80053ca:	9300      	str	r3, [sp, #0]
 80053cc:	ec45 4b10 	vmov	d0, r4, r5
 80053d0:	4653      	mov	r3, sl
 80053d2:	4632      	mov	r2, r6
 80053d4:	f000 fdb8 	bl	8005f48 <_dtoa_r>
 80053d8:	f1b8 0f47 	cmp.w	r8, #71	; 0x47
 80053dc:	4607      	mov	r7, r0
 80053de:	d102      	bne.n	80053e6 <__cvt+0x66>
 80053e0:	f019 0f01 	tst.w	r9, #1
 80053e4:	d022      	beq.n	800542c <__cvt+0xac>
 80053e6:	f1b8 0f46 	cmp.w	r8, #70	; 0x46
 80053ea:	eb07 0906 	add.w	r9, r7, r6
 80053ee:	d110      	bne.n	8005412 <__cvt+0x92>
 80053f0:	783b      	ldrb	r3, [r7, #0]
 80053f2:	2b30      	cmp	r3, #48	; 0x30
 80053f4:	d10a      	bne.n	800540c <__cvt+0x8c>
 80053f6:	2200      	movs	r2, #0
 80053f8:	2300      	movs	r3, #0
 80053fa:	4620      	mov	r0, r4
 80053fc:	4629      	mov	r1, r5
 80053fe:	f7fb fb63 	bl	8000ac8 <__aeabi_dcmpeq>
 8005402:	b918      	cbnz	r0, 800540c <__cvt+0x8c>
 8005404:	f1c6 0601 	rsb	r6, r6, #1
 8005408:	f8ca 6000 	str.w	r6, [sl]
 800540c:	f8da 3000 	ldr.w	r3, [sl]
 8005410:	4499      	add	r9, r3
 8005412:	2200      	movs	r2, #0
 8005414:	2300      	movs	r3, #0
 8005416:	4620      	mov	r0, r4
 8005418:	4629      	mov	r1, r5
 800541a:	f7fb fb55 	bl	8000ac8 <__aeabi_dcmpeq>
 800541e:	b108      	cbz	r0, 8005424 <__cvt+0xa4>
 8005420:	f8cd 900c 	str.w	r9, [sp, #12]
 8005424:	2230      	movs	r2, #48	; 0x30
 8005426:	9b03      	ldr	r3, [sp, #12]
 8005428:	454b      	cmp	r3, r9
 800542a:	d307      	bcc.n	800543c <__cvt+0xbc>
 800542c:	9b03      	ldr	r3, [sp, #12]
 800542e:	9a0e      	ldr	r2, [sp, #56]	; 0x38
 8005430:	1bdb      	subs	r3, r3, r7
 8005432:	4638      	mov	r0, r7
 8005434:	6013      	str	r3, [r2, #0]
 8005436:	b004      	add	sp, #16
 8005438:	e8bd 87f0 	ldmia.w	sp!, {r4, r5, r6, r7, r8, r9, sl, pc}
 800543c:	1c59      	adds	r1, r3, #1
 800543e:	9103      	str	r1, [sp, #12]
 8005440:	701a      	strb	r2, [r3, #0]
 8005442:	e7f0      	b.n	8005426 <__cvt+0xa6>

08005444 <__exponent>:
 8005444:	b5f7      	push	{r0, r1, r2, r4, r5, r6, r7, lr}
 8005446:	4603      	mov	r3, r0
 8005448:	2900      	cmp	r1, #0
 800544a:	bfb8      	it	lt
 800544c:	4249      	neglt	r1, r1
 800544e:	f803 2b02 	strb.w	r2, [r3], #2
 8005452:	bfb4      	ite	lt
 8005454:	222d      	movlt	r2, #45	; 0x2d
 8005456:	222b      	movge	r2, #43	; 0x2b
 8005458:	2909      	cmp	r1, #9
 800545a:	7042      	strb	r2, [r0, #1]
 800545c:	dd2a      	ble.n	80054b4 <__exponent+0x70>
 800545e:	f10d 0407 	add.w	r4, sp, #7
 8005462:	46a4      	mov	ip, r4
 8005464:	270a      	movs	r7, #10
 8005466:	46a6      	mov	lr, r4
 8005468:	460a      	mov	r2, r1
 800546a:	fb91 f6f7 	sdiv	r6, r1, r7
 800546e:	fb07 1516 	mls	r5, r7, r6, r1
 8005472:	3530      	adds	r5, #48	; 0x30
 8005474:	2a63      	cmp	r2, #99	; 0x63
 8005476:	f104 34ff 	add.w	r4, r4, #4294967295
 800547a:	f80e 5c01 	strb.w	r5, [lr, #-1]
 800547e:	4631      	mov	r1, r6
 8005480:	dcf1      	bgt.n	8005466 <__exponent+0x22>
 8005482:	3130      	adds	r1, #48	; 0x30
 8005484:	f1ae 0502 	sub.w	r5, lr, #2
 8005488:	f804 1c01 	strb.w	r1, [r4, #-1]
 800548c:	1c44      	adds	r4, r0, #1
 800548e:	4629      	mov	r1, r5
 8005490:	4561      	cmp	r1, ip
 8005492:	d30a      	bcc.n	80054aa <__exponent+0x66>
 8005494:	f10d 0209 	add.w	r2, sp, #9
 8005498:	eba2 020e 	sub.w	r2, r2, lr
 800549c:	4565      	cmp	r5, ip
 800549e:	bf88      	it	hi
 80054a0:	2200      	movhi	r2, #0
 80054a2:	4413      	add	r3, r2
 80054a4:	1a18      	subs	r0, r3, r0
 80054a6:	b003      	add	sp, #12
 80054a8:	bdf0      	pop	{r4, r5, r6, r7, pc}
 80054aa:	f811 2b01 	ldrb.w	r2, [r1], #1
 80054ae:	f804 2f01 	strb.w	r2, [r4, #1]!
 80054b2:	e7ed      	b.n	8005490 <__exponent+0x4c>
 80054b4:	2330      	movs	r3, #48	; 0x30
 80054b6:	3130      	adds	r1, #48	; 0x30
 80054b8:	7083      	strb	r3, [r0, #2]
 80054ba:	70c1      	strb	r1, [r0, #3]
 80054bc:	1d03      	adds	r3, r0, #4
 80054be:	e7f1      	b.n	80054a4 <__exponent+0x60>

080054c0 <_printf_float>:
 80054c0:	e92d 4ff0 	stmdb	sp!, {r4, r5, r6, r7, r8, r9, sl, fp, lr}
 80054c4:	ed2d 8b02 	vpush	{d8}
 80054c8:	b08d      	sub	sp, #52	; 0x34
 80054ca:	460c      	mov	r4, r1
 80054cc:	f8dd 8060 	ldr.w	r8, [sp, #96]	; 0x60
 80054d0:	4616      	mov	r6, r2
 80054d2:	461f      	mov	r7, r3
 80054d4:	4605      	mov	r5, r0
 80054d6:	f001 fcdd 	bl	8006e94 <_localeconv_r>
 80054da:	f8d0 a000 	ldr.w	sl, [r0]
 80054de:	4650      	mov	r0, sl
 80054e0:	f7fa fe76 	bl	80001d0 <strlen>
 80054e4:	2300      	movs	r3, #0
 80054e6:	930a      	str	r3, [sp, #40]	; 0x28
 80054e8:	6823      	ldr	r3, [r4, #0]
 80054ea:	9305      	str	r3, [sp, #20]
 80054ec:	f8d8 3000 	ldr.w	r3, [r8]
 80054f0:	f894 b018 	ldrb.w	fp, [r4, #24]
 80054f4:	3307      	adds	r3, #7
 80054f6:	f023 0307 	bic.w	r3, r3, #7
 80054fa:	f103 0208 	add.w	r2, r3, #8
 80054fe:	f8c8 2000 	str.w	r2, [r8]
 8005502:	e9d3 2300 	ldrd	r2, r3, [r3]
 8005506:	e9c4 2312 	strd	r2, r3, [r4, #72]	; 0x48
 800550a:	e9d4 8912 	ldrd	r8, r9, [r4, #72]	; 0x48
 800550e:	f029 4300 	bic.w	r3, r9, #2147483648	; 0x80000000
 8005512:	9307      	str	r3, [sp, #28]
 8005514:	f8cd 8018 	str.w	r8, [sp, #24]
 8005518:	ee08 0a10 	vmov	s16, r0
 800551c:	4b9f      	ldr	r3, [pc, #636]	; (800579c <_printf_float+0x2dc>)
 800551e:	e9dd 0106 	ldrd	r0, r1, [sp, #24]
 8005522:	f04f 32ff 	mov.w	r2, #4294967295
 8005526:	f7fb fb01 	bl	8000b2c <__aeabi_dcmpun>
 800552a:	bb88      	cbnz	r0, 8005590 <_printf_float+0xd0>
 800552c:	e9dd 0106 	ldrd	r0, r1, [sp, #24]
 8005530:	4b9a      	ldr	r3, [pc, #616]	; (800579c <_printf_float+0x2dc>)
 8005532:	f04f 32ff 	mov.w	r2, #4294967295
 8005536:	f7fb fadb 	bl	8000af0 <__aeabi_dcmple>
 800553a:	bb48      	cbnz	r0, 8005590 <_printf_float+0xd0>
 800553c:	2200      	movs	r2, #0
 800553e:	2300      	movs	r3, #0
 8005540:	4640      	mov	r0, r8
 8005542:	4649      	mov	r1, r9
 8005544:	f7fb faca 	bl	8000adc <__aeabi_dcmplt>
 8005548:	b110      	cbz	r0, 8005550 <_printf_float+0x90>
 800554a:	232d      	movs	r3, #45	; 0x2d
 800554c:	f884 3043 	strb.w	r3, [r4, #67]	; 0x43
 8005550:	4b93      	ldr	r3, [pc, #588]	; (80057a0 <_printf_float+0x2e0>)
 8005552:	4894      	ldr	r0, [pc, #592]	; (80057a4 <_printf_float+0x2e4>)
 8005554:	f1bb 0f47 	cmp.w	fp, #71	; 0x47
 8005558:	bf94      	ite	ls
 800555a:	4698      	movls	r8, r3
 800555c:	4680      	movhi	r8, r0
 800555e:	2303      	movs	r3, #3
 8005560:	6123      	str	r3, [r4, #16]
 8005562:	9b05      	ldr	r3, [sp, #20]
 8005564:	f023 0204 	bic.w	r2, r3, #4
 8005568:	6022      	str	r2, [r4, #0]
 800556a:	f04f 0900 	mov.w	r9, #0
 800556e:	9700      	str	r7, [sp, #0]
 8005570:	4633      	mov	r3, r6
 8005572:	aa0b      	add	r2, sp, #44	; 0x2c
 8005574:	4621      	mov	r1, r4
 8005576:	4628      	mov	r0, r5
 8005578:	f000 f9d8 	bl	800592c <_printf_common>
 800557c:	3001      	adds	r0, #1
 800557e:	f040 8090 	bne.w	80056a2 <_printf_float+0x1e2>
 8005582:	f04f 30ff 	mov.w	r0, #4294967295
 8005586:	b00d      	add	sp, #52	; 0x34
 8005588:	ecbd 8b02 	vpop	{d8}
 800558c:	e8bd 8ff0 	ldmia.w	sp!, {r4, r5, r6, r7, r8, r9, sl, fp, pc}
 8005590:	4642      	mov	r2, r8
 8005592:	464b      	mov	r3, r9
 8005594:	4640      	mov	r0, r8
 8005596:	4649      	mov	r1, r9
 8005598:	f7fb fac8 	bl	8000b2c <__aeabi_dcmpun>
 800559c:	b140      	cbz	r0, 80055b0 <_printf_float+0xf0>
 800559e:	464b      	mov	r3, r9
 80055a0:	2b00      	cmp	r3, #0
 80055a2:	bfbc      	itt	lt
 80055a4:	232d      	movlt	r3, #45	; 0x2d
 80055a6:	f884 3043 	strblt.w	r3, [r4, #67]	; 0x43
 80055aa:	487f      	ldr	r0, [pc, #508]	; (80057a8 <_printf_float+0x2e8>)
 80055ac:	4b7f      	ldr	r3, [pc, #508]	; (80057ac <_printf_float+0x2ec>)
 80055ae:	e7d1      	b.n	8005554 <_printf_float+0x94>
 80055b0:	6863      	ldr	r3, [r4, #4]
 80055b2:	f00b 02df 	and.w	r2, fp, #223	; 0xdf
 80055b6:	9206      	str	r2, [sp, #24]
 80055b8:	1c5a      	adds	r2, r3, #1
 80055ba:	d13f      	bne.n	800563c <_printf_float+0x17c>
 80055bc:	2306      	movs	r3, #6
 80055be:	6063      	str	r3, [r4, #4]
 80055c0:	9b05      	ldr	r3, [sp, #20]
 80055c2:	6861      	ldr	r1, [r4, #4]
 80055c4:	f443 6280 	orr.w	r2, r3, #1024	; 0x400
 80055c8:	2300      	movs	r3, #0
 80055ca:	9303      	str	r3, [sp, #12]
 80055cc:	ab0a      	add	r3, sp, #40	; 0x28
 80055ce:	e9cd b301 	strd	fp, r3, [sp, #4]
 80055d2:	ab09      	add	r3, sp, #36	; 0x24
 80055d4:	ec49 8b10 	vmov	d0, r8, r9
 80055d8:	9300      	str	r3, [sp, #0]
 80055da:	6022      	str	r2, [r4, #0]
 80055dc:	f10d 0323 	add.w	r3, sp, #35	; 0x23
 80055e0:	4628      	mov	r0, r5
 80055e2:	f7ff fecd 	bl	8005380 <__cvt>
 80055e6:	9b06      	ldr	r3, [sp, #24]
 80055e8:	9909      	ldr	r1, [sp, #36]	; 0x24
 80055ea:	2b47      	cmp	r3, #71	; 0x47
 80055ec:	4680      	mov	r8, r0
 80055ee:	d108      	bne.n	8005602 <_printf_float+0x142>
 80055f0:	1cc8      	adds	r0, r1, #3
 80055f2:	db02      	blt.n	80055fa <_printf_float+0x13a>
 80055f4:	6863      	ldr	r3, [r4, #4]
 80055f6:	4299      	cmp	r1, r3
 80055f8:	dd41      	ble.n	800567e <_printf_float+0x1be>
 80055fa:	f1ab 0b02 	sub.w	fp, fp, #2
 80055fe:	fa5f fb8b 	uxtb.w	fp, fp
 8005602:	f1bb 0f65 	cmp.w	fp, #101	; 0x65
 8005606:	d820      	bhi.n	800564a <_printf_float+0x18a>
 8005608:	3901      	subs	r1, #1
 800560a:	465a      	mov	r2, fp
 800560c:	f104 0050 	add.w	r0, r4, #80	; 0x50
 8005610:	9109      	str	r1, [sp, #36]	; 0x24
 8005612:	f7ff ff17 	bl	8005444 <__exponent>
 8005616:	9a0a      	ldr	r2, [sp, #40]	; 0x28
 8005618:	1813      	adds	r3, r2, r0
 800561a:	2a01      	cmp	r2, #1
 800561c:	4681      	mov	r9, r0
 800561e:	6123      	str	r3, [r4, #16]
 8005620:	dc02      	bgt.n	8005628 <_printf_float+0x168>
 8005622:	6822      	ldr	r2, [r4, #0]
 8005624:	07d2      	lsls	r2, r2, #31
 8005626:	d501      	bpl.n	800562c <_printf_float+0x16c>
 8005628:	3301      	adds	r3, #1
 800562a:	6123      	str	r3, [r4, #16]
 800562c:	f89d 3023 	ldrb.w	r3, [sp, #35]	; 0x23
 8005630:	2b00      	cmp	r3, #0
 8005632:	d09c      	beq.n	800556e <_printf_float+0xae>
 8005634:	232d      	movs	r3, #45	; 0x2d
 8005636:	f884 3043 	strb.w	r3, [r4, #67]	; 0x43
 800563a:	e798      	b.n	800556e <_printf_float+0xae>
 800563c:	9a06      	ldr	r2, [sp, #24]
 800563e:	2a47      	cmp	r2, #71	; 0x47
 8005640:	d1be      	bne.n	80055c0 <_printf_float+0x100>
 8005642:	2b00      	cmp	r3, #0
 8005644:	d1bc      	bne.n	80055c0 <_printf_float+0x100>
 8005646:	2301      	movs	r3, #1
 8005648:	e7b9      	b.n	80055be <_printf_float+0xfe>
 800564a:	f1bb 0f66 	cmp.w	fp, #102	; 0x66
 800564e:	d118      	bne.n	8005682 <_printf_float+0x1c2>
 8005650:	2900      	cmp	r1, #0
 8005652:	6863      	ldr	r3, [r4, #4]
 8005654:	dd0b      	ble.n	800566e <_printf_float+0x1ae>
 8005656:	6121      	str	r1, [r4, #16]
 8005658:	b913      	cbnz	r3, 8005660 <_printf_float+0x1a0>
 800565a:	6822      	ldr	r2, [r4, #0]
 800565c:	07d0      	lsls	r0, r2, #31
 800565e:	d502      	bpl.n	8005666 <_printf_float+0x1a6>
 8005660:	3301      	adds	r3, #1
 8005662:	440b      	add	r3, r1
 8005664:	6123      	str	r3, [r4, #16]
 8005666:	65a1      	str	r1, [r4, #88]	; 0x58
 8005668:	f04f 0900 	mov.w	r9, #0
 800566c:	e7de      	b.n	800562c <_printf_float+0x16c>
 800566e:	b913      	cbnz	r3, 8005676 <_printf_float+0x1b6>
 8005670:	6822      	ldr	r2, [r4, #0]
 8005672:	07d2      	lsls	r2, r2, #31
 8005674:	d501      	bpl.n	800567a <_printf_float+0x1ba>
 8005676:	3302      	adds	r3, #2
 8005678:	e7f4      	b.n	8005664 <_printf_float+0x1a4>
 800567a:	2301      	movs	r3, #1
 800567c:	e7f2      	b.n	8005664 <_printf_float+0x1a4>
 800567e:	f04f 0b67 	mov.w	fp, #103	; 0x67
 8005682:	9b0a      	ldr	r3, [sp, #40]	; 0x28
 8005684:	4299      	cmp	r1, r3
 8005686:	db05      	blt.n	8005694 <_printf_float+0x1d4>
 8005688:	6823      	ldr	r3, [r4, #0]
 800568a:	6121      	str	r1, [r4, #16]
 800568c:	07d8      	lsls	r0, r3, #31
 800568e:	d5ea      	bpl.n	8005666 <_printf_float+0x1a6>
 8005690:	1c4b      	adds	r3, r1, #1
 8005692:	e7e7      	b.n	8005664 <_printf_float+0x1a4>
 8005694:	2900      	cmp	r1, #0
 8005696:	bfd4      	ite	le
 8005698:	f1c1 0202 	rsble	r2, r1, #2
 800569c:	2201      	movgt	r2, #1
 800569e:	4413      	add	r3, r2
 80056a0:	e7e0      	b.n	8005664 <_printf_float+0x1a4>
 80056a2:	6823      	ldr	r3, [r4, #0]
 80056a4:	055a      	lsls	r2, r3, #21
 80056a6:	d407      	bmi.n	80056b8 <_printf_float+0x1f8>
 80056a8:	6923      	ldr	r3, [r4, #16]
 80056aa:	4642      	mov	r2, r8
 80056ac:	4631      	mov	r1, r6
 80056ae:	4628      	mov	r0, r5
 80056b0:	47b8      	blx	r7
 80056b2:	3001      	adds	r0, #1
 80056b4:	d12c      	bne.n	8005710 <_printf_float+0x250>
 80056b6:	e764      	b.n	8005582 <_printf_float+0xc2>
 80056b8:	f1bb 0f65 	cmp.w	fp, #101	; 0x65
 80056bc:	f240 80e0 	bls.w	8005880 <_printf_float+0x3c0>
 80056c0:	e9d4 0112 	ldrd	r0, r1, [r4, #72]	; 0x48
 80056c4:	2200      	movs	r2, #0
 80056c6:	2300      	movs	r3, #0
 80056c8:	f7fb f9fe 	bl	8000ac8 <__aeabi_dcmpeq>
 80056cc:	2800      	cmp	r0, #0
 80056ce:	d034      	beq.n	800573a <_printf_float+0x27a>
 80056d0:	4a37      	ldr	r2, [pc, #220]	; (80057b0 <_printf_float+0x2f0>)
 80056d2:	2301      	movs	r3, #1
 80056d4:	4631      	mov	r1, r6
 80056d6:	4628      	mov	r0, r5
 80056d8:	47b8      	blx	r7
 80056da:	3001      	adds	r0, #1
 80056dc:	f43f af51 	beq.w	8005582 <_printf_float+0xc2>
 80056e0:	e9dd 2309 	ldrd	r2, r3, [sp, #36]	; 0x24
 80056e4:	429a      	cmp	r2, r3
 80056e6:	db02      	blt.n	80056ee <_printf_float+0x22e>
 80056e8:	6823      	ldr	r3, [r4, #0]
 80056ea:	07d8      	lsls	r0, r3, #31
 80056ec:	d510      	bpl.n	8005710 <_printf_float+0x250>
 80056ee:	ee18 3a10 	vmov	r3, s16
 80056f2:	4652      	mov	r2, sl
 80056f4:	4631      	mov	r1, r6
 80056f6:	4628      	mov	r0, r5
 80056f8:	47b8      	blx	r7
 80056fa:	3001      	adds	r0, #1
 80056fc:	f43f af41 	beq.w	8005582 <_printf_float+0xc2>
 8005700:	f04f 0800 	mov.w	r8, #0
 8005704:	f104 091a 	add.w	r9, r4, #26
 8005708:	9b0a      	ldr	r3, [sp, #40]	; 0x28
 800570a:	3b01      	subs	r3, #1
 800570c:	4543      	cmp	r3, r8
 800570e:	dc09      	bgt.n	8005724 <_printf_float+0x264>
 8005710:	6823      	ldr	r3, [r4, #0]
 8005712:	079b      	lsls	r3, r3, #30
 8005714:	f100 8105 	bmi.w	8005922 <_printf_float+0x462>
 8005718:	68e0      	ldr	r0, [r4, #12]
 800571a:	9b0b      	ldr	r3, [sp, #44]	; 0x2c
 800571c:	4298      	cmp	r0, r3
 800571e:	bfb8      	it	lt
 8005720:	4618      	movlt	r0, r3
 8005722:	e730      	b.n	8005586 <_printf_float+0xc6>
 8005724:	2301      	movs	r3, #1
 8005726:	464a      	mov	r2, r9
 8005728:	4631      	mov	r1, r6
 800572a:	4628      	mov	r0, r5
 800572c:	47b8      	blx	r7
 800572e:	3001      	adds	r0, #1
 8005730:	f43f af27 	beq.w	8005582 <_printf_float+0xc2>
 8005734:	f108 0801 	add.w	r8, r8, #1
 8005738:	e7e6      	b.n	8005708 <_printf_float+0x248>
 800573a:	9b09      	ldr	r3, [sp, #36]	; 0x24
 800573c:	2b00      	cmp	r3, #0
 800573e:	dc39      	bgt.n	80057b4 <_printf_float+0x2f4>
 8005740:	4a1b      	ldr	r2, [pc, #108]	; (80057b0 <_printf_float+0x2f0>)
 8005742:	2301      	movs	r3, #1
 8005744:	4631      	mov	r1, r6
 8005746:	4628      	mov	r0, r5
 8005748:	47b8      	blx	r7
 800574a:	3001      	adds	r0, #1
 800574c:	f43f af19 	beq.w	8005582 <_printf_float+0xc2>
 8005750:	e9dd 2309 	ldrd	r2, r3, [sp, #36]	; 0x24
 8005754:	4313      	orrs	r3, r2
 8005756:	d102      	bne.n	800575e <_printf_float+0x29e>
 8005758:	6823      	ldr	r3, [r4, #0]
 800575a:	07d9      	lsls	r1, r3, #31
 800575c:	d5d8      	bpl.n	8005710 <_printf_float+0x250>
 800575e:	ee18 3a10 	vmov	r3, s16
 8005762:	4652      	mov	r2, sl
 8005764:	4631      	mov	r1, r6
 8005766:	4628      	mov	r0, r5
 8005768:	47b8      	blx	r7
 800576a:	3001      	adds	r0, #1
 800576c:	f43f af09 	beq.w	8005582 <_printf_float+0xc2>
 8005770:	f04f 0900 	mov.w	r9, #0
 8005774:	f104 0a1a 	add.w	sl, r4, #26
 8005778:	9b09      	ldr	r3, [sp, #36]	; 0x24
 800577a:	425b      	negs	r3, r3
 800577c:	454b      	cmp	r3, r9
 800577e:	dc01      	bgt.n	8005784 <_printf_float+0x2c4>
 8005780:	9b0a      	ldr	r3, [sp, #40]	; 0x28
 8005782:	e792      	b.n	80056aa <_printf_float+0x1ea>
 8005784:	2301      	movs	r3, #1
 8005786:	4652      	mov	r2, sl
 8005788:	4631      	mov	r1, r6
 800578a:	4628      	mov	r0, r5
 800578c:	47b8      	blx	r7
 800578e:	3001      	adds	r0, #1
 8005790:	f43f aef7 	beq.w	8005582 <_printf_float+0xc2>
 8005794:	f109 0901 	add.w	r9, r9, #1
 8005798:	e7ee      	b.n	8005778 <_printf_float+0x2b8>
 800579a:	bf00      	nop
 800579c:	7fefffff 	.word	0x7fefffff
 80057a0:	08008269 	.word	0x08008269
 80057a4:	0800826d 	.word	0x0800826d
 80057a8:	08008275 	.word	0x08008275
 80057ac:	08008271 	.word	0x08008271
 80057b0:	08008279 	.word	0x08008279
 80057b4:	9a0a      	ldr	r2, [sp, #40]	; 0x28
 80057b6:	6da3      	ldr	r3, [r4, #88]	; 0x58
 80057b8:	429a      	cmp	r2, r3
 80057ba:	bfa8      	it	ge
 80057bc:	461a      	movge	r2, r3
 80057be:	2a00      	cmp	r2, #0
 80057c0:	4691      	mov	r9, r2
 80057c2:	dc37      	bgt.n	8005834 <_printf_float+0x374>
 80057c4:	f04f 0b00 	mov.w	fp, #0
 80057c8:	ea29 79e9 	bic.w	r9, r9, r9, asr #31
 80057cc:	f104 021a 	add.w	r2, r4, #26
 80057d0:	6da3      	ldr	r3, [r4, #88]	; 0x58
 80057d2:	9305      	str	r3, [sp, #20]
 80057d4:	eba3 0309 	sub.w	r3, r3, r9
 80057d8:	455b      	cmp	r3, fp
 80057da:	dc33      	bgt.n	8005844 <_printf_float+0x384>
 80057dc:	e9dd 2309 	ldrd	r2, r3, [sp, #36]	; 0x24
 80057e0:	429a      	cmp	r2, r3
 80057e2:	db3b      	blt.n	800585c <_printf_float+0x39c>
 80057e4:	6823      	ldr	r3, [r4, #0]
 80057e6:	07da      	lsls	r2, r3, #31
 80057e8:	d438      	bmi.n	800585c <_printf_float+0x39c>
 80057ea:	9b0a      	ldr	r3, [sp, #40]	; 0x28
 80057ec:	9a05      	ldr	r2, [sp, #20]
 80057ee:	9909      	ldr	r1, [sp, #36]	; 0x24
 80057f0:	1a9a      	subs	r2, r3, r2
 80057f2:	eba3 0901 	sub.w	r9, r3, r1
 80057f6:	4591      	cmp	r9, r2
 80057f8:	bfa8      	it	ge
 80057fa:	4691      	movge	r9, r2
 80057fc:	f1b9 0f00 	cmp.w	r9, #0
 8005800:	dc35      	bgt.n	800586e <_printf_float+0x3ae>
 8005802:	f04f 0800 	mov.w	r8, #0
 8005806:	ea29 79e9 	bic.w	r9, r9, r9, asr #31
 800580a:	f104 0a1a 	add.w	sl, r4, #26
 800580e:	e9dd 2309 	ldrd	r2, r3, [sp, #36]	; 0x24
 8005812:	1a9b      	subs	r3, r3, r2
 8005814:	eba3 0309 	sub.w	r3, r3, r9
 8005818:	4543      	cmp	r3, r8
 800581a:	f77f af79 	ble.w	8005710 <_printf_float+0x250>
 800581e:	2301      	movs	r3, #1
 8005820:	4652      	mov	r2, sl
 8005822:	4631      	mov	r1, r6
 8005824:	4628      	mov	r0, r5
 8005826:	47b8      	blx	r7
 8005828:	3001      	adds	r0, #1
 800582a:	f43f aeaa 	beq.w	8005582 <_printf_float+0xc2>
 800582e:	f108 0801 	add.w	r8, r8, #1
 8005832:	e7ec      	b.n	800580e <_printf_float+0x34e>
 8005834:	4613      	mov	r3, r2
 8005836:	4631      	mov	r1, r6
 8005838:	4642      	mov	r2, r8
 800583a:	4628      	mov	r0, r5
 800583c:	47b8      	blx	r7
 800583e:	3001      	adds	r0, #1
 8005840:	d1c0      	bne.n	80057c4 <_printf_float+0x304>
 8005842:	e69e      	b.n	8005582 <_printf_float+0xc2>
 8005844:	2301      	movs	r3, #1
 8005846:	4631      	mov	r1, r6
 8005848:	4628      	mov	r0, r5
 800584a:	9205      	str	r2, [sp, #20]
 800584c:	47b8      	blx	r7
 800584e:	3001      	adds	r0, #1
 8005850:	f43f ae97 	beq.w	8005582 <_printf_float+0xc2>
 8005854:	9a05      	ldr	r2, [sp, #20]
 8005856:	f10b 0b01 	add.w	fp, fp, #1
 800585a:	e7b9      	b.n	80057d0 <_printf_float+0x310>
 800585c:	ee18 3a10 	vmov	r3, s16
 8005860:	4652      	mov	r2, sl
 8005862:	4631      	mov	r1, r6
 8005864:	4628      	mov	r0, r5
 8005866:	47b8      	blx	r7
 8005868:	3001      	adds	r0, #1
 800586a:	d1be      	bne.n	80057ea <_printf_float+0x32a>
 800586c:	e689      	b.n	8005582 <_printf_float+0xc2>
 800586e:	9a05      	ldr	r2, [sp, #20]
 8005870:	464b      	mov	r3, r9
 8005872:	4442      	add	r2, r8
 8005874:	4631      	mov	r1, r6
 8005876:	4628      	mov	r0, r5
 8005878:	47b8      	blx	r7
 800587a:	3001      	adds	r0, #1
 800587c:	d1c1      	bne.n	8005802 <_printf_float+0x342>
 800587e:	e680      	b.n	8005582 <_printf_float+0xc2>
 8005880:	9a0a      	ldr	r2, [sp, #40]	; 0x28
 8005882:	2a01      	cmp	r2, #1
 8005884:	dc01      	bgt.n	800588a <_printf_float+0x3ca>
 8005886:	07db      	lsls	r3, r3, #31
 8005888:	d538      	bpl.n	80058fc <_printf_float+0x43c>
 800588a:	2301      	movs	r3, #1
 800588c:	4642      	mov	r2, r8
 800588e:	4631      	mov	r1, r6
 8005890:	4628      	mov	r0, r5
 8005892:	47b8      	blx	r7
 8005894:	3001      	adds	r0, #1
 8005896:	f43f ae74 	beq.w	8005582 <_printf_float+0xc2>
 800589a:	ee18 3a10 	vmov	r3, s16
 800589e:	4652      	mov	r2, sl
 80058a0:	4631      	mov	r1, r6
 80058a2:	4628      	mov	r0, r5
 80058a4:	47b8      	blx	r7
 80058a6:	3001      	adds	r0, #1
 80058a8:	f43f ae6b 	beq.w	8005582 <_printf_float+0xc2>
 80058ac:	e9d4 0112 	ldrd	r0, r1, [r4, #72]	; 0x48
 80058b0:	2200      	movs	r2, #0
 80058b2:	2300      	movs	r3, #0
 80058b4:	f7fb f908 	bl	8000ac8 <__aeabi_dcmpeq>
 80058b8:	b9d8      	cbnz	r0, 80058f2 <_printf_float+0x432>
 80058ba:	9b0a      	ldr	r3, [sp, #40]	; 0x28
 80058bc:	f108 0201 	add.w	r2, r8, #1
 80058c0:	3b01      	subs	r3, #1
 80058c2:	4631      	mov	r1, r6
 80058c4:	4628      	mov	r0, r5
 80058c6:	47b8      	blx	r7
 80058c8:	3001      	adds	r0, #1
 80058ca:	d10e      	bne.n	80058ea <_printf_float+0x42a>
 80058cc:	e659      	b.n	8005582 <_printf_float+0xc2>
 80058ce:	2301      	movs	r3, #1
 80058d0:	4652      	mov	r2, sl
 80058d2:	4631      	mov	r1, r6
 80058d4:	4628      	mov	r0, r5
 80058d6:	47b8      	blx	r7
 80058d8:	3001      	adds	r0, #1
 80058da:	f43f ae52 	beq.w	8005582 <_printf_float+0xc2>
 80058de:	f108 0801 	add.w	r8, r8, #1
 80058e2:	9b0a      	ldr	r3, [sp, #40]	; 0x28
 80058e4:	3b01      	subs	r3, #1
 80058e6:	4543      	cmp	r3, r8
 80058e8:	dcf1      	bgt.n	80058ce <_printf_float+0x40e>
 80058ea:	464b      	mov	r3, r9
 80058ec:	f104 0250 	add.w	r2, r4, #80	; 0x50
 80058f0:	e6dc      	b.n	80056ac <_printf_float+0x1ec>
 80058f2:	f04f 0800 	mov.w	r8, #0
 80058f6:	f104 0a1a 	add.w	sl, r4, #26
 80058fa:	e7f2      	b.n	80058e2 <_printf_float+0x422>
 80058fc:	2301      	movs	r3, #1
 80058fe:	4642      	mov	r2, r8
 8005900:	e7df      	b.n	80058c2 <_printf_float+0x402>
 8005902:	2301      	movs	r3, #1
 8005904:	464a      	mov	r2, r9
 8005906:	4631      	mov	r1, r6
 8005908:	4628      	mov	r0, r5
 800590a:	47b8      	blx	r7
 800590c:	3001      	adds	r0, #1
 800590e:	f43f ae38 	beq.w	8005582 <_printf_float+0xc2>
 8005912:	f108 0801 	add.w	r8, r8, #1
 8005916:	68e3      	ldr	r3, [r4, #12]
 8005918:	990b      	ldr	r1, [sp, #44]	; 0x2c
 800591a:	1a5b      	subs	r3, r3, r1
 800591c:	4543      	cmp	r3, r8
 800591e:	dcf0      	bgt.n	8005902 <_printf_float+0x442>
 8005920:	e6fa      	b.n	8005718 <_printf_float+0x258>
 8005922:	f04f 0800 	mov.w	r8, #0
 8005926:	f104 0919 	add.w	r9, r4, #25
 800592a:	e7f4      	b.n	8005916 <_printf_float+0x456>

0800592c <_printf_common>:
 800592c:	e92d 47f0 	stmdb	sp!, {r4, r5, r6, r7, r8, r9, sl, lr}
 8005930:	4616      	mov	r6, r2
 8005932:	4699      	mov	r9, r3
 8005934:	688a      	ldr	r2, [r1, #8]
 8005936:	690b      	ldr	r3, [r1, #16]
 8005938:	f8dd 8020 	ldr.w	r8, [sp, #32]
 800593c:	4293      	cmp	r3, r2
 800593e:	bfb8      	it	lt
 8005940:	4613      	movlt	r3, r2
 8005942:	6033      	str	r3, [r6, #0]
 8005944:	f891 2043 	ldrb.w	r2, [r1, #67]	; 0x43
 8005948:	4607      	mov	r7, r0
 800594a:	460c      	mov	r4, r1
 800594c:	b10a      	cbz	r2, 8005952 <_printf_common+0x26>
 800594e:	3301      	adds	r3, #1
 8005950:	6033      	str	r3, [r6, #0]
 8005952:	6823      	ldr	r3, [r4, #0]
 8005954:	0699      	lsls	r1, r3, #26
 8005956:	bf42      	ittt	mi
 8005958:	6833      	ldrmi	r3, [r6, #0]
 800595a:	3302      	addmi	r3, #2
 800595c:	6033      	strmi	r3, [r6, #0]
 800595e:	6825      	ldr	r5, [r4, #0]
 8005960:	f015 0506 	ands.w	r5, r5, #6
 8005964:	d106      	bne.n	8005974 <_printf_common+0x48>
 8005966:	f104 0a19 	add.w	sl, r4, #25
 800596a:	68e3      	ldr	r3, [r4, #12]
 800596c:	6832      	ldr	r2, [r6, #0]
 800596e:	1a9b      	subs	r3, r3, r2
 8005970:	42ab      	cmp	r3, r5
 8005972:	dc26      	bgt.n	80059c2 <_printf_common+0x96>
 8005974:	f894 2043 	ldrb.w	r2, [r4, #67]	; 0x43
 8005978:	1e13      	subs	r3, r2, #0
 800597a:	6822      	ldr	r2, [r4, #0]
 800597c:	bf18      	it	ne
 800597e:	2301      	movne	r3, #1
 8005980:	0692      	lsls	r2, r2, #26
 8005982:	d42b      	bmi.n	80059dc <_printf_common+0xb0>
 8005984:	f104 0243 	add.w	r2, r4, #67	; 0x43
 8005988:	4649      	mov	r1, r9
 800598a:	4638      	mov	r0, r7
 800598c:	47c0      	blx	r8
 800598e:	3001      	adds	r0, #1
 8005990:	d01e      	beq.n	80059d0 <_printf_common+0xa4>
 8005992:	6823      	ldr	r3, [r4, #0]
 8005994:	68e5      	ldr	r5, [r4, #12]
 8005996:	6832      	ldr	r2, [r6, #0]
 8005998:	f003 0306 	and.w	r3, r3, #6
 800599c:	2b04      	cmp	r3, #4
 800599e:	bf08      	it	eq
 80059a0:	1aad      	subeq	r5, r5, r2
 80059a2:	68a3      	ldr	r3, [r4, #8]
 80059a4:	6922      	ldr	r2, [r4, #16]
 80059a6:	bf0c      	ite	eq
 80059a8:	ea25 75e5 	biceq.w	r5, r5, r5, asr #31
 80059ac:	2500      	movne	r5, #0
 80059ae:	4293      	cmp	r3, r2
 80059b0:	bfc4      	itt	gt
 80059b2:	1a9b      	subgt	r3, r3, r2
 80059b4:	18ed      	addgt	r5, r5, r3
 80059b6:	2600      	movs	r6, #0
 80059b8:	341a      	adds	r4, #26
 80059ba:	42b5      	cmp	r5, r6
 80059bc:	d11a      	bne.n	80059f4 <_printf_common+0xc8>
 80059be:	2000      	movs	r0, #0
 80059c0:	e008      	b.n	80059d4 <_printf_common+0xa8>
 80059c2:	2301      	movs	r3, #1
 80059c4:	4652      	mov	r2, sl
 80059c6:	4649      	mov	r1, r9
 80059c8:	4638      	mov	r0, r7
 80059ca:	47c0      	blx	r8
 80059cc:	3001      	adds	r0, #1
 80059ce:	d103      	bne.n	80059d8 <_printf_common+0xac>
 80059d0:	f04f 30ff 	mov.w	r0, #4294967295
 80059d4:	e8bd 87f0 	ldmia.w	sp!, {r4, r5, r6, r7, r8, r9, sl, pc}
 80059d8:	3501      	adds	r5, #1
 80059da:	e7c6      	b.n	800596a <_printf_common+0x3e>
 80059dc:	18e1      	adds	r1, r4, r3
 80059de:	1c5a      	adds	r2, r3, #1
 80059e0:	2030      	movs	r0, #48	; 0x30
 80059e2:	f881 0043 	strb.w	r0, [r1, #67]	; 0x43
 80059e6:	4422      	add	r2, r4
 80059e8:	f894 1045 	ldrb.w	r1, [r4, #69]	; 0x45
 80059ec:	f882 1043 	strb.w	r1, [r2, #67]	; 0x43
 80059f0:	3302      	adds	r3, #2
 80059f2:	e7c7      	b.n	8005984 <_printf_common+0x58>
 80059f4:	2301      	movs	r3, #1
 80059f6:	4622      	mov	r2, r4
 80059f8:	4649      	mov	r1, r9
 80059fa:	4638      	mov	r0, r7
 80059fc:	47c0      	blx	r8
 80059fe:	3001      	adds	r0, #1
 8005a00:	d0e6      	beq.n	80059d0 <_printf_common+0xa4>
 8005a02:	3601      	adds	r6, #1
 8005a04:	e7d9      	b.n	80059ba <_printf_common+0x8e>
	...

08005a08 <_printf_i>:
 8005a08:	e92d 47ff 	stmdb	sp!, {r0, r1, r2, r3, r4, r5, r6, r7, r8, r9, sl, lr}
 8005a0c:	7e0f      	ldrb	r7, [r1, #24]
 8005a0e:	9d0c      	ldr	r5, [sp, #48]	; 0x30
 8005a10:	2f78      	cmp	r7, #120	; 0x78
 8005a12:	4691      	mov	r9, r2
 8005a14:	4680      	mov	r8, r0
 8005a16:	460c      	mov	r4, r1
 8005a18:	469a      	mov	sl, r3
 8005a1a:	f101 0243 	add.w	r2, r1, #67	; 0x43
 8005a1e:	d807      	bhi.n	8005a30 <_printf_i+0x28>
 8005a20:	2f62      	cmp	r7, #98	; 0x62
 8005a22:	d80a      	bhi.n	8005a3a <_printf_i+0x32>
 8005a24:	2f00      	cmp	r7, #0
 8005a26:	f000 80d8 	beq.w	8005bda <_printf_i+0x1d2>
 8005a2a:	2f58      	cmp	r7, #88	; 0x58
 8005a2c:	f000 80a3 	beq.w	8005b76 <_printf_i+0x16e>
 8005a30:	f104 0542 	add.w	r5, r4, #66	; 0x42
 8005a34:	f884 7042 	strb.w	r7, [r4, #66]	; 0x42
 8005a38:	e03a      	b.n	8005ab0 <_printf_i+0xa8>
 8005a3a:	f1a7 0363 	sub.w	r3, r7, #99	; 0x63
 8005a3e:	2b15      	cmp	r3, #21
 8005a40:	d8f6      	bhi.n	8005a30 <_printf_i+0x28>
 8005a42:	a101      	add	r1, pc, #4	; (adr r1, 8005a48 <_printf_i+0x40>)
 8005a44:	f851 f023 	ldr.w	pc, [r1, r3, lsl #2]
 8005a48:	08005aa1 	.word	0x08005aa1
 8005a4c:	08005ab5 	.word	0x08005ab5
 8005a50:	08005a31 	.word	0x08005a31
 8005a54:	08005a31 	.word	0x08005a31
 8005a58:	08005a31 	.word	0x08005a31
 8005a5c:	08005a31 	.word	0x08005a31
 8005a60:	08005ab5 	.word	0x08005ab5
 8005a64:	08005a31 	.word	0x08005a31
 8005a68:	08005a31 	.word	0x08005a31
 8005a6c:	08005a31 	.word	0x08005a31
 8005a70:	08005a31 	.word	0x08005a31
 8005a74:	08005bc1 	.word	0x08005bc1
 8005a78:	08005ae5 	.word	0x08005ae5
 8005a7c:	08005ba3 	.word	0x08005ba3
 8005a80:	08005a31 	.word	0x08005a31
 8005a84:	08005a31 	.word	0x08005a31
 8005a88:	08005be3 	.word	0x08005be3
 8005a8c:	08005a31 	.word	0x08005a31
 8005a90:	08005ae5 	.word	0x08005ae5
 8005a94:	08005a31 	.word	0x08005a31
 8005a98:	08005a31 	.word	0x08005a31
 8005a9c:	08005bab 	.word	0x08005bab
 8005aa0:	682b      	ldr	r3, [r5, #0]
 8005aa2:	1d1a      	adds	r2, r3, #4
 8005aa4:	681b      	ldr	r3, [r3, #0]
 8005aa6:	602a      	str	r2, [r5, #0]
 8005aa8:	f104 0542 	add.w	r5, r4, #66	; 0x42
 8005aac:	f884 3042 	strb.w	r3, [r4, #66]	; 0x42
 8005ab0:	2301      	movs	r3, #1
 8005ab2:	e0a3      	b.n	8005bfc <_printf_i+0x1f4>
 8005ab4:	6820      	ldr	r0, [r4, #0]
 8005ab6:	6829      	ldr	r1, [r5, #0]
 8005ab8:	0606      	lsls	r6, r0, #24
 8005aba:	f101 0304 	add.w	r3, r1, #4
 8005abe:	d50a      	bpl.n	8005ad6 <_printf_i+0xce>
 8005ac0:	680e      	ldr	r6, [r1, #0]
 8005ac2:	602b      	str	r3, [r5, #0]
 8005ac4:	2e00      	cmp	r6, #0
 8005ac6:	da03      	bge.n	8005ad0 <_printf_i+0xc8>
 8005ac8:	232d      	movs	r3, #45	; 0x2d
 8005aca:	4276      	negs	r6, r6
 8005acc:	f884 3043 	strb.w	r3, [r4, #67]	; 0x43
 8005ad0:	485e      	ldr	r0, [pc, #376]	; (8005c4c <_printf_i+0x244>)
 8005ad2:	230a      	movs	r3, #10
 8005ad4:	e019      	b.n	8005b0a <_printf_i+0x102>
 8005ad6:	680e      	ldr	r6, [r1, #0]
 8005ad8:	602b      	str	r3, [r5, #0]
 8005ada:	f010 0f40 	tst.w	r0, #64	; 0x40
 8005ade:	bf18      	it	ne
 8005ae0:	b236      	sxthne	r6, r6
 8005ae2:	e7ef      	b.n	8005ac4 <_printf_i+0xbc>
 8005ae4:	682b      	ldr	r3, [r5, #0]
 8005ae6:	6820      	ldr	r0, [r4, #0]
 8005ae8:	1d19      	adds	r1, r3, #4
 8005aea:	6029      	str	r1, [r5, #0]
 8005aec:	0601      	lsls	r1, r0, #24
 8005aee:	d501      	bpl.n	8005af4 <_printf_i+0xec>
 8005af0:	681e      	ldr	r6, [r3, #0]
 8005af2:	e002      	b.n	8005afa <_printf_i+0xf2>
 8005af4:	0646      	lsls	r6, r0, #25
 8005af6:	d5fb      	bpl.n	8005af0 <_printf_i+0xe8>
 8005af8:	881e      	ldrh	r6, [r3, #0]
 8005afa:	4854      	ldr	r0, [pc, #336]	; (8005c4c <_printf_i+0x244>)
 8005afc:	2f6f      	cmp	r7, #111	; 0x6f
 8005afe:	bf0c      	ite	eq
 8005b00:	2308      	moveq	r3, #8
 8005b02:	230a      	movne	r3, #10
 8005b04:	2100      	movs	r1, #0
 8005b06:	f884 1043 	strb.w	r1, [r4, #67]	; 0x43
 8005b0a:	6865      	ldr	r5, [r4, #4]
 8005b0c:	60a5      	str	r5, [r4, #8]
 8005b0e:	2d00      	cmp	r5, #0
 8005b10:	bfa2      	ittt	ge
 8005b12:	6821      	ldrge	r1, [r4, #0]
 8005b14:	f021 0104 	bicge.w	r1, r1, #4
 8005b18:	6021      	strge	r1, [r4, #0]
 8005b1a:	b90e      	cbnz	r6, 8005b20 <_printf_i+0x118>
 8005b1c:	2d00      	cmp	r5, #0
 8005b1e:	d04d      	beq.n	8005bbc <_printf_i+0x1b4>
 8005b20:	4615      	mov	r5, r2
 8005b22:	fbb6 f1f3 	udiv	r1, r6, r3
 8005b26:	fb03 6711 	mls	r7, r3, r1, r6
 8005b2a:	5dc7      	ldrb	r7, [r0, r7]
 8005b2c:	f805 7d01 	strb.w	r7, [r5, #-1]!
 8005b30:	4637      	mov	r7, r6
 8005b32:	42bb      	cmp	r3, r7
 8005b34:	460e      	mov	r6, r1
 8005b36:	d9f4      	bls.n	8005b22 <_printf_i+0x11a>
 8005b38:	2b08      	cmp	r3, #8
 8005b3a:	d10b      	bne.n	8005b54 <_printf_i+0x14c>
 8005b3c:	6823      	ldr	r3, [r4, #0]
 8005b3e:	07de      	lsls	r6, r3, #31
 8005b40:	d508      	bpl.n	8005b54 <_printf_i+0x14c>
 8005b42:	6923      	ldr	r3, [r4, #16]
 8005b44:	6861      	ldr	r1, [r4, #4]
 8005b46:	4299      	cmp	r1, r3
 8005b48:	bfde      	ittt	le
 8005b4a:	2330      	movle	r3, #48	; 0x30
 8005b4c:	f805 3c01 	strble.w	r3, [r5, #-1]
 8005b50:	f105 35ff 	addle.w	r5, r5, #4294967295
 8005b54:	1b52      	subs	r2, r2, r5
 8005b56:	6122      	str	r2, [r4, #16]
 8005b58:	f8cd a000 	str.w	sl, [sp]
 8005b5c:	464b      	mov	r3, r9
 8005b5e:	aa03      	add	r2, sp, #12
 8005b60:	4621      	mov	r1, r4
 8005b62:	4640      	mov	r0, r8
 8005b64:	f7ff fee2 	bl	800592c <_printf_common>
 8005b68:	3001      	adds	r0, #1
 8005b6a:	d14c      	bne.n	8005c06 <_printf_i+0x1fe>
 8005b6c:	f04f 30ff 	mov.w	r0, #4294967295
 8005b70:	b004      	add	sp, #16
 8005b72:	e8bd 87f0 	ldmia.w	sp!, {r4, r5, r6, r7, r8, r9, sl, pc}
 8005b76:	4835      	ldr	r0, [pc, #212]	; (8005c4c <_printf_i+0x244>)
 8005b78:	f881 7045 	strb.w	r7, [r1, #69]	; 0x45
 8005b7c:	6829      	ldr	r1, [r5, #0]
 8005b7e:	6823      	ldr	r3, [r4, #0]
 8005b80:	f851 6b04 	ldr.w	r6, [r1], #4
 8005b84:	6029      	str	r1, [r5, #0]
 8005b86:	061d      	lsls	r5, r3, #24
 8005b88:	d514      	bpl.n	8005bb4 <_printf_i+0x1ac>
 8005b8a:	07df      	lsls	r7, r3, #31
 8005b8c:	bf44      	itt	mi
 8005b8e:	f043 0320 	orrmi.w	r3, r3, #32
 8005b92:	6023      	strmi	r3, [r4, #0]
 8005b94:	b91e      	cbnz	r6, 8005b9e <_printf_i+0x196>
 8005b96:	6823      	ldr	r3, [r4, #0]
 8005b98:	f023 0320 	bic.w	r3, r3, #32
 8005b9c:	6023      	str	r3, [r4, #0]
 8005b9e:	2310      	movs	r3, #16
 8005ba0:	e7b0      	b.n	8005b04 <_printf_i+0xfc>
 8005ba2:	6823      	ldr	r3, [r4, #0]
 8005ba4:	f043 0320 	orr.w	r3, r3, #32
 8005ba8:	6023      	str	r3, [r4, #0]
 8005baa:	2378      	movs	r3, #120	; 0x78
 8005bac:	4828      	ldr	r0, [pc, #160]	; (8005c50 <_printf_i+0x248>)
 8005bae:	f884 3045 	strb.w	r3, [r4, #69]	; 0x45
 8005bb2:	e7e3      	b.n	8005b7c <_printf_i+0x174>
 8005bb4:	0659      	lsls	r1, r3, #25
 8005bb6:	bf48      	it	mi
 8005bb8:	b2b6      	uxthmi	r6, r6
 8005bba:	e7e6      	b.n	8005b8a <_printf_i+0x182>
 8005bbc:	4615      	mov	r5, r2
 8005bbe:	e7bb      	b.n	8005b38 <_printf_i+0x130>
 8005bc0:	682b      	ldr	r3, [r5, #0]
 8005bc2:	6826      	ldr	r6, [r4, #0]
 8005bc4:	6961      	ldr	r1, [r4, #20]
 8005bc6:	1d18      	adds	r0, r3, #4
 8005bc8:	6028      	str	r0, [r5, #0]
 8005bca:	0635      	lsls	r5, r6, #24
 8005bcc:	681b      	ldr	r3, [r3, #0]
 8005bce:	d501      	bpl.n	8005bd4 <_printf_i+0x1cc>
 8005bd0:	6019      	str	r1, [r3, #0]
 8005bd2:	e002      	b.n	8005bda <_printf_i+0x1d2>
 8005bd4:	0670      	lsls	r0, r6, #25
 8005bd6:	d5fb      	bpl.n	8005bd0 <_printf_i+0x1c8>
 8005bd8:	8019      	strh	r1, [r3, #0]
 8005bda:	2300      	movs	r3, #0
 8005bdc:	6123      	str	r3, [r4, #16]
 8005bde:	4615      	mov	r5, r2
 8005be0:	e7ba      	b.n	8005b58 <_printf_i+0x150>
 8005be2:	682b      	ldr	r3, [r5, #0]
 8005be4:	1d1a      	adds	r2, r3, #4
 8005be6:	602a      	str	r2, [r5, #0]
 8005be8:	681d      	ldr	r5, [r3, #0]
 8005bea:	6862      	ldr	r2, [r4, #4]
 8005bec:	2100      	movs	r1, #0
 8005bee:	4628      	mov	r0, r5
 8005bf0:	f7fa faf6 	bl	80001e0 <memchr>
 8005bf4:	b108      	cbz	r0, 8005bfa <_printf_i+0x1f2>
 8005bf6:	1b40      	subs	r0, r0, r5
 8005bf8:	6060      	str	r0, [r4, #4]
 8005bfa:	6863      	ldr	r3, [r4, #4]
 8005bfc:	6123      	str	r3, [r4, #16]
 8005bfe:	2300      	movs	r3, #0
 8005c00:	f884 3043 	strb.w	r3, [r4, #67]	; 0x43
 8005c04:	e7a8      	b.n	8005b58 <_printf_i+0x150>
 8005c06:	6923      	ldr	r3, [r4, #16]
 8005c08:	462a      	mov	r2, r5
 8005c0a:	4649      	mov	r1, r9
 8005c0c:	4640      	mov	r0, r8
 8005c0e:	47d0      	blx	sl
 8005c10:	3001      	adds	r0, #1
 8005c12:	d0ab      	beq.n	8005b6c <_printf_i+0x164>
 8005c14:	6823      	ldr	r3, [r4, #0]
 8005c16:	079b      	lsls	r3, r3, #30
 8005c18:	d413      	bmi.n	8005c42 <_printf_i+0x23a>
 8005c1a:	68e0      	ldr	r0, [r4, #12]
 8005c1c:	9b03      	ldr	r3, [sp, #12]
 8005c1e:	4298      	cmp	r0, r3
 8005c20:	bfb8      	it	lt
 8005c22:	4618      	movlt	r0, r3
 8005c24:	e7a4      	b.n	8005b70 <_printf_i+0x168>
 8005c26:	2301      	movs	r3, #1
 8005c28:	4632      	mov	r2, r6
 8005c2a:	4649      	mov	r1, r9
 8005c2c:	4640      	mov	r0, r8
 8005c2e:	47d0      	blx	sl
 8005c30:	3001      	adds	r0, #1
 8005c32:	d09b      	beq.n	8005b6c <_printf_i+0x164>
 8005c34:	3501      	adds	r5, #1
 8005c36:	68e3      	ldr	r3, [r4, #12]
 8005c38:	9903      	ldr	r1, [sp, #12]
 8005c3a:	1a5b      	subs	r3, r3, r1
 8005c3c:	42ab      	cmp	r3, r5
 8005c3e:	dcf2      	bgt.n	8005c26 <_printf_i+0x21e>
 8005c40:	e7eb      	b.n	8005c1a <_printf_i+0x212>
 8005c42:	2500      	movs	r5, #0
 8005c44:	f104 0619 	add.w	r6, r4, #25
 8005c48:	e7f5      	b.n	8005c36 <_printf_i+0x22e>
 8005c4a:	bf00      	nop
 8005c4c:	0800827b 	.word	0x0800827b
 8005c50:	0800828c 	.word	0x0800828c

08005c54 <siprintf>:
 8005c54:	b40e      	push	{r1, r2, r3}
 8005c56:	b500      	push	{lr}
 8005c58:	b09c      	sub	sp, #112	; 0x70
 8005c5a:	ab1d      	add	r3, sp, #116	; 0x74
 8005c5c:	9002      	str	r0, [sp, #8]
 8005c5e:	9006      	str	r0, [sp, #24]
 8005c60:	f06f 4100 	mvn.w	r1, #2147483648	; 0x80000000
 8005c64:	4809      	ldr	r0, [pc, #36]	; (8005c8c <siprintf+0x38>)
 8005c66:	9107      	str	r1, [sp, #28]
 8005c68:	9104      	str	r1, [sp, #16]
 8005c6a:	4909      	ldr	r1, [pc, #36]	; (8005c90 <siprintf+0x3c>)
 8005c6c:	f853 2b04 	ldr.w	r2, [r3], #4
 8005c70:	9105      	str	r1, [sp, #20]
 8005c72:	6800      	ldr	r0, [r0, #0]
 8005c74:	9301      	str	r3, [sp, #4]
 8005c76:	a902      	add	r1, sp, #8
 8005c78:	f001 fe9e 	bl	80079b8 <_svfiprintf_r>
 8005c7c:	9b02      	ldr	r3, [sp, #8]
 8005c7e:	2200      	movs	r2, #0
 8005c80:	701a      	strb	r2, [r3, #0]
 8005c82:	b01c      	add	sp, #112	; 0x70
 8005c84:	f85d eb04 	ldr.w	lr, [sp], #4
 8005c88:	b003      	add	sp, #12
 8005c8a:	4770      	bx	lr
 8005c8c:	20000098 	.word	0x20000098
 8005c90:	ffff0208 	.word	0xffff0208

08005c94 <strcpy>:
 8005c94:	4603      	mov	r3, r0
 8005c96:	f811 2b01 	ldrb.w	r2, [r1], #1
 8005c9a:	f803 2b01 	strb.w	r2, [r3], #1
 8005c9e:	2a00      	cmp	r2, #0
 8005ca0:	d1f9      	bne.n	8005c96 <strcpy+0x2>
 8005ca2:	4770      	bx	lr

08005ca4 <__swbuf_r>:
 8005ca4:	b5f8      	push	{r3, r4, r5, r6, r7, lr}
 8005ca6:	460e      	mov	r6, r1
 8005ca8:	4614      	mov	r4, r2
 8005caa:	4605      	mov	r5, r0
 8005cac:	b118      	cbz	r0, 8005cb6 <__swbuf_r+0x12>
 8005cae:	6983      	ldr	r3, [r0, #24]
 8005cb0:	b90b      	cbnz	r3, 8005cb6 <__swbuf_r+0x12>
 8005cb2:	f001 f851 	bl	8006d58 <__sinit>
 8005cb6:	4b21      	ldr	r3, [pc, #132]	; (8005d3c <__swbuf_r+0x98>)
 8005cb8:	429c      	cmp	r4, r3
 8005cba:	d12b      	bne.n	8005d14 <__swbuf_r+0x70>
 8005cbc:	686c      	ldr	r4, [r5, #4]
 8005cbe:	69a3      	ldr	r3, [r4, #24]
 8005cc0:	60a3      	str	r3, [r4, #8]
 8005cc2:	89a3      	ldrh	r3, [r4, #12]
 8005cc4:	071a      	lsls	r2, r3, #28
 8005cc6:	d52f      	bpl.n	8005d28 <__swbuf_r+0x84>
 8005cc8:	6923      	ldr	r3, [r4, #16]
 8005cca:	b36b      	cbz	r3, 8005d28 <__swbuf_r+0x84>
 8005ccc:	6923      	ldr	r3, [r4, #16]
 8005cce:	6820      	ldr	r0, [r4, #0]
 8005cd0:	1ac0      	subs	r0, r0, r3
 8005cd2:	6963      	ldr	r3, [r4, #20]
 8005cd4:	b2f6      	uxtb	r6, r6
 8005cd6:	4283      	cmp	r3, r0
 8005cd8:	4637      	mov	r7, r6
 8005cda:	dc04      	bgt.n	8005ce6 <__swbuf_r+0x42>
 8005cdc:	4621      	mov	r1, r4
 8005cde:	4628      	mov	r0, r5
 8005ce0:	f000 ffa6 	bl	8006c30 <_fflush_r>
 8005ce4:	bb30      	cbnz	r0, 8005d34 <__swbuf_r+0x90>
 8005ce6:	68a3      	ldr	r3, [r4, #8]
 8005ce8:	3b01      	subs	r3, #1
 8005cea:	60a3      	str	r3, [r4, #8]
 8005cec:	6823      	ldr	r3, [r4, #0]
 8005cee:	1c5a      	adds	r2, r3, #1
 8005cf0:	6022      	str	r2, [r4, #0]
 8005cf2:	701e      	strb	r6, [r3, #0]
 8005cf4:	6963      	ldr	r3, [r4, #20]
 8005cf6:	3001      	adds	r0, #1
 8005cf8:	4283      	cmp	r3, r0
 8005cfa:	d004      	beq.n	8005d06 <__swbuf_r+0x62>
 8005cfc:	89a3      	ldrh	r3, [r4, #12]
 8005cfe:	07db      	lsls	r3, r3, #31
 8005d00:	d506      	bpl.n	8005d10 <__swbuf_r+0x6c>
 8005d02:	2e0a      	cmp	r6, #10
 8005d04:	d104      	bne.n	8005d10 <__swbuf_r+0x6c>
 8005d06:	4621      	mov	r1, r4
 8005d08:	4628      	mov	r0, r5
 8005d0a:	f000 ff91 	bl	8006c30 <_fflush_r>
 8005d0e:	b988      	cbnz	r0, 8005d34 <__swbuf_r+0x90>
 8005d10:	4638      	mov	r0, r7
 8005d12:	bdf8      	pop	{r3, r4, r5, r6, r7, pc}
 8005d14:	4b0a      	ldr	r3, [pc, #40]	; (8005d40 <__swbuf_r+0x9c>)
 8005d16:	429c      	cmp	r4, r3
 8005d18:	d101      	bne.n	8005d1e <__swbuf_r+0x7a>
 8005d1a:	68ac      	ldr	r4, [r5, #8]
 8005d1c:	e7cf      	b.n	8005cbe <__swbuf_r+0x1a>
 8005d1e:	4b09      	ldr	r3, [pc, #36]	; (8005d44 <__swbuf_r+0xa0>)
 8005d20:	429c      	cmp	r4, r3
 8005d22:	bf08      	it	eq
 8005d24:	68ec      	ldreq	r4, [r5, #12]
 8005d26:	e7ca      	b.n	8005cbe <__swbuf_r+0x1a>
 8005d28:	4621      	mov	r1, r4
 8005d2a:	4628      	mov	r0, r5
 8005d2c:	f000 f80c 	bl	8005d48 <__swsetup_r>
 8005d30:	2800      	cmp	r0, #0
 8005d32:	d0cb      	beq.n	8005ccc <__swbuf_r+0x28>
 8005d34:	f04f 37ff 	mov.w	r7, #4294967295
 8005d38:	e7ea      	b.n	8005d10 <__swbuf_r+0x6c>
 8005d3a:	bf00      	nop
 8005d3c:	08008350 	.word	0x08008350
 8005d40:	08008370 	.word	0x08008370
 8005d44:	08008330 	.word	0x08008330

08005d48 <__swsetup_r>:
 8005d48:	4b32      	ldr	r3, [pc, #200]	; (8005e14 <__swsetup_r+0xcc>)
 8005d4a:	b570      	push	{r4, r5, r6, lr}
 8005d4c:	681d      	ldr	r5, [r3, #0]
 8005d4e:	4606      	mov	r6, r0
 8005d50:	460c      	mov	r4, r1
 8005d52:	b125      	cbz	r5, 8005d5e <__swsetup_r+0x16>
 8005d54:	69ab      	ldr	r3, [r5, #24]
 8005d56:	b913      	cbnz	r3, 8005d5e <__swsetup_r+0x16>
 8005d58:	4628      	mov	r0, r5
 8005d5a:	f000 fffd 	bl	8006d58 <__sinit>
 8005d5e:	4b2e      	ldr	r3, [pc, #184]	; (8005e18 <__swsetup_r+0xd0>)
 8005d60:	429c      	cmp	r4, r3
 8005d62:	d10f      	bne.n	8005d84 <__swsetup_r+0x3c>
 8005d64:	686c      	ldr	r4, [r5, #4]
 8005d66:	89a3      	ldrh	r3, [r4, #12]
 8005d68:	f9b4 200c 	ldrsh.w	r2, [r4, #12]
 8005d6c:	0719      	lsls	r1, r3, #28
 8005d6e:	d42c      	bmi.n	8005dca <__swsetup_r+0x82>
 8005d70:	06dd      	lsls	r5, r3, #27
 8005d72:	d411      	bmi.n	8005d98 <__swsetup_r+0x50>
 8005d74:	2309      	movs	r3, #9
 8005d76:	6033      	str	r3, [r6, #0]
 8005d78:	f042 0340 	orr.w	r3, r2, #64	; 0x40
 8005d7c:	81a3      	strh	r3, [r4, #12]
 8005d7e:	f04f 30ff 	mov.w	r0, #4294967295
 8005d82:	e03e      	b.n	8005e02 <__swsetup_r+0xba>
 8005d84:	4b25      	ldr	r3, [pc, #148]	; (8005e1c <__swsetup_r+0xd4>)
 8005d86:	429c      	cmp	r4, r3
 8005d88:	d101      	bne.n	8005d8e <__swsetup_r+0x46>
 8005d8a:	68ac      	ldr	r4, [r5, #8]
 8005d8c:	e7eb      	b.n	8005d66 <__swsetup_r+0x1e>
 8005d8e:	4b24      	ldr	r3, [pc, #144]	; (8005e20 <__swsetup_r+0xd8>)
 8005d90:	429c      	cmp	r4, r3
 8005d92:	bf08      	it	eq
 8005d94:	68ec      	ldreq	r4, [r5, #12]
 8005d96:	e7e6      	b.n	8005d66 <__swsetup_r+0x1e>
 8005d98:	0758      	lsls	r0, r3, #29
 8005d9a:	d512      	bpl.n	8005dc2 <__swsetup_r+0x7a>
 8005d9c:	6b61      	ldr	r1, [r4, #52]	; 0x34
 8005d9e:	b141      	cbz	r1, 8005db2 <__swsetup_r+0x6a>
 8005da0:	f104 0344 	add.w	r3, r4, #68	; 0x44
 8005da4:	4299      	cmp	r1, r3
 8005da6:	d002      	beq.n	8005dae <__swsetup_r+0x66>
 8005da8:	4630      	mov	r0, r6
 8005daa:	f001 fc9b 	bl	80076e4 <_free_r>
 8005dae:	2300      	movs	r3, #0
 8005db0:	6363      	str	r3, [r4, #52]	; 0x34
 8005db2:	89a3      	ldrh	r3, [r4, #12]
 8005db4:	f023 0324 	bic.w	r3, r3, #36	; 0x24
 8005db8:	81a3      	strh	r3, [r4, #12]
 8005dba:	2300      	movs	r3, #0
 8005dbc:	6063      	str	r3, [r4, #4]
 8005dbe:	6923      	ldr	r3, [r4, #16]
 8005dc0:	6023      	str	r3, [r4, #0]
 8005dc2:	89a3      	ldrh	r3, [r4, #12]
 8005dc4:	f043 0308 	orr.w	r3, r3, #8
 8005dc8:	81a3      	strh	r3, [r4, #12]
 8005dca:	6923      	ldr	r3, [r4, #16]
 8005dcc:	b94b      	cbnz	r3, 8005de2 <__swsetup_r+0x9a>
 8005dce:	89a3      	ldrh	r3, [r4, #12]
 8005dd0:	f403 7320 	and.w	r3, r3, #640	; 0x280
 8005dd4:	f5b3 7f00 	cmp.w	r3, #512	; 0x200
 8005dd8:	d003      	beq.n	8005de2 <__swsetup_r+0x9a>
 8005dda:	4621      	mov	r1, r4
 8005ddc:	4630      	mov	r0, r6
 8005dde:	f001 f885 	bl	8006eec <__smakebuf_r>
 8005de2:	89a0      	ldrh	r0, [r4, #12]
 8005de4:	f9b4 200c 	ldrsh.w	r2, [r4, #12]
 8005de8:	f010 0301 	ands.w	r3, r0, #1
 8005dec:	d00a      	beq.n	8005e04 <__swsetup_r+0xbc>
 8005dee:	2300      	movs	r3, #0
 8005df0:	60a3      	str	r3, [r4, #8]
 8005df2:	6963      	ldr	r3, [r4, #20]
 8005df4:	425b      	negs	r3, r3
 8005df6:	61a3      	str	r3, [r4, #24]
 8005df8:	6923      	ldr	r3, [r4, #16]
 8005dfa:	b943      	cbnz	r3, 8005e0e <__swsetup_r+0xc6>
 8005dfc:	f010 0080 	ands.w	r0, r0, #128	; 0x80
 8005e00:	d1ba      	bne.n	8005d78 <__swsetup_r+0x30>
 8005e02:	bd70      	pop	{r4, r5, r6, pc}
 8005e04:	0781      	lsls	r1, r0, #30
 8005e06:	bf58      	it	pl
 8005e08:	6963      	ldrpl	r3, [r4, #20]
 8005e0a:	60a3      	str	r3, [r4, #8]
 8005e0c:	e7f4      	b.n	8005df8 <__swsetup_r+0xb0>
 8005e0e:	2000      	movs	r0, #0
 8005e10:	e7f7      	b.n	8005e02 <__swsetup_r+0xba>
 8005e12:	bf00      	nop
 8005e14:	20000098 	.word	0x20000098
 8005e18:	08008350 	.word	0x08008350
 8005e1c:	08008370 	.word	0x08008370
 8005e20:	08008330 	.word	0x08008330

08005e24 <abort>:
 8005e24:	b508      	push	{r3, lr}
 8005e26:	2006      	movs	r0, #6
 8005e28:	f001 fefe 	bl	8007c28 <raise>
 8005e2c:	2001      	movs	r0, #1
 8005e2e:	f7fb fbbd 	bl	80015ac <_exit>

08005e32 <quorem>:
 8005e32:	e92d 4ff7 	stmdb	sp!, {r0, r1, r2, r4, r5, r6, r7, r8, r9, sl, fp, lr}
 8005e36:	6903      	ldr	r3, [r0, #16]
 8005e38:	690c      	ldr	r4, [r1, #16]
 8005e3a:	42a3      	cmp	r3, r4
 8005e3c:	4607      	mov	r7, r0
 8005e3e:	f2c0 8081 	blt.w	8005f44 <quorem+0x112>
 8005e42:	3c01      	subs	r4, #1
 8005e44:	f101 0814 	add.w	r8, r1, #20
 8005e48:	f100 0514 	add.w	r5, r0, #20
 8005e4c:	eb05 0384 	add.w	r3, r5, r4, lsl #2
 8005e50:	9301      	str	r3, [sp, #4]
 8005e52:	f858 3024 	ldr.w	r3, [r8, r4, lsl #2]
 8005e56:	f855 2024 	ldr.w	r2, [r5, r4, lsl #2]
 8005e5a:	3301      	adds	r3, #1
 8005e5c:	429a      	cmp	r2, r3
 8005e5e:	ea4f 0b84 	mov.w	fp, r4, lsl #2
 8005e62:	eb08 0984 	add.w	r9, r8, r4, lsl #2
 8005e66:	fbb2 f6f3 	udiv	r6, r2, r3
 8005e6a:	d331      	bcc.n	8005ed0 <quorem+0x9e>
 8005e6c:	f04f 0e00 	mov.w	lr, #0
 8005e70:	4640      	mov	r0, r8
 8005e72:	46ac      	mov	ip, r5
 8005e74:	46f2      	mov	sl, lr
 8005e76:	f850 2b04 	ldr.w	r2, [r0], #4
 8005e7a:	b293      	uxth	r3, r2
 8005e7c:	fb06 e303 	mla	r3, r6, r3, lr
 8005e80:	ea4f 4e13 	mov.w	lr, r3, lsr #16
 8005e84:	b29b      	uxth	r3, r3
 8005e86:	ebaa 0303 	sub.w	r3, sl, r3
 8005e8a:	f8dc a000 	ldr.w	sl, [ip]
 8005e8e:	0c12      	lsrs	r2, r2, #16
 8005e90:	fa13 f38a 	uxtah	r3, r3, sl
 8005e94:	fb06 e202 	mla	r2, r6, r2, lr
 8005e98:	9300      	str	r3, [sp, #0]
 8005e9a:	9b00      	ldr	r3, [sp, #0]
 8005e9c:	ea4f 4e12 	mov.w	lr, r2, lsr #16
 8005ea0:	b292      	uxth	r2, r2
 8005ea2:	ebc2 421a 	rsb	r2, r2, sl, lsr #16
 8005ea6:	eb02 4223 	add.w	r2, r2, r3, asr #16
 8005eaa:	f8bd 3000 	ldrh.w	r3, [sp]
 8005eae:	4581      	cmp	r9, r0
 8005eb0:	ea43 4302 	orr.w	r3, r3, r2, lsl #16
 8005eb4:	f84c 3b04 	str.w	r3, [ip], #4
 8005eb8:	ea4f 4a22 	mov.w	sl, r2, asr #16
 8005ebc:	d2db      	bcs.n	8005e76 <quorem+0x44>
 8005ebe:	f855 300b 	ldr.w	r3, [r5, fp]
 8005ec2:	b92b      	cbnz	r3, 8005ed0 <quorem+0x9e>
 8005ec4:	9b01      	ldr	r3, [sp, #4]
 8005ec6:	3b04      	subs	r3, #4
 8005ec8:	429d      	cmp	r5, r3
 8005eca:	461a      	mov	r2, r3
 8005ecc:	d32e      	bcc.n	8005f2c <quorem+0xfa>
 8005ece:	613c      	str	r4, [r7, #16]
 8005ed0:	4638      	mov	r0, r7
 8005ed2:	f001 faef 	bl	80074b4 <__mcmp>
 8005ed6:	2800      	cmp	r0, #0
 8005ed8:	db24      	blt.n	8005f24 <quorem+0xf2>
 8005eda:	3601      	adds	r6, #1
 8005edc:	4628      	mov	r0, r5
 8005ede:	f04f 0c00 	mov.w	ip, #0
 8005ee2:	f858 2b04 	ldr.w	r2, [r8], #4
 8005ee6:	f8d0 e000 	ldr.w	lr, [r0]
 8005eea:	b293      	uxth	r3, r2
 8005eec:	ebac 0303 	sub.w	r3, ip, r3
 8005ef0:	0c12      	lsrs	r2, r2, #16
 8005ef2:	fa13 f38e 	uxtah	r3, r3, lr
 8005ef6:	ebc2 421e 	rsb	r2, r2, lr, lsr #16
 8005efa:	eb02 4223 	add.w	r2, r2, r3, asr #16
 8005efe:	b29b      	uxth	r3, r3
 8005f00:	ea43 4302 	orr.w	r3, r3, r2, lsl #16
 8005f04:	45c1      	cmp	r9, r8
 8005f06:	f840 3b04 	str.w	r3, [r0], #4
 8005f0a:	ea4f 4c22 	mov.w	ip, r2, asr #16
 8005f0e:	d2e8      	bcs.n	8005ee2 <quorem+0xb0>
 8005f10:	f855 2024 	ldr.w	r2, [r5, r4, lsl #2]
 8005f14:	eb05 0384 	add.w	r3, r5, r4, lsl #2
 8005f18:	b922      	cbnz	r2, 8005f24 <quorem+0xf2>
 8005f1a:	3b04      	subs	r3, #4
 8005f1c:	429d      	cmp	r5, r3
 8005f1e:	461a      	mov	r2, r3
 8005f20:	d30a      	bcc.n	8005f38 <quorem+0x106>
 8005f22:	613c      	str	r4, [r7, #16]
 8005f24:	4630      	mov	r0, r6
 8005f26:	b003      	add	sp, #12
 8005f28:	e8bd 8ff0 	ldmia.w	sp!, {r4, r5, r6, r7, r8, r9, sl, fp, pc}
 8005f2c:	6812      	ldr	r2, [r2, #0]
 8005f2e:	3b04      	subs	r3, #4
 8005f30:	2a00      	cmp	r2, #0
 8005f32:	d1cc      	bne.n	8005ece <quorem+0x9c>
 8005f34:	3c01      	subs	r4, #1
 8005f36:	e7c7      	b.n	8005ec8 <quorem+0x96>
 8005f38:	6812      	ldr	r2, [r2, #0]
 8005f3a:	3b04      	subs	r3, #4
 8005f3c:	2a00      	cmp	r2, #0
 8005f3e:	d1f0      	bne.n	8005f22 <quorem+0xf0>
 8005f40:	3c01      	subs	r4, #1
 8005f42:	e7eb      	b.n	8005f1c <quorem+0xea>
 8005f44:	2000      	movs	r0, #0
 8005f46:	e7ee      	b.n	8005f26 <quorem+0xf4>

08005f48 <_dtoa_r>:
 8005f48:	e92d 4ff0 	stmdb	sp!, {r4, r5, r6, r7, r8, r9, sl, fp, lr}
 8005f4c:	ed2d 8b04 	vpush	{d8-d9}
 8005f50:	ec57 6b10 	vmov	r6, r7, d0
 8005f54:	b093      	sub	sp, #76	; 0x4c
 8005f56:	6a45      	ldr	r5, [r0, #36]	; 0x24
 8005f58:	f8dd 8080 	ldr.w	r8, [sp, #128]	; 0x80
 8005f5c:	9106      	str	r1, [sp, #24]
 8005f5e:	ee10 aa10 	vmov	sl, s0
 8005f62:	4604      	mov	r4, r0
 8005f64:	9209      	str	r2, [sp, #36]	; 0x24
 8005f66:	930c      	str	r3, [sp, #48]	; 0x30
 8005f68:	46bb      	mov	fp, r7
 8005f6a:	b975      	cbnz	r5, 8005f8a <_dtoa_r+0x42>
 8005f6c:	2010      	movs	r0, #16
 8005f6e:	f000 fffd 	bl	8006f6c <malloc>
 8005f72:	4602      	mov	r2, r0
 8005f74:	6260      	str	r0, [r4, #36]	; 0x24
 8005f76:	b920      	cbnz	r0, 8005f82 <_dtoa_r+0x3a>
 8005f78:	4ba7      	ldr	r3, [pc, #668]	; (8006218 <_dtoa_r+0x2d0>)
 8005f7a:	21ea      	movs	r1, #234	; 0xea
 8005f7c:	48a7      	ldr	r0, [pc, #668]	; (800621c <_dtoa_r+0x2d4>)
 8005f7e:	f7ff f835 	bl	8004fec <__assert_func>
 8005f82:	e9c0 5501 	strd	r5, r5, [r0, #4]
 8005f86:	6005      	str	r5, [r0, #0]
 8005f88:	60c5      	str	r5, [r0, #12]
 8005f8a:	6a63      	ldr	r3, [r4, #36]	; 0x24
 8005f8c:	6819      	ldr	r1, [r3, #0]
 8005f8e:	b151      	cbz	r1, 8005fa6 <_dtoa_r+0x5e>
 8005f90:	685a      	ldr	r2, [r3, #4]
 8005f92:	604a      	str	r2, [r1, #4]
 8005f94:	2301      	movs	r3, #1
 8005f96:	4093      	lsls	r3, r2
 8005f98:	608b      	str	r3, [r1, #8]
 8005f9a:	4620      	mov	r0, r4
 8005f9c:	f001 f848 	bl	8007030 <_Bfree>
 8005fa0:	6a63      	ldr	r3, [r4, #36]	; 0x24
 8005fa2:	2200      	movs	r2, #0
 8005fa4:	601a      	str	r2, [r3, #0]
 8005fa6:	1e3b      	subs	r3, r7, #0
 8005fa8:	bfaa      	itet	ge
 8005faa:	2300      	movge	r3, #0
 8005fac:	f023 4b00 	biclt.w	fp, r3, #2147483648	; 0x80000000
 8005fb0:	f8c8 3000 	strge.w	r3, [r8]
 8005fb4:	4b9a      	ldr	r3, [pc, #616]	; (8006220 <_dtoa_r+0x2d8>)
 8005fb6:	bfbc      	itt	lt
 8005fb8:	2201      	movlt	r2, #1
 8005fba:	f8c8 2000 	strlt.w	r2, [r8]
 8005fbe:	ea33 030b 	bics.w	r3, r3, fp
 8005fc2:	d11b      	bne.n	8005ffc <_dtoa_r+0xb4>
 8005fc4:	9a0c      	ldr	r2, [sp, #48]	; 0x30
 8005fc6:	f242 730f 	movw	r3, #9999	; 0x270f
 8005fca:	6013      	str	r3, [r2, #0]
 8005fcc:	f3cb 0313 	ubfx	r3, fp, #0, #20
 8005fd0:	4333      	orrs	r3, r6
 8005fd2:	f000 8592 	beq.w	8006afa <_dtoa_r+0xbb2>
 8005fd6:	9b21      	ldr	r3, [sp, #132]	; 0x84
 8005fd8:	b963      	cbnz	r3, 8005ff4 <_dtoa_r+0xac>
 8005fda:	4b92      	ldr	r3, [pc, #584]	; (8006224 <_dtoa_r+0x2dc>)
 8005fdc:	e022      	b.n	8006024 <_dtoa_r+0xdc>
 8005fde:	4b92      	ldr	r3, [pc, #584]	; (8006228 <_dtoa_r+0x2e0>)
 8005fe0:	9301      	str	r3, [sp, #4]
 8005fe2:	3308      	adds	r3, #8
 8005fe4:	9a21      	ldr	r2, [sp, #132]	; 0x84
 8005fe6:	6013      	str	r3, [r2, #0]
 8005fe8:	9801      	ldr	r0, [sp, #4]
 8005fea:	b013      	add	sp, #76	; 0x4c
 8005fec:	ecbd 8b04 	vpop	{d8-d9}
 8005ff0:	e8bd 8ff0 	ldmia.w	sp!, {r4, r5, r6, r7, r8, r9, sl, fp, pc}
 8005ff4:	4b8b      	ldr	r3, [pc, #556]	; (8006224 <_dtoa_r+0x2dc>)
 8005ff6:	9301      	str	r3, [sp, #4]
 8005ff8:	3303      	adds	r3, #3
 8005ffa:	e7f3      	b.n	8005fe4 <_dtoa_r+0x9c>
 8005ffc:	2200      	movs	r2, #0
 8005ffe:	2300      	movs	r3, #0
 8006000:	4650      	mov	r0, sl
 8006002:	4659      	mov	r1, fp
 8006004:	f7fa fd60 	bl	8000ac8 <__aeabi_dcmpeq>
 8006008:	ec4b ab19 	vmov	d9, sl, fp
 800600c:	4680      	mov	r8, r0
 800600e:	b158      	cbz	r0, 8006028 <_dtoa_r+0xe0>
 8006010:	9a0c      	ldr	r2, [sp, #48]	; 0x30
 8006012:	2301      	movs	r3, #1
 8006014:	6013      	str	r3, [r2, #0]
 8006016:	9b21      	ldr	r3, [sp, #132]	; 0x84
 8006018:	2b00      	cmp	r3, #0
 800601a:	f000 856b 	beq.w	8006af4 <_dtoa_r+0xbac>
 800601e:	4883      	ldr	r0, [pc, #524]	; (800622c <_dtoa_r+0x2e4>)
 8006020:	6018      	str	r0, [r3, #0]
 8006022:	1e43      	subs	r3, r0, #1
 8006024:	9301      	str	r3, [sp, #4]
 8006026:	e7df      	b.n	8005fe8 <_dtoa_r+0xa0>
 8006028:	ec4b ab10 	vmov	d0, sl, fp
 800602c:	aa10      	add	r2, sp, #64	; 0x40
 800602e:	a911      	add	r1, sp, #68	; 0x44
 8006030:	4620      	mov	r0, r4
 8006032:	f001 fae5 	bl	8007600 <__d2b>
 8006036:	f3cb 550a 	ubfx	r5, fp, #20, #11
 800603a:	ee08 0a10 	vmov	s16, r0
 800603e:	2d00      	cmp	r5, #0
 8006040:	f000 8084 	beq.w	800614c <_dtoa_r+0x204>
 8006044:	ee19 3a90 	vmov	r3, s19
 8006048:	f3c3 0313 	ubfx	r3, r3, #0, #20
 800604c:	f043 577f 	orr.w	r7, r3, #1069547520	; 0x3fc00000
 8006050:	4656      	mov	r6, sl
 8006052:	f447 1740 	orr.w	r7, r7, #3145728	; 0x300000
 8006056:	f2a5 35ff 	subw	r5, r5, #1023	; 0x3ff
 800605a:	f8cd 8038 	str.w	r8, [sp, #56]	; 0x38
 800605e:	4b74      	ldr	r3, [pc, #464]	; (8006230 <_dtoa_r+0x2e8>)
 8006060:	2200      	movs	r2, #0
 8006062:	4630      	mov	r0, r6
 8006064:	4639      	mov	r1, r7
 8006066:	f7fa f90f 	bl	8000288 <__aeabi_dsub>
 800606a:	a365      	add	r3, pc, #404	; (adr r3, 8006200 <_dtoa_r+0x2b8>)
 800606c:	e9d3 2300 	ldrd	r2, r3, [r3]
 8006070:	f7fa fac2 	bl	80005f8 <__aeabi_dmul>
 8006074:	a364      	add	r3, pc, #400	; (adr r3, 8006208 <_dtoa_r+0x2c0>)
 8006076:	e9d3 2300 	ldrd	r2, r3, [r3]
 800607a:	f7fa f907 	bl	800028c <__adddf3>
 800607e:	4606      	mov	r6, r0
 8006080:	4628      	mov	r0, r5
 8006082:	460f      	mov	r7, r1
 8006084:	f7fa fa4e 	bl	8000524 <__aeabi_i2d>
 8006088:	a361      	add	r3, pc, #388	; (adr r3, 8006210 <_dtoa_r+0x2c8>)
 800608a:	e9d3 2300 	ldrd	r2, r3, [r3]
 800608e:	f7fa fab3 	bl	80005f8 <__aeabi_dmul>
 8006092:	4602      	mov	r2, r0
 8006094:	460b      	mov	r3, r1
 8006096:	4630      	mov	r0, r6
 8006098:	4639      	mov	r1, r7
 800609a:	f7fa f8f7 	bl	800028c <__adddf3>
 800609e:	4606      	mov	r6, r0
 80060a0:	460f      	mov	r7, r1
 80060a2:	f7fa fd59 	bl	8000b58 <__aeabi_d2iz>
 80060a6:	2200      	movs	r2, #0
 80060a8:	9000      	str	r0, [sp, #0]
 80060aa:	2300      	movs	r3, #0
 80060ac:	4630      	mov	r0, r6
 80060ae:	4639      	mov	r1, r7
 80060b0:	f7fa fd14 	bl	8000adc <__aeabi_dcmplt>
 80060b4:	b150      	cbz	r0, 80060cc <_dtoa_r+0x184>
 80060b6:	9800      	ldr	r0, [sp, #0]
 80060b8:	f7fa fa34 	bl	8000524 <__aeabi_i2d>
 80060bc:	4632      	mov	r2, r6
 80060be:	463b      	mov	r3, r7
 80060c0:	f7fa fd02 	bl	8000ac8 <__aeabi_dcmpeq>
 80060c4:	b910      	cbnz	r0, 80060cc <_dtoa_r+0x184>
 80060c6:	9b00      	ldr	r3, [sp, #0]
 80060c8:	3b01      	subs	r3, #1
 80060ca:	9300      	str	r3, [sp, #0]
 80060cc:	9b00      	ldr	r3, [sp, #0]
 80060ce:	2b16      	cmp	r3, #22
 80060d0:	d85a      	bhi.n	8006188 <_dtoa_r+0x240>
 80060d2:	9a00      	ldr	r2, [sp, #0]
 80060d4:	4b57      	ldr	r3, [pc, #348]	; (8006234 <_dtoa_r+0x2ec>)
 80060d6:	eb03 03c2 	add.w	r3, r3, r2, lsl #3
 80060da:	e9d3 2300 	ldrd	r2, r3, [r3]
 80060de:	ec51 0b19 	vmov	r0, r1, d9
 80060e2:	f7fa fcfb 	bl	8000adc <__aeabi_dcmplt>
 80060e6:	2800      	cmp	r0, #0
 80060e8:	d050      	beq.n	800618c <_dtoa_r+0x244>
 80060ea:	9b00      	ldr	r3, [sp, #0]
 80060ec:	3b01      	subs	r3, #1
 80060ee:	9300      	str	r3, [sp, #0]
 80060f0:	2300      	movs	r3, #0
 80060f2:	930b      	str	r3, [sp, #44]	; 0x2c
 80060f4:	9b10      	ldr	r3, [sp, #64]	; 0x40
 80060f6:	1b5d      	subs	r5, r3, r5
 80060f8:	1e6b      	subs	r3, r5, #1
 80060fa:	9305      	str	r3, [sp, #20]
 80060fc:	bf45      	ittet	mi
 80060fe:	f1c5 0301 	rsbmi	r3, r5, #1
 8006102:	9304      	strmi	r3, [sp, #16]
 8006104:	2300      	movpl	r3, #0
 8006106:	2300      	movmi	r3, #0
 8006108:	bf4c      	ite	mi
 800610a:	9305      	strmi	r3, [sp, #20]
 800610c:	9304      	strpl	r3, [sp, #16]
 800610e:	9b00      	ldr	r3, [sp, #0]
 8006110:	2b00      	cmp	r3, #0
 8006112:	db3d      	blt.n	8006190 <_dtoa_r+0x248>
 8006114:	9b05      	ldr	r3, [sp, #20]
 8006116:	9a00      	ldr	r2, [sp, #0]
 8006118:	920a      	str	r2, [sp, #40]	; 0x28
 800611a:	4413      	add	r3, r2
 800611c:	9305      	str	r3, [sp, #20]
 800611e:	2300      	movs	r3, #0
 8006120:	9307      	str	r3, [sp, #28]
 8006122:	9b06      	ldr	r3, [sp, #24]
 8006124:	2b09      	cmp	r3, #9
 8006126:	f200 8089 	bhi.w	800623c <_dtoa_r+0x2f4>
 800612a:	2b05      	cmp	r3, #5
 800612c:	bfc4      	itt	gt
 800612e:	3b04      	subgt	r3, #4
 8006130:	9306      	strgt	r3, [sp, #24]
 8006132:	9b06      	ldr	r3, [sp, #24]
 8006134:	f1a3 0302 	sub.w	r3, r3, #2
 8006138:	bfcc      	ite	gt
 800613a:	2500      	movgt	r5, #0
 800613c:	2501      	movle	r5, #1
 800613e:	2b03      	cmp	r3, #3
 8006140:	f200 8087 	bhi.w	8006252 <_dtoa_r+0x30a>
 8006144:	e8df f003 	tbb	[pc, r3]
 8006148:	59383a2d 	.word	0x59383a2d
 800614c:	e9dd 5310 	ldrd	r5, r3, [sp, #64]	; 0x40
 8006150:	441d      	add	r5, r3
 8006152:	f205 4332 	addw	r3, r5, #1074	; 0x432
 8006156:	2b20      	cmp	r3, #32
 8006158:	bfc1      	itttt	gt
 800615a:	f1c3 0340 	rsbgt	r3, r3, #64	; 0x40
 800615e:	f205 4012 	addwgt	r0, r5, #1042	; 0x412
 8006162:	fa0b f303 	lslgt.w	r3, fp, r3
 8006166:	fa26 f000 	lsrgt.w	r0, r6, r0
 800616a:	bfda      	itte	le
 800616c:	f1c3 0320 	rsble	r3, r3, #32
 8006170:	fa06 f003 	lslle.w	r0, r6, r3
 8006174:	4318      	orrgt	r0, r3
 8006176:	f7fa f9c5 	bl	8000504 <__aeabi_ui2d>
 800617a:	2301      	movs	r3, #1
 800617c:	4606      	mov	r6, r0
 800617e:	f1a1 77f8 	sub.w	r7, r1, #32505856	; 0x1f00000
 8006182:	3d01      	subs	r5, #1
 8006184:	930e      	str	r3, [sp, #56]	; 0x38
 8006186:	e76a      	b.n	800605e <_dtoa_r+0x116>
 8006188:	2301      	movs	r3, #1
 800618a:	e7b2      	b.n	80060f2 <_dtoa_r+0x1aa>
 800618c:	900b      	str	r0, [sp, #44]	; 0x2c
 800618e:	e7b1      	b.n	80060f4 <_dtoa_r+0x1ac>
 8006190:	9b04      	ldr	r3, [sp, #16]
 8006192:	9a00      	ldr	r2, [sp, #0]
 8006194:	1a9b      	subs	r3, r3, r2
 8006196:	9304      	str	r3, [sp, #16]
 8006198:	4253      	negs	r3, r2
 800619a:	9307      	str	r3, [sp, #28]
 800619c:	2300      	movs	r3, #0
 800619e:	930a      	str	r3, [sp, #40]	; 0x28
 80061a0:	e7bf      	b.n	8006122 <_dtoa_r+0x1da>
 80061a2:	2300      	movs	r3, #0
 80061a4:	9308      	str	r3, [sp, #32]
 80061a6:	9b09      	ldr	r3, [sp, #36]	; 0x24
 80061a8:	2b00      	cmp	r3, #0
 80061aa:	dc55      	bgt.n	8006258 <_dtoa_r+0x310>
 80061ac:	2301      	movs	r3, #1
 80061ae:	e9cd 3302 	strd	r3, r3, [sp, #8]
 80061b2:	461a      	mov	r2, r3
 80061b4:	9209      	str	r2, [sp, #36]	; 0x24
 80061b6:	e00c      	b.n	80061d2 <_dtoa_r+0x28a>
 80061b8:	2301      	movs	r3, #1
 80061ba:	e7f3      	b.n	80061a4 <_dtoa_r+0x25c>
 80061bc:	2300      	movs	r3, #0
 80061be:	9a09      	ldr	r2, [sp, #36]	; 0x24
 80061c0:	9308      	str	r3, [sp, #32]
 80061c2:	9b00      	ldr	r3, [sp, #0]
 80061c4:	4413      	add	r3, r2
 80061c6:	9302      	str	r3, [sp, #8]
 80061c8:	3301      	adds	r3, #1
 80061ca:	2b01      	cmp	r3, #1
 80061cc:	9303      	str	r3, [sp, #12]
 80061ce:	bfb8      	it	lt
 80061d0:	2301      	movlt	r3, #1
 80061d2:	6a60      	ldr	r0, [r4, #36]	; 0x24
 80061d4:	2200      	movs	r2, #0
 80061d6:	6042      	str	r2, [r0, #4]
 80061d8:	2204      	movs	r2, #4
 80061da:	f102 0614 	add.w	r6, r2, #20
 80061de:	429e      	cmp	r6, r3
 80061e0:	6841      	ldr	r1, [r0, #4]
 80061e2:	d93d      	bls.n	8006260 <_dtoa_r+0x318>
 80061e4:	4620      	mov	r0, r4
 80061e6:	f000 fee3 	bl	8006fb0 <_Balloc>
 80061ea:	9001      	str	r0, [sp, #4]
 80061ec:	2800      	cmp	r0, #0
 80061ee:	d13b      	bne.n	8006268 <_dtoa_r+0x320>
 80061f0:	4b11      	ldr	r3, [pc, #68]	; (8006238 <_dtoa_r+0x2f0>)
 80061f2:	4602      	mov	r2, r0
 80061f4:	f44f 71d5 	mov.w	r1, #426	; 0x1aa
 80061f8:	e6c0      	b.n	8005f7c <_dtoa_r+0x34>
 80061fa:	2301      	movs	r3, #1
 80061fc:	e7df      	b.n	80061be <_dtoa_r+0x276>
 80061fe:	bf00      	nop
 8006200:	636f4361 	.word	0x636f4361
 8006204:	3fd287a7 	.word	0x3fd287a7
 8006208:	8b60c8b3 	.word	0x8b60c8b3
 800620c:	3fc68a28 	.word	0x3fc68a28
 8006210:	509f79fb 	.word	0x509f79fb
 8006214:	3fd34413 	.word	0x3fd34413
 8006218:	080082aa 	.word	0x080082aa
 800621c:	080082c1 	.word	0x080082c1
 8006220:	7ff00000 	.word	0x7ff00000
 8006224:	080082a6 	.word	0x080082a6
 8006228:	0800829d 	.word	0x0800829d
 800622c:	0800827a 	.word	0x0800827a
 8006230:	3ff80000 	.word	0x3ff80000
 8006234:	08008418 	.word	0x08008418
 8006238:	0800831c 	.word	0x0800831c
 800623c:	2501      	movs	r5, #1
 800623e:	2300      	movs	r3, #0
 8006240:	9306      	str	r3, [sp, #24]
 8006242:	9508      	str	r5, [sp, #32]
 8006244:	f04f 33ff 	mov.w	r3, #4294967295
 8006248:	e9cd 3302 	strd	r3, r3, [sp, #8]
 800624c:	2200      	movs	r2, #0
 800624e:	2312      	movs	r3, #18
 8006250:	e7b0      	b.n	80061b4 <_dtoa_r+0x26c>
 8006252:	2301      	movs	r3, #1
 8006254:	9308      	str	r3, [sp, #32]
 8006256:	e7f5      	b.n	8006244 <_dtoa_r+0x2fc>
 8006258:	9b09      	ldr	r3, [sp, #36]	; 0x24
 800625a:	e9cd 3302 	strd	r3, r3, [sp, #8]
 800625e:	e7b8      	b.n	80061d2 <_dtoa_r+0x28a>
 8006260:	3101      	adds	r1, #1
 8006262:	6041      	str	r1, [r0, #4]
 8006264:	0052      	lsls	r2, r2, #1
 8006266:	e7b8      	b.n	80061da <_dtoa_r+0x292>
 8006268:	6a63      	ldr	r3, [r4, #36]	; 0x24
 800626a:	9a01      	ldr	r2, [sp, #4]
 800626c:	601a      	str	r2, [r3, #0]
 800626e:	9b03      	ldr	r3, [sp, #12]
 8006270:	2b0e      	cmp	r3, #14
 8006272:	f200 809d 	bhi.w	80063b0 <_dtoa_r+0x468>
 8006276:	2d00      	cmp	r5, #0
 8006278:	f000 809a 	beq.w	80063b0 <_dtoa_r+0x468>
 800627c:	9b00      	ldr	r3, [sp, #0]
 800627e:	2b00      	cmp	r3, #0
 8006280:	dd32      	ble.n	80062e8 <_dtoa_r+0x3a0>
 8006282:	4ab7      	ldr	r2, [pc, #732]	; (8006560 <_dtoa_r+0x618>)
 8006284:	f003 030f 	and.w	r3, r3, #15
 8006288:	eb02 03c3 	add.w	r3, r2, r3, lsl #3
 800628c:	e9d3 8900 	ldrd	r8, r9, [r3]
 8006290:	9b00      	ldr	r3, [sp, #0]
 8006292:	05d8      	lsls	r0, r3, #23
 8006294:	ea4f 1723 	mov.w	r7, r3, asr #4
 8006298:	d516      	bpl.n	80062c8 <_dtoa_r+0x380>
 800629a:	4bb2      	ldr	r3, [pc, #712]	; (8006564 <_dtoa_r+0x61c>)
 800629c:	ec51 0b19 	vmov	r0, r1, d9
 80062a0:	e9d3 2308 	ldrd	r2, r3, [r3, #32]
 80062a4:	f7fa fad2 	bl	800084c <__aeabi_ddiv>
 80062a8:	f007 070f 	and.w	r7, r7, #15
 80062ac:	4682      	mov	sl, r0
 80062ae:	468b      	mov	fp, r1
 80062b0:	2503      	movs	r5, #3
 80062b2:	4eac      	ldr	r6, [pc, #688]	; (8006564 <_dtoa_r+0x61c>)
 80062b4:	b957      	cbnz	r7, 80062cc <_dtoa_r+0x384>
 80062b6:	4642      	mov	r2, r8
 80062b8:	464b      	mov	r3, r9
 80062ba:	4650      	mov	r0, sl
 80062bc:	4659      	mov	r1, fp
 80062be:	f7fa fac5 	bl	800084c <__aeabi_ddiv>
 80062c2:	4682      	mov	sl, r0
 80062c4:	468b      	mov	fp, r1
 80062c6:	e028      	b.n	800631a <_dtoa_r+0x3d2>
 80062c8:	2502      	movs	r5, #2
 80062ca:	e7f2      	b.n	80062b2 <_dtoa_r+0x36a>
 80062cc:	07f9      	lsls	r1, r7, #31
 80062ce:	d508      	bpl.n	80062e2 <_dtoa_r+0x39a>
 80062d0:	4640      	mov	r0, r8
 80062d2:	4649      	mov	r1, r9
 80062d4:	e9d6 2300 	ldrd	r2, r3, [r6]
 80062d8:	f7fa f98e 	bl	80005f8 <__aeabi_dmul>
 80062dc:	3501      	adds	r5, #1
 80062de:	4680      	mov	r8, r0
 80062e0:	4689      	mov	r9, r1
 80062e2:	107f      	asrs	r7, r7, #1
 80062e4:	3608      	adds	r6, #8
 80062e6:	e7e5      	b.n	80062b4 <_dtoa_r+0x36c>
 80062e8:	f000 809b 	beq.w	8006422 <_dtoa_r+0x4da>
 80062ec:	9b00      	ldr	r3, [sp, #0]
 80062ee:	4f9d      	ldr	r7, [pc, #628]	; (8006564 <_dtoa_r+0x61c>)
 80062f0:	425e      	negs	r6, r3
 80062f2:	4b9b      	ldr	r3, [pc, #620]	; (8006560 <_dtoa_r+0x618>)
 80062f4:	f006 020f 	and.w	r2, r6, #15
 80062f8:	eb03 03c2 	add.w	r3, r3, r2, lsl #3
 80062fc:	e9d3 2300 	ldrd	r2, r3, [r3]
 8006300:	ec51 0b19 	vmov	r0, r1, d9
 8006304:	f7fa f978 	bl	80005f8 <__aeabi_dmul>
 8006308:	1136      	asrs	r6, r6, #4
 800630a:	4682      	mov	sl, r0
 800630c:	468b      	mov	fp, r1
 800630e:	2300      	movs	r3, #0
 8006310:	2502      	movs	r5, #2
 8006312:	2e00      	cmp	r6, #0
 8006314:	d17a      	bne.n	800640c <_dtoa_r+0x4c4>
 8006316:	2b00      	cmp	r3, #0
 8006318:	d1d3      	bne.n	80062c2 <_dtoa_r+0x37a>
 800631a:	9b0b      	ldr	r3, [sp, #44]	; 0x2c
 800631c:	2b00      	cmp	r3, #0
 800631e:	f000 8082 	beq.w	8006426 <_dtoa_r+0x4de>
 8006322:	4b91      	ldr	r3, [pc, #580]	; (8006568 <_dtoa_r+0x620>)
 8006324:	2200      	movs	r2, #0
 8006326:	4650      	mov	r0, sl
 8006328:	4659      	mov	r1, fp
 800632a:	f7fa fbd7 	bl	8000adc <__aeabi_dcmplt>
 800632e:	2800      	cmp	r0, #0
 8006330:	d079      	beq.n	8006426 <_dtoa_r+0x4de>
 8006332:	9b03      	ldr	r3, [sp, #12]
 8006334:	2b00      	cmp	r3, #0
 8006336:	d076      	beq.n	8006426 <_dtoa_r+0x4de>
 8006338:	9b02      	ldr	r3, [sp, #8]
 800633a:	2b00      	cmp	r3, #0
 800633c:	dd36      	ble.n	80063ac <_dtoa_r+0x464>
 800633e:	9b00      	ldr	r3, [sp, #0]
 8006340:	4650      	mov	r0, sl
 8006342:	4659      	mov	r1, fp
 8006344:	1e5f      	subs	r7, r3, #1
 8006346:	2200      	movs	r2, #0
 8006348:	4b88      	ldr	r3, [pc, #544]	; (800656c <_dtoa_r+0x624>)
 800634a:	f7fa f955 	bl	80005f8 <__aeabi_dmul>
 800634e:	9e02      	ldr	r6, [sp, #8]
 8006350:	4682      	mov	sl, r0
 8006352:	468b      	mov	fp, r1
 8006354:	3501      	adds	r5, #1
 8006356:	4628      	mov	r0, r5
 8006358:	f7fa f8e4 	bl	8000524 <__aeabi_i2d>
 800635c:	4652      	mov	r2, sl
 800635e:	465b      	mov	r3, fp
 8006360:	f7fa f94a 	bl	80005f8 <__aeabi_dmul>
 8006364:	4b82      	ldr	r3, [pc, #520]	; (8006570 <_dtoa_r+0x628>)
 8006366:	2200      	movs	r2, #0
 8006368:	f7f9 ff90 	bl	800028c <__adddf3>
 800636c:	46d0      	mov	r8, sl
 800636e:	46d9      	mov	r9, fp
 8006370:	4682      	mov	sl, r0
 8006372:	f1a1 7b50 	sub.w	fp, r1, #54525952	; 0x3400000
 8006376:	2e00      	cmp	r6, #0
 8006378:	d158      	bne.n	800642c <_dtoa_r+0x4e4>
 800637a:	4b7e      	ldr	r3, [pc, #504]	; (8006574 <_dtoa_r+0x62c>)
 800637c:	2200      	movs	r2, #0
 800637e:	4640      	mov	r0, r8
 8006380:	4649      	mov	r1, r9
 8006382:	f7f9 ff81 	bl	8000288 <__aeabi_dsub>
 8006386:	4652      	mov	r2, sl
 8006388:	465b      	mov	r3, fp
 800638a:	4680      	mov	r8, r0
 800638c:	4689      	mov	r9, r1
 800638e:	f7fa fbc3 	bl	8000b18 <__aeabi_dcmpgt>
 8006392:	2800      	cmp	r0, #0
 8006394:	f040 8295 	bne.w	80068c2 <_dtoa_r+0x97a>
 8006398:	4652      	mov	r2, sl
 800639a:	f10b 4300 	add.w	r3, fp, #2147483648	; 0x80000000
 800639e:	4640      	mov	r0, r8
 80063a0:	4649      	mov	r1, r9
 80063a2:	f7fa fb9b 	bl	8000adc <__aeabi_dcmplt>
 80063a6:	2800      	cmp	r0, #0
 80063a8:	f040 8289 	bne.w	80068be <_dtoa_r+0x976>
 80063ac:	ec5b ab19 	vmov	sl, fp, d9
 80063b0:	9b11      	ldr	r3, [sp, #68]	; 0x44
 80063b2:	2b00      	cmp	r3, #0
 80063b4:	f2c0 8148 	blt.w	8006648 <_dtoa_r+0x700>
 80063b8:	9a00      	ldr	r2, [sp, #0]
 80063ba:	2a0e      	cmp	r2, #14
 80063bc:	f300 8144 	bgt.w	8006648 <_dtoa_r+0x700>
 80063c0:	4b67      	ldr	r3, [pc, #412]	; (8006560 <_dtoa_r+0x618>)
 80063c2:	eb03 03c2 	add.w	r3, r3, r2, lsl #3
 80063c6:	e9d3 8900 	ldrd	r8, r9, [r3]
 80063ca:	9b09      	ldr	r3, [sp, #36]	; 0x24
 80063cc:	2b00      	cmp	r3, #0
 80063ce:	f280 80d5 	bge.w	800657c <_dtoa_r+0x634>
 80063d2:	9b03      	ldr	r3, [sp, #12]
 80063d4:	2b00      	cmp	r3, #0
 80063d6:	f300 80d1 	bgt.w	800657c <_dtoa_r+0x634>
 80063da:	f040 826f 	bne.w	80068bc <_dtoa_r+0x974>
 80063de:	4b65      	ldr	r3, [pc, #404]	; (8006574 <_dtoa_r+0x62c>)
 80063e0:	2200      	movs	r2, #0
 80063e2:	4640      	mov	r0, r8
 80063e4:	4649      	mov	r1, r9
 80063e6:	f7fa f907 	bl	80005f8 <__aeabi_dmul>
 80063ea:	4652      	mov	r2, sl
 80063ec:	465b      	mov	r3, fp
 80063ee:	f7fa fb89 	bl	8000b04 <__aeabi_dcmpge>
 80063f2:	9e03      	ldr	r6, [sp, #12]
 80063f4:	4637      	mov	r7, r6
 80063f6:	2800      	cmp	r0, #0
 80063f8:	f040 8245 	bne.w	8006886 <_dtoa_r+0x93e>
 80063fc:	9d01      	ldr	r5, [sp, #4]
 80063fe:	2331      	movs	r3, #49	; 0x31
 8006400:	f805 3b01 	strb.w	r3, [r5], #1
 8006404:	9b00      	ldr	r3, [sp, #0]
 8006406:	3301      	adds	r3, #1
 8006408:	9300      	str	r3, [sp, #0]
 800640a:	e240      	b.n	800688e <_dtoa_r+0x946>
 800640c:	07f2      	lsls	r2, r6, #31
 800640e:	d505      	bpl.n	800641c <_dtoa_r+0x4d4>
 8006410:	e9d7 2300 	ldrd	r2, r3, [r7]
 8006414:	f7fa f8f0 	bl	80005f8 <__aeabi_dmul>
 8006418:	3501      	adds	r5, #1
 800641a:	2301      	movs	r3, #1
 800641c:	1076      	asrs	r6, r6, #1
 800641e:	3708      	adds	r7, #8
 8006420:	e777      	b.n	8006312 <_dtoa_r+0x3ca>
 8006422:	2502      	movs	r5, #2
 8006424:	e779      	b.n	800631a <_dtoa_r+0x3d2>
 8006426:	9f00      	ldr	r7, [sp, #0]
 8006428:	9e03      	ldr	r6, [sp, #12]
 800642a:	e794      	b.n	8006356 <_dtoa_r+0x40e>
 800642c:	9901      	ldr	r1, [sp, #4]
 800642e:	4b4c      	ldr	r3, [pc, #304]	; (8006560 <_dtoa_r+0x618>)
 8006430:	4431      	add	r1, r6
 8006432:	910d      	str	r1, [sp, #52]	; 0x34
 8006434:	9908      	ldr	r1, [sp, #32]
 8006436:	eb03 03c6 	add.w	r3, r3, r6, lsl #3
 800643a:	e953 2302 	ldrd	r2, r3, [r3, #-8]
 800643e:	2900      	cmp	r1, #0
 8006440:	d043      	beq.n	80064ca <_dtoa_r+0x582>
 8006442:	494d      	ldr	r1, [pc, #308]	; (8006578 <_dtoa_r+0x630>)
 8006444:	2000      	movs	r0, #0
 8006446:	f7fa fa01 	bl	800084c <__aeabi_ddiv>
 800644a:	4652      	mov	r2, sl
 800644c:	465b      	mov	r3, fp
 800644e:	f7f9 ff1b 	bl	8000288 <__aeabi_dsub>
 8006452:	9d01      	ldr	r5, [sp, #4]
 8006454:	4682      	mov	sl, r0
 8006456:	468b      	mov	fp, r1
 8006458:	4649      	mov	r1, r9
 800645a:	4640      	mov	r0, r8
 800645c:	f7fa fb7c 	bl	8000b58 <__aeabi_d2iz>
 8006460:	4606      	mov	r6, r0
 8006462:	f7fa f85f 	bl	8000524 <__aeabi_i2d>
 8006466:	4602      	mov	r2, r0
 8006468:	460b      	mov	r3, r1
 800646a:	4640      	mov	r0, r8
 800646c:	4649      	mov	r1, r9
 800646e:	f7f9 ff0b 	bl	8000288 <__aeabi_dsub>
 8006472:	3630      	adds	r6, #48	; 0x30
 8006474:	f805 6b01 	strb.w	r6, [r5], #1
 8006478:	4652      	mov	r2, sl
 800647a:	465b      	mov	r3, fp
 800647c:	4680      	mov	r8, r0
 800647e:	4689      	mov	r9, r1
 8006480:	f7fa fb2c 	bl	8000adc <__aeabi_dcmplt>
 8006484:	2800      	cmp	r0, #0
 8006486:	d163      	bne.n	8006550 <_dtoa_r+0x608>
 8006488:	4642      	mov	r2, r8
 800648a:	464b      	mov	r3, r9
 800648c:	4936      	ldr	r1, [pc, #216]	; (8006568 <_dtoa_r+0x620>)
 800648e:	2000      	movs	r0, #0
 8006490:	f7f9 fefa 	bl	8000288 <__aeabi_dsub>
 8006494:	4652      	mov	r2, sl
 8006496:	465b      	mov	r3, fp
 8006498:	f7fa fb20 	bl	8000adc <__aeabi_dcmplt>
 800649c:	2800      	cmp	r0, #0
 800649e:	f040 80b5 	bne.w	800660c <_dtoa_r+0x6c4>
 80064a2:	9b0d      	ldr	r3, [sp, #52]	; 0x34
 80064a4:	429d      	cmp	r5, r3
 80064a6:	d081      	beq.n	80063ac <_dtoa_r+0x464>
 80064a8:	4b30      	ldr	r3, [pc, #192]	; (800656c <_dtoa_r+0x624>)
 80064aa:	2200      	movs	r2, #0
 80064ac:	4650      	mov	r0, sl
 80064ae:	4659      	mov	r1, fp
 80064b0:	f7fa f8a2 	bl	80005f8 <__aeabi_dmul>
 80064b4:	4b2d      	ldr	r3, [pc, #180]	; (800656c <_dtoa_r+0x624>)
 80064b6:	4682      	mov	sl, r0
 80064b8:	468b      	mov	fp, r1
 80064ba:	4640      	mov	r0, r8
 80064bc:	4649      	mov	r1, r9
 80064be:	2200      	movs	r2, #0
 80064c0:	f7fa f89a 	bl	80005f8 <__aeabi_dmul>
 80064c4:	4680      	mov	r8, r0
 80064c6:	4689      	mov	r9, r1
 80064c8:	e7c6      	b.n	8006458 <_dtoa_r+0x510>
 80064ca:	4650      	mov	r0, sl
 80064cc:	4659      	mov	r1, fp
 80064ce:	f7fa f893 	bl	80005f8 <__aeabi_dmul>
 80064d2:	9b0d      	ldr	r3, [sp, #52]	; 0x34
 80064d4:	9d01      	ldr	r5, [sp, #4]
 80064d6:	930f      	str	r3, [sp, #60]	; 0x3c
 80064d8:	4682      	mov	sl, r0
 80064da:	468b      	mov	fp, r1
 80064dc:	4649      	mov	r1, r9
 80064de:	4640      	mov	r0, r8
 80064e0:	f7fa fb3a 	bl	8000b58 <__aeabi_d2iz>
 80064e4:	4606      	mov	r6, r0
 80064e6:	f7fa f81d 	bl	8000524 <__aeabi_i2d>
 80064ea:	3630      	adds	r6, #48	; 0x30
 80064ec:	4602      	mov	r2, r0
 80064ee:	460b      	mov	r3, r1
 80064f0:	4640      	mov	r0, r8
 80064f2:	4649      	mov	r1, r9
 80064f4:	f7f9 fec8 	bl	8000288 <__aeabi_dsub>
 80064f8:	f805 6b01 	strb.w	r6, [r5], #1
 80064fc:	9b0d      	ldr	r3, [sp, #52]	; 0x34
 80064fe:	429d      	cmp	r5, r3
 8006500:	4680      	mov	r8, r0
 8006502:	4689      	mov	r9, r1
 8006504:	f04f 0200 	mov.w	r2, #0
 8006508:	d124      	bne.n	8006554 <_dtoa_r+0x60c>
 800650a:	4b1b      	ldr	r3, [pc, #108]	; (8006578 <_dtoa_r+0x630>)
 800650c:	4650      	mov	r0, sl
 800650e:	4659      	mov	r1, fp
 8006510:	f7f9 febc 	bl	800028c <__adddf3>
 8006514:	4602      	mov	r2, r0
 8006516:	460b      	mov	r3, r1
 8006518:	4640      	mov	r0, r8
 800651a:	4649      	mov	r1, r9
 800651c:	f7fa fafc 	bl	8000b18 <__aeabi_dcmpgt>
 8006520:	2800      	cmp	r0, #0
 8006522:	d173      	bne.n	800660c <_dtoa_r+0x6c4>
 8006524:	4652      	mov	r2, sl
 8006526:	465b      	mov	r3, fp
 8006528:	4913      	ldr	r1, [pc, #76]	; (8006578 <_dtoa_r+0x630>)
 800652a:	2000      	movs	r0, #0
 800652c:	f7f9 feac 	bl	8000288 <__aeabi_dsub>
 8006530:	4602      	mov	r2, r0
 8006532:	460b      	mov	r3, r1
 8006534:	4640      	mov	r0, r8
 8006536:	4649      	mov	r1, r9
 8006538:	f7fa fad0 	bl	8000adc <__aeabi_dcmplt>
 800653c:	2800      	cmp	r0, #0
 800653e:	f43f af35 	beq.w	80063ac <_dtoa_r+0x464>
 8006542:	9d0f      	ldr	r5, [sp, #60]	; 0x3c
 8006544:	1e6b      	subs	r3, r5, #1
 8006546:	930f      	str	r3, [sp, #60]	; 0x3c
 8006548:	f815 3c01 	ldrb.w	r3, [r5, #-1]
 800654c:	2b30      	cmp	r3, #48	; 0x30
 800654e:	d0f8      	beq.n	8006542 <_dtoa_r+0x5fa>
 8006550:	9700      	str	r7, [sp, #0]
 8006552:	e049      	b.n	80065e8 <_dtoa_r+0x6a0>
 8006554:	4b05      	ldr	r3, [pc, #20]	; (800656c <_dtoa_r+0x624>)
 8006556:	f7fa f84f 	bl	80005f8 <__aeabi_dmul>
 800655a:	4680      	mov	r8, r0
 800655c:	4689      	mov	r9, r1
 800655e:	e7bd      	b.n	80064dc <_dtoa_r+0x594>
 8006560:	08008418 	.word	0x08008418
 8006564:	080083f0 	.word	0x080083f0
 8006568:	3ff00000 	.word	0x3ff00000
 800656c:	40240000 	.word	0x40240000
 8006570:	401c0000 	.word	0x401c0000
 8006574:	40140000 	.word	0x40140000
 8006578:	3fe00000 	.word	0x3fe00000
 800657c:	9d01      	ldr	r5, [sp, #4]
 800657e:	4656      	mov	r6, sl
 8006580:	465f      	mov	r7, fp
 8006582:	4642      	mov	r2, r8
 8006584:	464b      	mov	r3, r9
 8006586:	4630      	mov	r0, r6
 8006588:	4639      	mov	r1, r7
 800658a:	f7fa f95f 	bl	800084c <__aeabi_ddiv>
 800658e:	f7fa fae3 	bl	8000b58 <__aeabi_d2iz>
 8006592:	4682      	mov	sl, r0
 8006594:	f7f9 ffc6 	bl	8000524 <__aeabi_i2d>
 8006598:	4642      	mov	r2, r8
 800659a:	464b      	mov	r3, r9
 800659c:	f7fa f82c 	bl	80005f8 <__aeabi_dmul>
 80065a0:	4602      	mov	r2, r0
 80065a2:	460b      	mov	r3, r1
 80065a4:	4630      	mov	r0, r6
 80065a6:	4639      	mov	r1, r7
 80065a8:	f10a 0630 	add.w	r6, sl, #48	; 0x30
 80065ac:	f7f9 fe6c 	bl	8000288 <__aeabi_dsub>
 80065b0:	f805 6b01 	strb.w	r6, [r5], #1
 80065b4:	9e01      	ldr	r6, [sp, #4]
 80065b6:	9f03      	ldr	r7, [sp, #12]
 80065b8:	1bae      	subs	r6, r5, r6
 80065ba:	42b7      	cmp	r7, r6
 80065bc:	4602      	mov	r2, r0
 80065be:	460b      	mov	r3, r1
 80065c0:	d135      	bne.n	800662e <_dtoa_r+0x6e6>
 80065c2:	f7f9 fe63 	bl	800028c <__adddf3>
 80065c6:	4642      	mov	r2, r8
 80065c8:	464b      	mov	r3, r9
 80065ca:	4606      	mov	r6, r0
 80065cc:	460f      	mov	r7, r1
 80065ce:	f7fa faa3 	bl	8000b18 <__aeabi_dcmpgt>
 80065d2:	b9d0      	cbnz	r0, 800660a <_dtoa_r+0x6c2>
 80065d4:	4642      	mov	r2, r8
 80065d6:	464b      	mov	r3, r9
 80065d8:	4630      	mov	r0, r6
 80065da:	4639      	mov	r1, r7
 80065dc:	f7fa fa74 	bl	8000ac8 <__aeabi_dcmpeq>
 80065e0:	b110      	cbz	r0, 80065e8 <_dtoa_r+0x6a0>
 80065e2:	f01a 0f01 	tst.w	sl, #1
 80065e6:	d110      	bne.n	800660a <_dtoa_r+0x6c2>
 80065e8:	4620      	mov	r0, r4
 80065ea:	ee18 1a10 	vmov	r1, s16
 80065ee:	f000 fd1f 	bl	8007030 <_Bfree>
 80065f2:	2300      	movs	r3, #0
 80065f4:	9800      	ldr	r0, [sp, #0]
 80065f6:	702b      	strb	r3, [r5, #0]
 80065f8:	9b0c      	ldr	r3, [sp, #48]	; 0x30
 80065fa:	3001      	adds	r0, #1
 80065fc:	6018      	str	r0, [r3, #0]
 80065fe:	9b21      	ldr	r3, [sp, #132]	; 0x84
 8006600:	2b00      	cmp	r3, #0
 8006602:	f43f acf1 	beq.w	8005fe8 <_dtoa_r+0xa0>
 8006606:	601d      	str	r5, [r3, #0]
 8006608:	e4ee      	b.n	8005fe8 <_dtoa_r+0xa0>
 800660a:	9f00      	ldr	r7, [sp, #0]
 800660c:	462b      	mov	r3, r5
 800660e:	461d      	mov	r5, r3
 8006610:	f813 2d01 	ldrb.w	r2, [r3, #-1]!
 8006614:	2a39      	cmp	r2, #57	; 0x39
 8006616:	d106      	bne.n	8006626 <_dtoa_r+0x6de>
 8006618:	9a01      	ldr	r2, [sp, #4]
 800661a:	429a      	cmp	r2, r3
 800661c:	d1f7      	bne.n	800660e <_dtoa_r+0x6c6>
 800661e:	9901      	ldr	r1, [sp, #4]
 8006620:	2230      	movs	r2, #48	; 0x30
 8006622:	3701      	adds	r7, #1
 8006624:	700a      	strb	r2, [r1, #0]
 8006626:	781a      	ldrb	r2, [r3, #0]
 8006628:	3201      	adds	r2, #1
 800662a:	701a      	strb	r2, [r3, #0]
 800662c:	e790      	b.n	8006550 <_dtoa_r+0x608>
 800662e:	4ba6      	ldr	r3, [pc, #664]	; (80068c8 <_dtoa_r+0x980>)
 8006630:	2200      	movs	r2, #0
 8006632:	f7f9 ffe1 	bl	80005f8 <__aeabi_dmul>
 8006636:	2200      	movs	r2, #0
 8006638:	2300      	movs	r3, #0
 800663a:	4606      	mov	r6, r0
 800663c:	460f      	mov	r7, r1
 800663e:	f7fa fa43 	bl	8000ac8 <__aeabi_dcmpeq>
 8006642:	2800      	cmp	r0, #0
 8006644:	d09d      	beq.n	8006582 <_dtoa_r+0x63a>
 8006646:	e7cf      	b.n	80065e8 <_dtoa_r+0x6a0>
 8006648:	9a08      	ldr	r2, [sp, #32]
 800664a:	2a00      	cmp	r2, #0
 800664c:	f000 80d7 	beq.w	80067fe <_dtoa_r+0x8b6>
 8006650:	9a06      	ldr	r2, [sp, #24]
 8006652:	2a01      	cmp	r2, #1
 8006654:	f300 80ba 	bgt.w	80067cc <_dtoa_r+0x884>
 8006658:	9a0e      	ldr	r2, [sp, #56]	; 0x38
 800665a:	2a00      	cmp	r2, #0
 800665c:	f000 80b2 	beq.w	80067c4 <_dtoa_r+0x87c>
 8006660:	f203 4333 	addw	r3, r3, #1075	; 0x433
 8006664:	9e07      	ldr	r6, [sp, #28]
 8006666:	9d04      	ldr	r5, [sp, #16]
 8006668:	9a04      	ldr	r2, [sp, #16]
 800666a:	441a      	add	r2, r3
 800666c:	9204      	str	r2, [sp, #16]
 800666e:	9a05      	ldr	r2, [sp, #20]
 8006670:	2101      	movs	r1, #1
 8006672:	441a      	add	r2, r3
 8006674:	4620      	mov	r0, r4
 8006676:	9205      	str	r2, [sp, #20]
 8006678:	f000 fd92 	bl	80071a0 <__i2b>
 800667c:	4607      	mov	r7, r0
 800667e:	2d00      	cmp	r5, #0
 8006680:	dd0c      	ble.n	800669c <_dtoa_r+0x754>
 8006682:	9b05      	ldr	r3, [sp, #20]
 8006684:	2b00      	cmp	r3, #0
 8006686:	dd09      	ble.n	800669c <_dtoa_r+0x754>
 8006688:	42ab      	cmp	r3, r5
 800668a:	9a04      	ldr	r2, [sp, #16]
 800668c:	bfa8      	it	ge
 800668e:	462b      	movge	r3, r5
 8006690:	1ad2      	subs	r2, r2, r3
 8006692:	9204      	str	r2, [sp, #16]
 8006694:	9a05      	ldr	r2, [sp, #20]
 8006696:	1aed      	subs	r5, r5, r3
 8006698:	1ad3      	subs	r3, r2, r3
 800669a:	9305      	str	r3, [sp, #20]
 800669c:	9b07      	ldr	r3, [sp, #28]
 800669e:	b31b      	cbz	r3, 80066e8 <_dtoa_r+0x7a0>
 80066a0:	9b08      	ldr	r3, [sp, #32]
 80066a2:	2b00      	cmp	r3, #0
 80066a4:	f000 80af 	beq.w	8006806 <_dtoa_r+0x8be>
 80066a8:	2e00      	cmp	r6, #0
 80066aa:	dd13      	ble.n	80066d4 <_dtoa_r+0x78c>
 80066ac:	4639      	mov	r1, r7
 80066ae:	4632      	mov	r2, r6
 80066b0:	4620      	mov	r0, r4
 80066b2:	f000 fe35 	bl	8007320 <__pow5mult>
 80066b6:	ee18 2a10 	vmov	r2, s16
 80066ba:	4601      	mov	r1, r0
 80066bc:	4607      	mov	r7, r0
 80066be:	4620      	mov	r0, r4
 80066c0:	f000 fd84 	bl	80071cc <__multiply>
 80066c4:	ee18 1a10 	vmov	r1, s16
 80066c8:	4680      	mov	r8, r0
 80066ca:	4620      	mov	r0, r4
 80066cc:	f000 fcb0 	bl	8007030 <_Bfree>
 80066d0:	ee08 8a10 	vmov	s16, r8
 80066d4:	9b07      	ldr	r3, [sp, #28]
 80066d6:	1b9a      	subs	r2, r3, r6
 80066d8:	d006      	beq.n	80066e8 <_dtoa_r+0x7a0>
 80066da:	ee18 1a10 	vmov	r1, s16
 80066de:	4620      	mov	r0, r4
 80066e0:	f000 fe1e 	bl	8007320 <__pow5mult>
 80066e4:	ee08 0a10 	vmov	s16, r0
 80066e8:	2101      	movs	r1, #1
 80066ea:	4620      	mov	r0, r4
 80066ec:	f000 fd58 	bl	80071a0 <__i2b>
 80066f0:	9b0a      	ldr	r3, [sp, #40]	; 0x28
 80066f2:	2b00      	cmp	r3, #0
 80066f4:	4606      	mov	r6, r0
 80066f6:	f340 8088 	ble.w	800680a <_dtoa_r+0x8c2>
 80066fa:	461a      	mov	r2, r3
 80066fc:	4601      	mov	r1, r0
 80066fe:	4620      	mov	r0, r4
 8006700:	f000 fe0e 	bl	8007320 <__pow5mult>
 8006704:	9b06      	ldr	r3, [sp, #24]
 8006706:	2b01      	cmp	r3, #1
 8006708:	4606      	mov	r6, r0
 800670a:	f340 8081 	ble.w	8006810 <_dtoa_r+0x8c8>
 800670e:	f04f 0800 	mov.w	r8, #0
 8006712:	6933      	ldr	r3, [r6, #16]
 8006714:	eb06 0383 	add.w	r3, r6, r3, lsl #2
 8006718:	6918      	ldr	r0, [r3, #16]
 800671a:	f000 fcf1 	bl	8007100 <__hi0bits>
 800671e:	f1c0 0020 	rsb	r0, r0, #32
 8006722:	9b05      	ldr	r3, [sp, #20]
 8006724:	4418      	add	r0, r3
 8006726:	f010 001f 	ands.w	r0, r0, #31
 800672a:	f000 8092 	beq.w	8006852 <_dtoa_r+0x90a>
 800672e:	f1c0 0320 	rsb	r3, r0, #32
 8006732:	2b04      	cmp	r3, #4
 8006734:	f340 808a 	ble.w	800684c <_dtoa_r+0x904>
 8006738:	f1c0 001c 	rsb	r0, r0, #28
 800673c:	9b04      	ldr	r3, [sp, #16]
 800673e:	4403      	add	r3, r0
 8006740:	9304      	str	r3, [sp, #16]
 8006742:	9b05      	ldr	r3, [sp, #20]
 8006744:	4403      	add	r3, r0
 8006746:	4405      	add	r5, r0
 8006748:	9305      	str	r3, [sp, #20]
 800674a:	9b04      	ldr	r3, [sp, #16]
 800674c:	2b00      	cmp	r3, #0
 800674e:	dd07      	ble.n	8006760 <_dtoa_r+0x818>
 8006750:	ee18 1a10 	vmov	r1, s16
 8006754:	461a      	mov	r2, r3
 8006756:	4620      	mov	r0, r4
 8006758:	f000 fe3c 	bl	80073d4 <__lshift>
 800675c:	ee08 0a10 	vmov	s16, r0
 8006760:	9b05      	ldr	r3, [sp, #20]
 8006762:	2b00      	cmp	r3, #0
 8006764:	dd05      	ble.n	8006772 <_dtoa_r+0x82a>
 8006766:	4631      	mov	r1, r6
 8006768:	461a      	mov	r2, r3
 800676a:	4620      	mov	r0, r4
 800676c:	f000 fe32 	bl	80073d4 <__lshift>
 8006770:	4606      	mov	r6, r0
 8006772:	9b0b      	ldr	r3, [sp, #44]	; 0x2c
 8006774:	2b00      	cmp	r3, #0
 8006776:	d06e      	beq.n	8006856 <_dtoa_r+0x90e>
 8006778:	ee18 0a10 	vmov	r0, s16
 800677c:	4631      	mov	r1, r6
 800677e:	f000 fe99 	bl	80074b4 <__mcmp>
 8006782:	2800      	cmp	r0, #0
 8006784:	da67      	bge.n	8006856 <_dtoa_r+0x90e>
 8006786:	9b00      	ldr	r3, [sp, #0]
 8006788:	3b01      	subs	r3, #1
 800678a:	ee18 1a10 	vmov	r1, s16
 800678e:	9300      	str	r3, [sp, #0]
 8006790:	220a      	movs	r2, #10
 8006792:	2300      	movs	r3, #0
 8006794:	4620      	mov	r0, r4
 8006796:	f000 fc6d 	bl	8007074 <__multadd>
 800679a:	9b08      	ldr	r3, [sp, #32]
 800679c:	ee08 0a10 	vmov	s16, r0
 80067a0:	2b00      	cmp	r3, #0
 80067a2:	f000 81b1 	beq.w	8006b08 <_dtoa_r+0xbc0>
 80067a6:	2300      	movs	r3, #0
 80067a8:	4639      	mov	r1, r7
 80067aa:	220a      	movs	r2, #10
 80067ac:	4620      	mov	r0, r4
 80067ae:	f000 fc61 	bl	8007074 <__multadd>
 80067b2:	9b02      	ldr	r3, [sp, #8]
 80067b4:	2b00      	cmp	r3, #0
 80067b6:	4607      	mov	r7, r0
 80067b8:	f300 808e 	bgt.w	80068d8 <_dtoa_r+0x990>
 80067bc:	9b06      	ldr	r3, [sp, #24]
 80067be:	2b02      	cmp	r3, #2
 80067c0:	dc51      	bgt.n	8006866 <_dtoa_r+0x91e>
 80067c2:	e089      	b.n	80068d8 <_dtoa_r+0x990>
 80067c4:	9b10      	ldr	r3, [sp, #64]	; 0x40
 80067c6:	f1c3 0336 	rsb	r3, r3, #54	; 0x36
 80067ca:	e74b      	b.n	8006664 <_dtoa_r+0x71c>
 80067cc:	9b03      	ldr	r3, [sp, #12]
 80067ce:	1e5e      	subs	r6, r3, #1
 80067d0:	9b07      	ldr	r3, [sp, #28]
 80067d2:	42b3      	cmp	r3, r6
 80067d4:	bfbf      	itttt	lt
 80067d6:	9b07      	ldrlt	r3, [sp, #28]
 80067d8:	9607      	strlt	r6, [sp, #28]
 80067da:	1af2      	sublt	r2, r6, r3
 80067dc:	9b0a      	ldrlt	r3, [sp, #40]	; 0x28
 80067de:	bfb6      	itet	lt
 80067e0:	189b      	addlt	r3, r3, r2
 80067e2:	1b9e      	subge	r6, r3, r6
 80067e4:	930a      	strlt	r3, [sp, #40]	; 0x28
 80067e6:	9b03      	ldr	r3, [sp, #12]
 80067e8:	bfb8      	it	lt
 80067ea:	2600      	movlt	r6, #0
 80067ec:	2b00      	cmp	r3, #0
 80067ee:	bfb7      	itett	lt
 80067f0:	e9dd 2303 	ldrdlt	r2, r3, [sp, #12]
 80067f4:	e9dd 3503 	ldrdge	r3, r5, [sp, #12]
 80067f8:	1a9d      	sublt	r5, r3, r2
 80067fa:	2300      	movlt	r3, #0
 80067fc:	e734      	b.n	8006668 <_dtoa_r+0x720>
 80067fe:	9e07      	ldr	r6, [sp, #28]
 8006800:	9d04      	ldr	r5, [sp, #16]
 8006802:	9f08      	ldr	r7, [sp, #32]
 8006804:	e73b      	b.n	800667e <_dtoa_r+0x736>
 8006806:	9a07      	ldr	r2, [sp, #28]
 8006808:	e767      	b.n	80066da <_dtoa_r+0x792>
 800680a:	9b06      	ldr	r3, [sp, #24]
 800680c:	2b01      	cmp	r3, #1
 800680e:	dc18      	bgt.n	8006842 <_dtoa_r+0x8fa>
 8006810:	f1ba 0f00 	cmp.w	sl, #0
 8006814:	d115      	bne.n	8006842 <_dtoa_r+0x8fa>
 8006816:	f3cb 0313 	ubfx	r3, fp, #0, #20
 800681a:	b993      	cbnz	r3, 8006842 <_dtoa_r+0x8fa>
 800681c:	f02b 4300 	bic.w	r3, fp, #2147483648	; 0x80000000
 8006820:	0d1b      	lsrs	r3, r3, #20
 8006822:	051b      	lsls	r3, r3, #20
 8006824:	b183      	cbz	r3, 8006848 <_dtoa_r+0x900>
 8006826:	9b04      	ldr	r3, [sp, #16]
 8006828:	3301      	adds	r3, #1
 800682a:	9304      	str	r3, [sp, #16]
 800682c:	9b05      	ldr	r3, [sp, #20]
 800682e:	3301      	adds	r3, #1
 8006830:	9305      	str	r3, [sp, #20]
 8006832:	f04f 0801 	mov.w	r8, #1
 8006836:	9b0a      	ldr	r3, [sp, #40]	; 0x28
 8006838:	2b00      	cmp	r3, #0
 800683a:	f47f af6a 	bne.w	8006712 <_dtoa_r+0x7ca>
 800683e:	2001      	movs	r0, #1
 8006840:	e76f      	b.n	8006722 <_dtoa_r+0x7da>
 8006842:	f04f 0800 	mov.w	r8, #0
 8006846:	e7f6      	b.n	8006836 <_dtoa_r+0x8ee>
 8006848:	4698      	mov	r8, r3
 800684a:	e7f4      	b.n	8006836 <_dtoa_r+0x8ee>
 800684c:	f43f af7d 	beq.w	800674a <_dtoa_r+0x802>
 8006850:	4618      	mov	r0, r3
 8006852:	301c      	adds	r0, #28
 8006854:	e772      	b.n	800673c <_dtoa_r+0x7f4>
 8006856:	9b03      	ldr	r3, [sp, #12]
 8006858:	2b00      	cmp	r3, #0
 800685a:	dc37      	bgt.n	80068cc <_dtoa_r+0x984>
 800685c:	9b06      	ldr	r3, [sp, #24]
 800685e:	2b02      	cmp	r3, #2
 8006860:	dd34      	ble.n	80068cc <_dtoa_r+0x984>
 8006862:	9b03      	ldr	r3, [sp, #12]
 8006864:	9302      	str	r3, [sp, #8]
 8006866:	9b02      	ldr	r3, [sp, #8]
 8006868:	b96b      	cbnz	r3, 8006886 <_dtoa_r+0x93e>
 800686a:	4631      	mov	r1, r6
 800686c:	2205      	movs	r2, #5
 800686e:	4620      	mov	r0, r4
 8006870:	f000 fc00 	bl	8007074 <__multadd>
 8006874:	4601      	mov	r1, r0
 8006876:	4606      	mov	r6, r0
 8006878:	ee18 0a10 	vmov	r0, s16
 800687c:	f000 fe1a 	bl	80074b4 <__mcmp>
 8006880:	2800      	cmp	r0, #0
 8006882:	f73f adbb 	bgt.w	80063fc <_dtoa_r+0x4b4>
 8006886:	9b09      	ldr	r3, [sp, #36]	; 0x24
 8006888:	9d01      	ldr	r5, [sp, #4]
 800688a:	43db      	mvns	r3, r3
 800688c:	9300      	str	r3, [sp, #0]
 800688e:	f04f 0800 	mov.w	r8, #0
 8006892:	4631      	mov	r1, r6
 8006894:	4620      	mov	r0, r4
 8006896:	f000 fbcb 	bl	8007030 <_Bfree>
 800689a:	2f00      	cmp	r7, #0
 800689c:	f43f aea4 	beq.w	80065e8 <_dtoa_r+0x6a0>
 80068a0:	f1b8 0f00 	cmp.w	r8, #0
 80068a4:	d005      	beq.n	80068b2 <_dtoa_r+0x96a>
 80068a6:	45b8      	cmp	r8, r7
 80068a8:	d003      	beq.n	80068b2 <_dtoa_r+0x96a>
 80068aa:	4641      	mov	r1, r8
 80068ac:	4620      	mov	r0, r4
 80068ae:	f000 fbbf 	bl	8007030 <_Bfree>
 80068b2:	4639      	mov	r1, r7
 80068b4:	4620      	mov	r0, r4
 80068b6:	f000 fbbb 	bl	8007030 <_Bfree>
 80068ba:	e695      	b.n	80065e8 <_dtoa_r+0x6a0>
 80068bc:	2600      	movs	r6, #0
 80068be:	4637      	mov	r7, r6
 80068c0:	e7e1      	b.n	8006886 <_dtoa_r+0x93e>
 80068c2:	9700      	str	r7, [sp, #0]
 80068c4:	4637      	mov	r7, r6
 80068c6:	e599      	b.n	80063fc <_dtoa_r+0x4b4>
 80068c8:	40240000 	.word	0x40240000
 80068cc:	9b08      	ldr	r3, [sp, #32]
 80068ce:	2b00      	cmp	r3, #0
 80068d0:	f000 80ca 	beq.w	8006a68 <_dtoa_r+0xb20>
 80068d4:	9b03      	ldr	r3, [sp, #12]
 80068d6:	9302      	str	r3, [sp, #8]
 80068d8:	2d00      	cmp	r5, #0
 80068da:	dd05      	ble.n	80068e8 <_dtoa_r+0x9a0>
 80068dc:	4639      	mov	r1, r7
 80068de:	462a      	mov	r2, r5
 80068e0:	4620      	mov	r0, r4
 80068e2:	f000 fd77 	bl	80073d4 <__lshift>
 80068e6:	4607      	mov	r7, r0
 80068e8:	f1b8 0f00 	cmp.w	r8, #0
 80068ec:	d05b      	beq.n	80069a6 <_dtoa_r+0xa5e>
 80068ee:	6879      	ldr	r1, [r7, #4]
 80068f0:	4620      	mov	r0, r4
 80068f2:	f000 fb5d 	bl	8006fb0 <_Balloc>
 80068f6:	4605      	mov	r5, r0
 80068f8:	b928      	cbnz	r0, 8006906 <_dtoa_r+0x9be>
 80068fa:	4b87      	ldr	r3, [pc, #540]	; (8006b18 <_dtoa_r+0xbd0>)
 80068fc:	4602      	mov	r2, r0
 80068fe:	f240 21ea 	movw	r1, #746	; 0x2ea
 8006902:	f7ff bb3b 	b.w	8005f7c <_dtoa_r+0x34>
 8006906:	693a      	ldr	r2, [r7, #16]
 8006908:	3202      	adds	r2, #2
 800690a:	0092      	lsls	r2, r2, #2
 800690c:	f107 010c 	add.w	r1, r7, #12
 8006910:	300c      	adds	r0, #12
 8006912:	f7fe fbc5 	bl	80050a0 <memcpy>
 8006916:	2201      	movs	r2, #1
 8006918:	4629      	mov	r1, r5
 800691a:	4620      	mov	r0, r4
 800691c:	f000 fd5a 	bl	80073d4 <__lshift>
 8006920:	9b01      	ldr	r3, [sp, #4]
 8006922:	f103 0901 	add.w	r9, r3, #1
 8006926:	e9dd 2301 	ldrd	r2, r3, [sp, #4]
 800692a:	4413      	add	r3, r2
 800692c:	9305      	str	r3, [sp, #20]
 800692e:	f00a 0301 	and.w	r3, sl, #1
 8006932:	46b8      	mov	r8, r7
 8006934:	9304      	str	r3, [sp, #16]
 8006936:	4607      	mov	r7, r0
 8006938:	4631      	mov	r1, r6
 800693a:	ee18 0a10 	vmov	r0, s16
 800693e:	f7ff fa78 	bl	8005e32 <quorem>
 8006942:	4641      	mov	r1, r8
 8006944:	9002      	str	r0, [sp, #8]
 8006946:	f100 0a30 	add.w	sl, r0, #48	; 0x30
 800694a:	ee18 0a10 	vmov	r0, s16
 800694e:	f000 fdb1 	bl	80074b4 <__mcmp>
 8006952:	463a      	mov	r2, r7
 8006954:	9003      	str	r0, [sp, #12]
 8006956:	4631      	mov	r1, r6
 8006958:	4620      	mov	r0, r4
 800695a:	f000 fdc7 	bl	80074ec <__mdiff>
 800695e:	68c2      	ldr	r2, [r0, #12]
 8006960:	f109 3bff 	add.w	fp, r9, #4294967295
 8006964:	4605      	mov	r5, r0
 8006966:	bb02      	cbnz	r2, 80069aa <_dtoa_r+0xa62>
 8006968:	4601      	mov	r1, r0
 800696a:	ee18 0a10 	vmov	r0, s16
 800696e:	f000 fda1 	bl	80074b4 <__mcmp>
 8006972:	4602      	mov	r2, r0
 8006974:	4629      	mov	r1, r5
 8006976:	4620      	mov	r0, r4
 8006978:	9207      	str	r2, [sp, #28]
 800697a:	f000 fb59 	bl	8007030 <_Bfree>
 800697e:	e9dd 3206 	ldrd	r3, r2, [sp, #24]
 8006982:	ea43 0102 	orr.w	r1, r3, r2
 8006986:	9b04      	ldr	r3, [sp, #16]
 8006988:	430b      	orrs	r3, r1
 800698a:	464d      	mov	r5, r9
 800698c:	d10f      	bne.n	80069ae <_dtoa_r+0xa66>
 800698e:	f1ba 0f39 	cmp.w	sl, #57	; 0x39
 8006992:	d02a      	beq.n	80069ea <_dtoa_r+0xaa2>
 8006994:	9b03      	ldr	r3, [sp, #12]
 8006996:	2b00      	cmp	r3, #0
 8006998:	dd02      	ble.n	80069a0 <_dtoa_r+0xa58>
 800699a:	9b02      	ldr	r3, [sp, #8]
 800699c:	f103 0a31 	add.w	sl, r3, #49	; 0x31
 80069a0:	f88b a000 	strb.w	sl, [fp]
 80069a4:	e775      	b.n	8006892 <_dtoa_r+0x94a>
 80069a6:	4638      	mov	r0, r7
 80069a8:	e7ba      	b.n	8006920 <_dtoa_r+0x9d8>
 80069aa:	2201      	movs	r2, #1
 80069ac:	e7e2      	b.n	8006974 <_dtoa_r+0xa2c>
 80069ae:	9b03      	ldr	r3, [sp, #12]
 80069b0:	2b00      	cmp	r3, #0
 80069b2:	db04      	blt.n	80069be <_dtoa_r+0xa76>
 80069b4:	9906      	ldr	r1, [sp, #24]
 80069b6:	430b      	orrs	r3, r1
 80069b8:	9904      	ldr	r1, [sp, #16]
 80069ba:	430b      	orrs	r3, r1
 80069bc:	d122      	bne.n	8006a04 <_dtoa_r+0xabc>
 80069be:	2a00      	cmp	r2, #0
 80069c0:	ddee      	ble.n	80069a0 <_dtoa_r+0xa58>
 80069c2:	ee18 1a10 	vmov	r1, s16
 80069c6:	2201      	movs	r2, #1
 80069c8:	4620      	mov	r0, r4
 80069ca:	f000 fd03 	bl	80073d4 <__lshift>
 80069ce:	4631      	mov	r1, r6
 80069d0:	ee08 0a10 	vmov	s16, r0
 80069d4:	f000 fd6e 	bl	80074b4 <__mcmp>
 80069d8:	2800      	cmp	r0, #0
 80069da:	dc03      	bgt.n	80069e4 <_dtoa_r+0xa9c>
 80069dc:	d1e0      	bne.n	80069a0 <_dtoa_r+0xa58>
 80069de:	f01a 0f01 	tst.w	sl, #1
 80069e2:	d0dd      	beq.n	80069a0 <_dtoa_r+0xa58>
 80069e4:	f1ba 0f39 	cmp.w	sl, #57	; 0x39
 80069e8:	d1d7      	bne.n	800699a <_dtoa_r+0xa52>
 80069ea:	2339      	movs	r3, #57	; 0x39
 80069ec:	f88b 3000 	strb.w	r3, [fp]
 80069f0:	462b      	mov	r3, r5
 80069f2:	461d      	mov	r5, r3
 80069f4:	3b01      	subs	r3, #1
 80069f6:	f815 2c01 	ldrb.w	r2, [r5, #-1]
 80069fa:	2a39      	cmp	r2, #57	; 0x39
 80069fc:	d071      	beq.n	8006ae2 <_dtoa_r+0xb9a>
 80069fe:	3201      	adds	r2, #1
 8006a00:	701a      	strb	r2, [r3, #0]
 8006a02:	e746      	b.n	8006892 <_dtoa_r+0x94a>
 8006a04:	2a00      	cmp	r2, #0
 8006a06:	dd07      	ble.n	8006a18 <_dtoa_r+0xad0>
 8006a08:	f1ba 0f39 	cmp.w	sl, #57	; 0x39
 8006a0c:	d0ed      	beq.n	80069ea <_dtoa_r+0xaa2>
 8006a0e:	f10a 0301 	add.w	r3, sl, #1
 8006a12:	f88b 3000 	strb.w	r3, [fp]
 8006a16:	e73c      	b.n	8006892 <_dtoa_r+0x94a>
 8006a18:	9b05      	ldr	r3, [sp, #20]
 8006a1a:	f809 ac01 	strb.w	sl, [r9, #-1]
 8006a1e:	4599      	cmp	r9, r3
 8006a20:	d047      	beq.n	8006ab2 <_dtoa_r+0xb6a>
 8006a22:	ee18 1a10 	vmov	r1, s16
 8006a26:	2300      	movs	r3, #0
 8006a28:	220a      	movs	r2, #10
 8006a2a:	4620      	mov	r0, r4
 8006a2c:	f000 fb22 	bl	8007074 <__multadd>
 8006a30:	45b8      	cmp	r8, r7
 8006a32:	ee08 0a10 	vmov	s16, r0
 8006a36:	f04f 0300 	mov.w	r3, #0
 8006a3a:	f04f 020a 	mov.w	r2, #10
 8006a3e:	4641      	mov	r1, r8
 8006a40:	4620      	mov	r0, r4
 8006a42:	d106      	bne.n	8006a52 <_dtoa_r+0xb0a>
 8006a44:	f000 fb16 	bl	8007074 <__multadd>
 8006a48:	4680      	mov	r8, r0
 8006a4a:	4607      	mov	r7, r0
 8006a4c:	f109 0901 	add.w	r9, r9, #1
 8006a50:	e772      	b.n	8006938 <_dtoa_r+0x9f0>
 8006a52:	f000 fb0f 	bl	8007074 <__multadd>
 8006a56:	4639      	mov	r1, r7
 8006a58:	4680      	mov	r8, r0
 8006a5a:	2300      	movs	r3, #0
 8006a5c:	220a      	movs	r2, #10
 8006a5e:	4620      	mov	r0, r4
 8006a60:	f000 fb08 	bl	8007074 <__multadd>
 8006a64:	4607      	mov	r7, r0
 8006a66:	e7f1      	b.n	8006a4c <_dtoa_r+0xb04>
 8006a68:	9b03      	ldr	r3, [sp, #12]
 8006a6a:	9302      	str	r3, [sp, #8]
 8006a6c:	9d01      	ldr	r5, [sp, #4]
 8006a6e:	ee18 0a10 	vmov	r0, s16
 8006a72:	4631      	mov	r1, r6
 8006a74:	f7ff f9dd 	bl	8005e32 <quorem>
 8006a78:	f100 0a30 	add.w	sl, r0, #48	; 0x30
 8006a7c:	9b01      	ldr	r3, [sp, #4]
 8006a7e:	f805 ab01 	strb.w	sl, [r5], #1
 8006a82:	1aea      	subs	r2, r5, r3
 8006a84:	9b02      	ldr	r3, [sp, #8]
 8006a86:	4293      	cmp	r3, r2
 8006a88:	dd09      	ble.n	8006a9e <_dtoa_r+0xb56>
 8006a8a:	ee18 1a10 	vmov	r1, s16
 8006a8e:	2300      	movs	r3, #0
 8006a90:	220a      	movs	r2, #10
 8006a92:	4620      	mov	r0, r4
 8006a94:	f000 faee 	bl	8007074 <__multadd>
 8006a98:	ee08 0a10 	vmov	s16, r0
 8006a9c:	e7e7      	b.n	8006a6e <_dtoa_r+0xb26>
 8006a9e:	9b02      	ldr	r3, [sp, #8]
 8006aa0:	2b00      	cmp	r3, #0
 8006aa2:	bfc8      	it	gt
 8006aa4:	461d      	movgt	r5, r3
 8006aa6:	9b01      	ldr	r3, [sp, #4]
 8006aa8:	bfd8      	it	le
 8006aaa:	2501      	movle	r5, #1
 8006aac:	441d      	add	r5, r3
 8006aae:	f04f 0800 	mov.w	r8, #0
 8006ab2:	ee18 1a10 	vmov	r1, s16
 8006ab6:	2201      	movs	r2, #1
 8006ab8:	4620      	mov	r0, r4
 8006aba:	f000 fc8b 	bl	80073d4 <__lshift>
 8006abe:	4631      	mov	r1, r6
 8006ac0:	ee08 0a10 	vmov	s16, r0
 8006ac4:	f000 fcf6 	bl	80074b4 <__mcmp>
 8006ac8:	2800      	cmp	r0, #0
 8006aca:	dc91      	bgt.n	80069f0 <_dtoa_r+0xaa8>
 8006acc:	d102      	bne.n	8006ad4 <_dtoa_r+0xb8c>
 8006ace:	f01a 0f01 	tst.w	sl, #1
 8006ad2:	d18d      	bne.n	80069f0 <_dtoa_r+0xaa8>
 8006ad4:	462b      	mov	r3, r5
 8006ad6:	461d      	mov	r5, r3
 8006ad8:	f813 2d01 	ldrb.w	r2, [r3, #-1]!
 8006adc:	2a30      	cmp	r2, #48	; 0x30
 8006ade:	d0fa      	beq.n	8006ad6 <_dtoa_r+0xb8e>
 8006ae0:	e6d7      	b.n	8006892 <_dtoa_r+0x94a>
 8006ae2:	9a01      	ldr	r2, [sp, #4]
 8006ae4:	429a      	cmp	r2, r3
 8006ae6:	d184      	bne.n	80069f2 <_dtoa_r+0xaaa>
 8006ae8:	9b00      	ldr	r3, [sp, #0]
 8006aea:	3301      	adds	r3, #1
 8006aec:	9300      	str	r3, [sp, #0]
 8006aee:	2331      	movs	r3, #49	; 0x31
 8006af0:	7013      	strb	r3, [r2, #0]
 8006af2:	e6ce      	b.n	8006892 <_dtoa_r+0x94a>
 8006af4:	4b09      	ldr	r3, [pc, #36]	; (8006b1c <_dtoa_r+0xbd4>)
 8006af6:	f7ff ba95 	b.w	8006024 <_dtoa_r+0xdc>
 8006afa:	9b21      	ldr	r3, [sp, #132]	; 0x84
 8006afc:	2b00      	cmp	r3, #0
 8006afe:	f47f aa6e 	bne.w	8005fde <_dtoa_r+0x96>
 8006b02:	4b07      	ldr	r3, [pc, #28]	; (8006b20 <_dtoa_r+0xbd8>)
 8006b04:	f7ff ba8e 	b.w	8006024 <_dtoa_r+0xdc>
 8006b08:	9b02      	ldr	r3, [sp, #8]
 8006b0a:	2b00      	cmp	r3, #0
 8006b0c:	dcae      	bgt.n	8006a6c <_dtoa_r+0xb24>
 8006b0e:	9b06      	ldr	r3, [sp, #24]
 8006b10:	2b02      	cmp	r3, #2
 8006b12:	f73f aea8 	bgt.w	8006866 <_dtoa_r+0x91e>
 8006b16:	e7a9      	b.n	8006a6c <_dtoa_r+0xb24>
 8006b18:	0800831c 	.word	0x0800831c
 8006b1c:	08008279 	.word	0x08008279
 8006b20:	0800829d 	.word	0x0800829d

08006b24 <__sflush_r>:
 8006b24:	898a      	ldrh	r2, [r1, #12]
 8006b26:	e92d 41f0 	stmdb	sp!, {r4, r5, r6, r7, r8, lr}
 8006b2a:	4605      	mov	r5, r0
 8006b2c:	0710      	lsls	r0, r2, #28
 8006b2e:	460c      	mov	r4, r1
 8006b30:	d458      	bmi.n	8006be4 <__sflush_r+0xc0>
 8006b32:	684b      	ldr	r3, [r1, #4]
 8006b34:	2b00      	cmp	r3, #0
 8006b36:	dc05      	bgt.n	8006b44 <__sflush_r+0x20>
 8006b38:	6c0b      	ldr	r3, [r1, #64]	; 0x40
 8006b3a:	2b00      	cmp	r3, #0
 8006b3c:	dc02      	bgt.n	8006b44 <__sflush_r+0x20>
 8006b3e:	2000      	movs	r0, #0
 8006b40:	e8bd 81f0 	ldmia.w	sp!, {r4, r5, r6, r7, r8, pc}
 8006b44:	6ae6      	ldr	r6, [r4, #44]	; 0x2c
 8006b46:	2e00      	cmp	r6, #0
 8006b48:	d0f9      	beq.n	8006b3e <__sflush_r+0x1a>
 8006b4a:	2300      	movs	r3, #0
 8006b4c:	f412 5280 	ands.w	r2, r2, #4096	; 0x1000
 8006b50:	682f      	ldr	r7, [r5, #0]
 8006b52:	602b      	str	r3, [r5, #0]
 8006b54:	d032      	beq.n	8006bbc <__sflush_r+0x98>
 8006b56:	6d60      	ldr	r0, [r4, #84]	; 0x54
 8006b58:	89a3      	ldrh	r3, [r4, #12]
 8006b5a:	075a      	lsls	r2, r3, #29
 8006b5c:	d505      	bpl.n	8006b6a <__sflush_r+0x46>
 8006b5e:	6863      	ldr	r3, [r4, #4]
 8006b60:	1ac0      	subs	r0, r0, r3
 8006b62:	6b63      	ldr	r3, [r4, #52]	; 0x34
 8006b64:	b10b      	cbz	r3, 8006b6a <__sflush_r+0x46>
 8006b66:	6c23      	ldr	r3, [r4, #64]	; 0x40
 8006b68:	1ac0      	subs	r0, r0, r3
 8006b6a:	2300      	movs	r3, #0
 8006b6c:	4602      	mov	r2, r0
 8006b6e:	6ae6      	ldr	r6, [r4, #44]	; 0x2c
 8006b70:	6a21      	ldr	r1, [r4, #32]
 8006b72:	4628      	mov	r0, r5
 8006b74:	47b0      	blx	r6
 8006b76:	1c43      	adds	r3, r0, #1
 8006b78:	89a3      	ldrh	r3, [r4, #12]
 8006b7a:	d106      	bne.n	8006b8a <__sflush_r+0x66>
 8006b7c:	6829      	ldr	r1, [r5, #0]
 8006b7e:	291d      	cmp	r1, #29
 8006b80:	d82c      	bhi.n	8006bdc <__sflush_r+0xb8>
 8006b82:	4a2a      	ldr	r2, [pc, #168]	; (8006c2c <__sflush_r+0x108>)
 8006b84:	40ca      	lsrs	r2, r1
 8006b86:	07d6      	lsls	r6, r2, #31
 8006b88:	d528      	bpl.n	8006bdc <__sflush_r+0xb8>
 8006b8a:	2200      	movs	r2, #0
 8006b8c:	6062      	str	r2, [r4, #4]
 8006b8e:	04d9      	lsls	r1, r3, #19
 8006b90:	6922      	ldr	r2, [r4, #16]
 8006b92:	6022      	str	r2, [r4, #0]
 8006b94:	d504      	bpl.n	8006ba0 <__sflush_r+0x7c>
 8006b96:	1c42      	adds	r2, r0, #1
 8006b98:	d101      	bne.n	8006b9e <__sflush_r+0x7a>
 8006b9a:	682b      	ldr	r3, [r5, #0]
 8006b9c:	b903      	cbnz	r3, 8006ba0 <__sflush_r+0x7c>
 8006b9e:	6560      	str	r0, [r4, #84]	; 0x54
 8006ba0:	6b61      	ldr	r1, [r4, #52]	; 0x34
 8006ba2:	602f      	str	r7, [r5, #0]
 8006ba4:	2900      	cmp	r1, #0
 8006ba6:	d0ca      	beq.n	8006b3e <__sflush_r+0x1a>
 8006ba8:	f104 0344 	add.w	r3, r4, #68	; 0x44
 8006bac:	4299      	cmp	r1, r3
 8006bae:	d002      	beq.n	8006bb6 <__sflush_r+0x92>
 8006bb0:	4628      	mov	r0, r5
 8006bb2:	f000 fd97 	bl	80076e4 <_free_r>
 8006bb6:	2000      	movs	r0, #0
 8006bb8:	6360      	str	r0, [r4, #52]	; 0x34
 8006bba:	e7c1      	b.n	8006b40 <__sflush_r+0x1c>
 8006bbc:	6a21      	ldr	r1, [r4, #32]
 8006bbe:	2301      	movs	r3, #1
 8006bc0:	4628      	mov	r0, r5
 8006bc2:	47b0      	blx	r6
 8006bc4:	1c41      	adds	r1, r0, #1
 8006bc6:	d1c7      	bne.n	8006b58 <__sflush_r+0x34>
 8006bc8:	682b      	ldr	r3, [r5, #0]
 8006bca:	2b00      	cmp	r3, #0
 8006bcc:	d0c4      	beq.n	8006b58 <__sflush_r+0x34>
 8006bce:	2b1d      	cmp	r3, #29
 8006bd0:	d001      	beq.n	8006bd6 <__sflush_r+0xb2>
 8006bd2:	2b16      	cmp	r3, #22
 8006bd4:	d101      	bne.n	8006bda <__sflush_r+0xb6>
 8006bd6:	602f      	str	r7, [r5, #0]
 8006bd8:	e7b1      	b.n	8006b3e <__sflush_r+0x1a>
 8006bda:	89a3      	ldrh	r3, [r4, #12]
 8006bdc:	f043 0340 	orr.w	r3, r3, #64	; 0x40
 8006be0:	81a3      	strh	r3, [r4, #12]
 8006be2:	e7ad      	b.n	8006b40 <__sflush_r+0x1c>
 8006be4:	690f      	ldr	r7, [r1, #16]
 8006be6:	2f00      	cmp	r7, #0
 8006be8:	d0a9      	beq.n	8006b3e <__sflush_r+0x1a>
 8006bea:	0793      	lsls	r3, r2, #30
 8006bec:	680e      	ldr	r6, [r1, #0]
 8006bee:	bf08      	it	eq
 8006bf0:	694b      	ldreq	r3, [r1, #20]
 8006bf2:	600f      	str	r7, [r1, #0]
 8006bf4:	bf18      	it	ne
 8006bf6:	2300      	movne	r3, #0
 8006bf8:	eba6 0807 	sub.w	r8, r6, r7
 8006bfc:	608b      	str	r3, [r1, #8]
 8006bfe:	f1b8 0f00 	cmp.w	r8, #0
 8006c02:	dd9c      	ble.n	8006b3e <__sflush_r+0x1a>
 8006c04:	6a21      	ldr	r1, [r4, #32]
 8006c06:	6aa6      	ldr	r6, [r4, #40]	; 0x28
 8006c08:	4643      	mov	r3, r8
 8006c0a:	463a      	mov	r2, r7
 8006c0c:	4628      	mov	r0, r5
 8006c0e:	47b0      	blx	r6
 8006c10:	2800      	cmp	r0, #0
 8006c12:	dc06      	bgt.n	8006c22 <__sflush_r+0xfe>
 8006c14:	89a3      	ldrh	r3, [r4, #12]
 8006c16:	f043 0340 	orr.w	r3, r3, #64	; 0x40
 8006c1a:	81a3      	strh	r3, [r4, #12]
 8006c1c:	f04f 30ff 	mov.w	r0, #4294967295
 8006c20:	e78e      	b.n	8006b40 <__sflush_r+0x1c>
 8006c22:	4407      	add	r7, r0
 8006c24:	eba8 0800 	sub.w	r8, r8, r0
 8006c28:	e7e9      	b.n	8006bfe <__sflush_r+0xda>
 8006c2a:	bf00      	nop
 8006c2c:	20400001 	.word	0x20400001

08006c30 <_fflush_r>:
 8006c30:	b538      	push	{r3, r4, r5, lr}
 8006c32:	690b      	ldr	r3, [r1, #16]
 8006c34:	4605      	mov	r5, r0
 8006c36:	460c      	mov	r4, r1
 8006c38:	b913      	cbnz	r3, 8006c40 <_fflush_r+0x10>
 8006c3a:	2500      	movs	r5, #0
 8006c3c:	4628      	mov	r0, r5
 8006c3e:	bd38      	pop	{r3, r4, r5, pc}
 8006c40:	b118      	cbz	r0, 8006c4a <_fflush_r+0x1a>
 8006c42:	6983      	ldr	r3, [r0, #24]
 8006c44:	b90b      	cbnz	r3, 8006c4a <_fflush_r+0x1a>
 8006c46:	f000 f887 	bl	8006d58 <__sinit>
 8006c4a:	4b14      	ldr	r3, [pc, #80]	; (8006c9c <_fflush_r+0x6c>)
 8006c4c:	429c      	cmp	r4, r3
 8006c4e:	d11b      	bne.n	8006c88 <_fflush_r+0x58>
 8006c50:	686c      	ldr	r4, [r5, #4]
 8006c52:	f9b4 300c 	ldrsh.w	r3, [r4, #12]
 8006c56:	2b00      	cmp	r3, #0
 8006c58:	d0ef      	beq.n	8006c3a <_fflush_r+0xa>
 8006c5a:	6e62      	ldr	r2, [r4, #100]	; 0x64
 8006c5c:	07d0      	lsls	r0, r2, #31
 8006c5e:	d404      	bmi.n	8006c6a <_fflush_r+0x3a>
 8006c60:	0599      	lsls	r1, r3, #22
 8006c62:	d402      	bmi.n	8006c6a <_fflush_r+0x3a>
 8006c64:	6da0      	ldr	r0, [r4, #88]	; 0x58
 8006c66:	f000 f91a 	bl	8006e9e <__retarget_lock_acquire_recursive>
 8006c6a:	4628      	mov	r0, r5
 8006c6c:	4621      	mov	r1, r4
 8006c6e:	f7ff ff59 	bl	8006b24 <__sflush_r>
 8006c72:	6e63      	ldr	r3, [r4, #100]	; 0x64
 8006c74:	07da      	lsls	r2, r3, #31
 8006c76:	4605      	mov	r5, r0
 8006c78:	d4e0      	bmi.n	8006c3c <_fflush_r+0xc>
 8006c7a:	89a3      	ldrh	r3, [r4, #12]
 8006c7c:	059b      	lsls	r3, r3, #22
 8006c7e:	d4dd      	bmi.n	8006c3c <_fflush_r+0xc>
 8006c80:	6da0      	ldr	r0, [r4, #88]	; 0x58
 8006c82:	f000 f90d 	bl	8006ea0 <__retarget_lock_release_recursive>
 8006c86:	e7d9      	b.n	8006c3c <_fflush_r+0xc>
 8006c88:	4b05      	ldr	r3, [pc, #20]	; (8006ca0 <_fflush_r+0x70>)
 8006c8a:	429c      	cmp	r4, r3
 8006c8c:	d101      	bne.n	8006c92 <_fflush_r+0x62>
 8006c8e:	68ac      	ldr	r4, [r5, #8]
 8006c90:	e7df      	b.n	8006c52 <_fflush_r+0x22>
 8006c92:	4b04      	ldr	r3, [pc, #16]	; (8006ca4 <_fflush_r+0x74>)
 8006c94:	429c      	cmp	r4, r3
 8006c96:	bf08      	it	eq
 8006c98:	68ec      	ldreq	r4, [r5, #12]
 8006c9a:	e7da      	b.n	8006c52 <_fflush_r+0x22>
 8006c9c:	08008350 	.word	0x08008350
 8006ca0:	08008370 	.word	0x08008370
 8006ca4:	08008330 	.word	0x08008330

08006ca8 <std>:
 8006ca8:	2300      	movs	r3, #0
 8006caa:	b510      	push	{r4, lr}
 8006cac:	4604      	mov	r4, r0
 8006cae:	e9c0 3300 	strd	r3, r3, [r0]
 8006cb2:	e9c0 3304 	strd	r3, r3, [r0, #16]
 8006cb6:	6083      	str	r3, [r0, #8]
 8006cb8:	8181      	strh	r1, [r0, #12]
 8006cba:	6643      	str	r3, [r0, #100]	; 0x64
 8006cbc:	81c2      	strh	r2, [r0, #14]
 8006cbe:	6183      	str	r3, [r0, #24]
 8006cc0:	4619      	mov	r1, r3
 8006cc2:	2208      	movs	r2, #8
 8006cc4:	305c      	adds	r0, #92	; 0x5c
 8006cc6:	f7fe f9f9 	bl	80050bc <memset>
 8006cca:	4b05      	ldr	r3, [pc, #20]	; (8006ce0 <std+0x38>)
 8006ccc:	6263      	str	r3, [r4, #36]	; 0x24
 8006cce:	4b05      	ldr	r3, [pc, #20]	; (8006ce4 <std+0x3c>)
 8006cd0:	62a3      	str	r3, [r4, #40]	; 0x28
 8006cd2:	4b05      	ldr	r3, [pc, #20]	; (8006ce8 <std+0x40>)
 8006cd4:	62e3      	str	r3, [r4, #44]	; 0x2c
 8006cd6:	4b05      	ldr	r3, [pc, #20]	; (8006cec <std+0x44>)
 8006cd8:	6224      	str	r4, [r4, #32]
 8006cda:	6323      	str	r3, [r4, #48]	; 0x30
 8006cdc:	bd10      	pop	{r4, pc}
 8006cde:	bf00      	nop
 8006ce0:	08007c61 	.word	0x08007c61
 8006ce4:	08007c83 	.word	0x08007c83
 8006ce8:	08007cbb 	.word	0x08007cbb
 8006cec:	08007cdf 	.word	0x08007cdf

08006cf0 <_cleanup_r>:
 8006cf0:	4901      	ldr	r1, [pc, #4]	; (8006cf8 <_cleanup_r+0x8>)
 8006cf2:	f000 b8af 	b.w	8006e54 <_fwalk_reent>
 8006cf6:	bf00      	nop
 8006cf8:	08006c31 	.word	0x08006c31

08006cfc <__sfmoreglue>:
 8006cfc:	b570      	push	{r4, r5, r6, lr}
 8006cfe:	2268      	movs	r2, #104	; 0x68
 8006d00:	1e4d      	subs	r5, r1, #1
 8006d02:	4355      	muls	r5, r2
 8006d04:	460e      	mov	r6, r1
 8006d06:	f105 0174 	add.w	r1, r5, #116	; 0x74
 8006d0a:	f000 fd57 	bl	80077bc <_malloc_r>
 8006d0e:	4604      	mov	r4, r0
 8006d10:	b140      	cbz	r0, 8006d24 <__sfmoreglue+0x28>
 8006d12:	2100      	movs	r1, #0
 8006d14:	e9c0 1600 	strd	r1, r6, [r0]
 8006d18:	300c      	adds	r0, #12
 8006d1a:	60a0      	str	r0, [r4, #8]
 8006d1c:	f105 0268 	add.w	r2, r5, #104	; 0x68
 8006d20:	f7fe f9cc 	bl	80050bc <memset>
 8006d24:	4620      	mov	r0, r4
 8006d26:	bd70      	pop	{r4, r5, r6, pc}

08006d28 <__sfp_lock_acquire>:
 8006d28:	4801      	ldr	r0, [pc, #4]	; (8006d30 <__sfp_lock_acquire+0x8>)
 8006d2a:	f000 b8b8 	b.w	8006e9e <__retarget_lock_acquire_recursive>
 8006d2e:	bf00      	nop
 8006d30:	20002621 	.word	0x20002621

08006d34 <__sfp_lock_release>:
 8006d34:	4801      	ldr	r0, [pc, #4]	; (8006d3c <__sfp_lock_release+0x8>)
 8006d36:	f000 b8b3 	b.w	8006ea0 <__retarget_lock_release_recursive>
 8006d3a:	bf00      	nop
 8006d3c:	20002621 	.word	0x20002621

08006d40 <__sinit_lock_acquire>:
 8006d40:	4801      	ldr	r0, [pc, #4]	; (8006d48 <__sinit_lock_acquire+0x8>)
 8006d42:	f000 b8ac 	b.w	8006e9e <__retarget_lock_acquire_recursive>
 8006d46:	bf00      	nop
 8006d48:	20002622 	.word	0x20002622

08006d4c <__sinit_lock_release>:
 8006d4c:	4801      	ldr	r0, [pc, #4]	; (8006d54 <__sinit_lock_release+0x8>)
 8006d4e:	f000 b8a7 	b.w	8006ea0 <__retarget_lock_release_recursive>
 8006d52:	bf00      	nop
 8006d54:	20002622 	.word	0x20002622

08006d58 <__sinit>:
 8006d58:	b510      	push	{r4, lr}
 8006d5a:	4604      	mov	r4, r0
 8006d5c:	f7ff fff0 	bl	8006d40 <__sinit_lock_acquire>
 8006d60:	69a3      	ldr	r3, [r4, #24]
 8006d62:	b11b      	cbz	r3, 8006d6c <__sinit+0x14>
 8006d64:	e8bd 4010 	ldmia.w	sp!, {r4, lr}
 8006d68:	f7ff bff0 	b.w	8006d4c <__sinit_lock_release>
 8006d6c:	e9c4 3312 	strd	r3, r3, [r4, #72]	; 0x48
 8006d70:	6523      	str	r3, [r4, #80]	; 0x50
 8006d72:	4b13      	ldr	r3, [pc, #76]	; (8006dc0 <__sinit+0x68>)
 8006d74:	4a13      	ldr	r2, [pc, #76]	; (8006dc4 <__sinit+0x6c>)
 8006d76:	681b      	ldr	r3, [r3, #0]
 8006d78:	62a2      	str	r2, [r4, #40]	; 0x28
 8006d7a:	42a3      	cmp	r3, r4
 8006d7c:	bf04      	itt	eq
 8006d7e:	2301      	moveq	r3, #1
 8006d80:	61a3      	streq	r3, [r4, #24]
 8006d82:	4620      	mov	r0, r4
 8006d84:	f000 f820 	bl	8006dc8 <__sfp>
 8006d88:	6060      	str	r0, [r4, #4]
 8006d8a:	4620      	mov	r0, r4
 8006d8c:	f000 f81c 	bl	8006dc8 <__sfp>
 8006d90:	60a0      	str	r0, [r4, #8]
 8006d92:	4620      	mov	r0, r4
 8006d94:	f000 f818 	bl	8006dc8 <__sfp>
 8006d98:	2200      	movs	r2, #0
 8006d9a:	60e0      	str	r0, [r4, #12]
 8006d9c:	2104      	movs	r1, #4
 8006d9e:	6860      	ldr	r0, [r4, #4]
 8006da0:	f7ff ff82 	bl	8006ca8 <std>
 8006da4:	68a0      	ldr	r0, [r4, #8]
 8006da6:	2201      	movs	r2, #1
 8006da8:	2109      	movs	r1, #9
 8006daa:	f7ff ff7d 	bl	8006ca8 <std>
 8006dae:	68e0      	ldr	r0, [r4, #12]
 8006db0:	2202      	movs	r2, #2
 8006db2:	2112      	movs	r1, #18
 8006db4:	f7ff ff78 	bl	8006ca8 <std>
 8006db8:	2301      	movs	r3, #1
 8006dba:	61a3      	str	r3, [r4, #24]
 8006dbc:	e7d2      	b.n	8006d64 <__sinit+0xc>
 8006dbe:	bf00      	nop
 8006dc0:	08008254 	.word	0x08008254
 8006dc4:	08006cf1 	.word	0x08006cf1

08006dc8 <__sfp>:
 8006dc8:	b5f8      	push	{r3, r4, r5, r6, r7, lr}
 8006dca:	4607      	mov	r7, r0
 8006dcc:	f7ff ffac 	bl	8006d28 <__sfp_lock_acquire>
 8006dd0:	4b1e      	ldr	r3, [pc, #120]	; (8006e4c <__sfp+0x84>)
 8006dd2:	681e      	ldr	r6, [r3, #0]
 8006dd4:	69b3      	ldr	r3, [r6, #24]
 8006dd6:	b913      	cbnz	r3, 8006dde <__sfp+0x16>
 8006dd8:	4630      	mov	r0, r6
 8006dda:	f7ff ffbd 	bl	8006d58 <__sinit>
 8006dde:	3648      	adds	r6, #72	; 0x48
 8006de0:	e9d6 3401 	ldrd	r3, r4, [r6, #4]
 8006de4:	3b01      	subs	r3, #1
 8006de6:	d503      	bpl.n	8006df0 <__sfp+0x28>
 8006de8:	6833      	ldr	r3, [r6, #0]
 8006dea:	b30b      	cbz	r3, 8006e30 <__sfp+0x68>
 8006dec:	6836      	ldr	r6, [r6, #0]
 8006dee:	e7f7      	b.n	8006de0 <__sfp+0x18>
 8006df0:	f9b4 500c 	ldrsh.w	r5, [r4, #12]
 8006df4:	b9d5      	cbnz	r5, 8006e2c <__sfp+0x64>
 8006df6:	4b16      	ldr	r3, [pc, #88]	; (8006e50 <__sfp+0x88>)
 8006df8:	60e3      	str	r3, [r4, #12]
 8006dfa:	f104 0058 	add.w	r0, r4, #88	; 0x58
 8006dfe:	6665      	str	r5, [r4, #100]	; 0x64
 8006e00:	f000 f84c 	bl	8006e9c <__retarget_lock_init_recursive>
 8006e04:	f7ff ff96 	bl	8006d34 <__sfp_lock_release>
 8006e08:	e9c4 5501 	strd	r5, r5, [r4, #4]
 8006e0c:	e9c4 5504 	strd	r5, r5, [r4, #16]
 8006e10:	6025      	str	r5, [r4, #0]
 8006e12:	61a5      	str	r5, [r4, #24]
 8006e14:	2208      	movs	r2, #8
 8006e16:	4629      	mov	r1, r5
 8006e18:	f104 005c 	add.w	r0, r4, #92	; 0x5c
 8006e1c:	f7fe f94e 	bl	80050bc <memset>
 8006e20:	e9c4 550d 	strd	r5, r5, [r4, #52]	; 0x34
 8006e24:	e9c4 5512 	strd	r5, r5, [r4, #72]	; 0x48
 8006e28:	4620      	mov	r0, r4
 8006e2a:	bdf8      	pop	{r3, r4, r5, r6, r7, pc}
 8006e2c:	3468      	adds	r4, #104	; 0x68
 8006e2e:	e7d9      	b.n	8006de4 <__sfp+0x1c>
 8006e30:	2104      	movs	r1, #4
 8006e32:	4638      	mov	r0, r7
 8006e34:	f7ff ff62 	bl	8006cfc <__sfmoreglue>
 8006e38:	4604      	mov	r4, r0
 8006e3a:	6030      	str	r0, [r6, #0]
 8006e3c:	2800      	cmp	r0, #0
 8006e3e:	d1d5      	bne.n	8006dec <__sfp+0x24>
 8006e40:	f7ff ff78 	bl	8006d34 <__sfp_lock_release>
 8006e44:	230c      	movs	r3, #12
 8006e46:	603b      	str	r3, [r7, #0]
 8006e48:	e7ee      	b.n	8006e28 <__sfp+0x60>
 8006e4a:	bf00      	nop
 8006e4c:	08008254 	.word	0x08008254
 8006e50:	ffff0001 	.word	0xffff0001

08006e54 <_fwalk_reent>:
 8006e54:	e92d 43f8 	stmdb	sp!, {r3, r4, r5, r6, r7, r8, r9, lr}
 8006e58:	4606      	mov	r6, r0
 8006e5a:	4688      	mov	r8, r1
 8006e5c:	f100 0448 	add.w	r4, r0, #72	; 0x48
 8006e60:	2700      	movs	r7, #0
 8006e62:	e9d4 9501 	ldrd	r9, r5, [r4, #4]
 8006e66:	f1b9 0901 	subs.w	r9, r9, #1
 8006e6a:	d505      	bpl.n	8006e78 <_fwalk_reent+0x24>
 8006e6c:	6824      	ldr	r4, [r4, #0]
 8006e6e:	2c00      	cmp	r4, #0
 8006e70:	d1f7      	bne.n	8006e62 <_fwalk_reent+0xe>
 8006e72:	4638      	mov	r0, r7
 8006e74:	e8bd 83f8 	ldmia.w	sp!, {r3, r4, r5, r6, r7, r8, r9, pc}
 8006e78:	89ab      	ldrh	r3, [r5, #12]
 8006e7a:	2b01      	cmp	r3, #1
 8006e7c:	d907      	bls.n	8006e8e <_fwalk_reent+0x3a>
 8006e7e:	f9b5 300e 	ldrsh.w	r3, [r5, #14]
 8006e82:	3301      	adds	r3, #1
 8006e84:	d003      	beq.n	8006e8e <_fwalk_reent+0x3a>
 8006e86:	4629      	mov	r1, r5
 8006e88:	4630      	mov	r0, r6
 8006e8a:	47c0      	blx	r8
 8006e8c:	4307      	orrs	r7, r0
 8006e8e:	3568      	adds	r5, #104	; 0x68
 8006e90:	e7e9      	b.n	8006e66 <_fwalk_reent+0x12>
	...

08006e94 <_localeconv_r>:
 8006e94:	4800      	ldr	r0, [pc, #0]	; (8006e98 <_localeconv_r+0x4>)
 8006e96:	4770      	bx	lr
 8006e98:	200001ec 	.word	0x200001ec

08006e9c <__retarget_lock_init_recursive>:
 8006e9c:	4770      	bx	lr

08006e9e <__retarget_lock_acquire_recursive>:
 8006e9e:	4770      	bx	lr

08006ea0 <__retarget_lock_release_recursive>:
 8006ea0:	4770      	bx	lr

08006ea2 <__swhatbuf_r>:
 8006ea2:	b570      	push	{r4, r5, r6, lr}
 8006ea4:	460e      	mov	r6, r1
 8006ea6:	f9b1 100e 	ldrsh.w	r1, [r1, #14]
 8006eaa:	2900      	cmp	r1, #0
 8006eac:	b096      	sub	sp, #88	; 0x58
 8006eae:	4614      	mov	r4, r2
 8006eb0:	461d      	mov	r5, r3
 8006eb2:	da08      	bge.n	8006ec6 <__swhatbuf_r+0x24>
 8006eb4:	f9b6 300c 	ldrsh.w	r3, [r6, #12]
 8006eb8:	2200      	movs	r2, #0
 8006eba:	602a      	str	r2, [r5, #0]
 8006ebc:	061a      	lsls	r2, r3, #24
 8006ebe:	d410      	bmi.n	8006ee2 <__swhatbuf_r+0x40>
 8006ec0:	f44f 6380 	mov.w	r3, #1024	; 0x400
 8006ec4:	e00e      	b.n	8006ee4 <__swhatbuf_r+0x42>
 8006ec6:	466a      	mov	r2, sp
 8006ec8:	f000 ff30 	bl	8007d2c <_fstat_r>
 8006ecc:	2800      	cmp	r0, #0
 8006ece:	dbf1      	blt.n	8006eb4 <__swhatbuf_r+0x12>
 8006ed0:	9a01      	ldr	r2, [sp, #4]
 8006ed2:	f402 4270 	and.w	r2, r2, #61440	; 0xf000
 8006ed6:	f5a2 5300 	sub.w	r3, r2, #8192	; 0x2000
 8006eda:	425a      	negs	r2, r3
 8006edc:	415a      	adcs	r2, r3
 8006ede:	602a      	str	r2, [r5, #0]
 8006ee0:	e7ee      	b.n	8006ec0 <__swhatbuf_r+0x1e>
 8006ee2:	2340      	movs	r3, #64	; 0x40
 8006ee4:	2000      	movs	r0, #0
 8006ee6:	6023      	str	r3, [r4, #0]
 8006ee8:	b016      	add	sp, #88	; 0x58
 8006eea:	bd70      	pop	{r4, r5, r6, pc}

08006eec <__smakebuf_r>:
 8006eec:	898b      	ldrh	r3, [r1, #12]
 8006eee:	b573      	push	{r0, r1, r4, r5, r6, lr}
 8006ef0:	079d      	lsls	r5, r3, #30
 8006ef2:	4606      	mov	r6, r0
 8006ef4:	460c      	mov	r4, r1
 8006ef6:	d507      	bpl.n	8006f08 <__smakebuf_r+0x1c>
 8006ef8:	f104 0347 	add.w	r3, r4, #71	; 0x47
 8006efc:	6023      	str	r3, [r4, #0]
 8006efe:	6123      	str	r3, [r4, #16]
 8006f00:	2301      	movs	r3, #1
 8006f02:	6163      	str	r3, [r4, #20]
 8006f04:	b002      	add	sp, #8
 8006f06:	bd70      	pop	{r4, r5, r6, pc}
 8006f08:	ab01      	add	r3, sp, #4
 8006f0a:	466a      	mov	r2, sp
 8006f0c:	f7ff ffc9 	bl	8006ea2 <__swhatbuf_r>
 8006f10:	9900      	ldr	r1, [sp, #0]
 8006f12:	4605      	mov	r5, r0
 8006f14:	4630      	mov	r0, r6
 8006f16:	f000 fc51 	bl	80077bc <_malloc_r>
 8006f1a:	b948      	cbnz	r0, 8006f30 <__smakebuf_r+0x44>
 8006f1c:	f9b4 300c 	ldrsh.w	r3, [r4, #12]
 8006f20:	059a      	lsls	r2, r3, #22
 8006f22:	d4ef      	bmi.n	8006f04 <__smakebuf_r+0x18>
 8006f24:	f023 0303 	bic.w	r3, r3, #3
 8006f28:	f043 0302 	orr.w	r3, r3, #2
 8006f2c:	81a3      	strh	r3, [r4, #12]
 8006f2e:	e7e3      	b.n	8006ef8 <__smakebuf_r+0xc>
 8006f30:	4b0d      	ldr	r3, [pc, #52]	; (8006f68 <__smakebuf_r+0x7c>)
 8006f32:	62b3      	str	r3, [r6, #40]	; 0x28
 8006f34:	89a3      	ldrh	r3, [r4, #12]
 8006f36:	6020      	str	r0, [r4, #0]
 8006f38:	f043 0380 	orr.w	r3, r3, #128	; 0x80
 8006f3c:	81a3      	strh	r3, [r4, #12]
 8006f3e:	9b00      	ldr	r3, [sp, #0]
 8006f40:	6163      	str	r3, [r4, #20]
 8006f42:	9b01      	ldr	r3, [sp, #4]
 8006f44:	6120      	str	r0, [r4, #16]
 8006f46:	b15b      	cbz	r3, 8006f60 <__smakebuf_r+0x74>
 8006f48:	f9b4 100e 	ldrsh.w	r1, [r4, #14]
 8006f4c:	4630      	mov	r0, r6
 8006f4e:	f000 feff 	bl	8007d50 <_isatty_r>
 8006f52:	b128      	cbz	r0, 8006f60 <__smakebuf_r+0x74>
 8006f54:	89a3      	ldrh	r3, [r4, #12]
 8006f56:	f023 0303 	bic.w	r3, r3, #3
 8006f5a:	f043 0301 	orr.w	r3, r3, #1
 8006f5e:	81a3      	strh	r3, [r4, #12]
 8006f60:	89a0      	ldrh	r0, [r4, #12]
 8006f62:	4305      	orrs	r5, r0
 8006f64:	81a5      	strh	r5, [r4, #12]
 8006f66:	e7cd      	b.n	8006f04 <__smakebuf_r+0x18>
 8006f68:	08006cf1 	.word	0x08006cf1

08006f6c <malloc>:
 8006f6c:	4b02      	ldr	r3, [pc, #8]	; (8006f78 <malloc+0xc>)
 8006f6e:	4601      	mov	r1, r0
 8006f70:	6818      	ldr	r0, [r3, #0]
 8006f72:	f000 bc23 	b.w	80077bc <_malloc_r>
 8006f76:	bf00      	nop
 8006f78:	20000098 	.word	0x20000098

08006f7c <memmove>:
 8006f7c:	4288      	cmp	r0, r1
 8006f7e:	b510      	push	{r4, lr}
 8006f80:	eb01 0402 	add.w	r4, r1, r2
 8006f84:	d902      	bls.n	8006f8c <memmove+0x10>
 8006f86:	4284      	cmp	r4, r0
 8006f88:	4623      	mov	r3, r4
 8006f8a:	d807      	bhi.n	8006f9c <memmove+0x20>
 8006f8c:	1e43      	subs	r3, r0, #1
 8006f8e:	42a1      	cmp	r1, r4
 8006f90:	d008      	beq.n	8006fa4 <memmove+0x28>
 8006f92:	f811 2b01 	ldrb.w	r2, [r1], #1
 8006f96:	f803 2f01 	strb.w	r2, [r3, #1]!
 8006f9a:	e7f8      	b.n	8006f8e <memmove+0x12>
 8006f9c:	4402      	add	r2, r0
 8006f9e:	4601      	mov	r1, r0
 8006fa0:	428a      	cmp	r2, r1
 8006fa2:	d100      	bne.n	8006fa6 <memmove+0x2a>
 8006fa4:	bd10      	pop	{r4, pc}
 8006fa6:	f813 4d01 	ldrb.w	r4, [r3, #-1]!
 8006faa:	f802 4d01 	strb.w	r4, [r2, #-1]!
 8006fae:	e7f7      	b.n	8006fa0 <memmove+0x24>

08006fb0 <_Balloc>:
 8006fb0:	b570      	push	{r4, r5, r6, lr}
 8006fb2:	6a46      	ldr	r6, [r0, #36]	; 0x24
 8006fb4:	4604      	mov	r4, r0
 8006fb6:	460d      	mov	r5, r1
 8006fb8:	b976      	cbnz	r6, 8006fd8 <_Balloc+0x28>
 8006fba:	2010      	movs	r0, #16
 8006fbc:	f7ff ffd6 	bl	8006f6c <malloc>
 8006fc0:	4602      	mov	r2, r0
 8006fc2:	6260      	str	r0, [r4, #36]	; 0x24
 8006fc4:	b920      	cbnz	r0, 8006fd0 <_Balloc+0x20>
 8006fc6:	4b18      	ldr	r3, [pc, #96]	; (8007028 <_Balloc+0x78>)
 8006fc8:	4818      	ldr	r0, [pc, #96]	; (800702c <_Balloc+0x7c>)
 8006fca:	2166      	movs	r1, #102	; 0x66
 8006fcc:	f7fe f80e 	bl	8004fec <__assert_func>
 8006fd0:	e9c0 6601 	strd	r6, r6, [r0, #4]
 8006fd4:	6006      	str	r6, [r0, #0]
 8006fd6:	60c6      	str	r6, [r0, #12]
 8006fd8:	6a66      	ldr	r6, [r4, #36]	; 0x24
 8006fda:	68f3      	ldr	r3, [r6, #12]
 8006fdc:	b183      	cbz	r3, 8007000 <_Balloc+0x50>
 8006fde:	6a63      	ldr	r3, [r4, #36]	; 0x24
 8006fe0:	68db      	ldr	r3, [r3, #12]
 8006fe2:	f853 0025 	ldr.w	r0, [r3, r5, lsl #2]
 8006fe6:	b9b8      	cbnz	r0, 8007018 <_Balloc+0x68>
 8006fe8:	2101      	movs	r1, #1
 8006fea:	fa01 f605 	lsl.w	r6, r1, r5
 8006fee:	1d72      	adds	r2, r6, #5
 8006ff0:	0092      	lsls	r2, r2, #2
 8006ff2:	4620      	mov	r0, r4
 8006ff4:	f000 fb60 	bl	80076b8 <_calloc_r>
 8006ff8:	b160      	cbz	r0, 8007014 <_Balloc+0x64>
 8006ffa:	e9c0 5601 	strd	r5, r6, [r0, #4]
 8006ffe:	e00e      	b.n	800701e <_Balloc+0x6e>
 8007000:	2221      	movs	r2, #33	; 0x21
 8007002:	2104      	movs	r1, #4
 8007004:	4620      	mov	r0, r4
 8007006:	f000 fb57 	bl	80076b8 <_calloc_r>
 800700a:	6a63      	ldr	r3, [r4, #36]	; 0x24
 800700c:	60f0      	str	r0, [r6, #12]
 800700e:	68db      	ldr	r3, [r3, #12]
 8007010:	2b00      	cmp	r3, #0
 8007012:	d1e4      	bne.n	8006fde <_Balloc+0x2e>
 8007014:	2000      	movs	r0, #0
 8007016:	bd70      	pop	{r4, r5, r6, pc}
 8007018:	6802      	ldr	r2, [r0, #0]
 800701a:	f843 2025 	str.w	r2, [r3, r5, lsl #2]
 800701e:	2300      	movs	r3, #0
 8007020:	e9c0 3303 	strd	r3, r3, [r0, #12]
 8007024:	e7f7      	b.n	8007016 <_Balloc+0x66>
 8007026:	bf00      	nop
 8007028:	080082aa 	.word	0x080082aa
 800702c:	08008390 	.word	0x08008390

08007030 <_Bfree>:
 8007030:	b570      	push	{r4, r5, r6, lr}
 8007032:	6a46      	ldr	r6, [r0, #36]	; 0x24
 8007034:	4605      	mov	r5, r0
 8007036:	460c      	mov	r4, r1
 8007038:	b976      	cbnz	r6, 8007058 <_Bfree+0x28>
 800703a:	2010      	movs	r0, #16
 800703c:	f7ff ff96 	bl	8006f6c <malloc>
 8007040:	4602      	mov	r2, r0
 8007042:	6268      	str	r0, [r5, #36]	; 0x24
 8007044:	b920      	cbnz	r0, 8007050 <_Bfree+0x20>
 8007046:	4b09      	ldr	r3, [pc, #36]	; (800706c <_Bfree+0x3c>)
 8007048:	4809      	ldr	r0, [pc, #36]	; (8007070 <_Bfree+0x40>)
 800704a:	218a      	movs	r1, #138	; 0x8a
 800704c:	f7fd ffce 	bl	8004fec <__assert_func>
 8007050:	e9c0 6601 	strd	r6, r6, [r0, #4]
 8007054:	6006      	str	r6, [r0, #0]
 8007056:	60c6      	str	r6, [r0, #12]
 8007058:	b13c      	cbz	r4, 800706a <_Bfree+0x3a>
 800705a:	6a6b      	ldr	r3, [r5, #36]	; 0x24
 800705c:	6862      	ldr	r2, [r4, #4]
 800705e:	68db      	ldr	r3, [r3, #12]
 8007060:	f853 1022 	ldr.w	r1, [r3, r2, lsl #2]
 8007064:	6021      	str	r1, [r4, #0]
 8007066:	f843 4022 	str.w	r4, [r3, r2, lsl #2]
 800706a:	bd70      	pop	{r4, r5, r6, pc}
 800706c:	080082aa 	.word	0x080082aa
 8007070:	08008390 	.word	0x08008390

08007074 <__multadd>:
 8007074:	e92d 41f0 	stmdb	sp!, {r4, r5, r6, r7, r8, lr}
 8007078:	690d      	ldr	r5, [r1, #16]
 800707a:	4607      	mov	r7, r0
 800707c:	460c      	mov	r4, r1
 800707e:	461e      	mov	r6, r3
 8007080:	f101 0c14 	add.w	ip, r1, #20
 8007084:	2000      	movs	r0, #0
 8007086:	f8dc 3000 	ldr.w	r3, [ip]
 800708a:	b299      	uxth	r1, r3
 800708c:	fb02 6101 	mla	r1, r2, r1, r6
 8007090:	0c1e      	lsrs	r6, r3, #16
 8007092:	0c0b      	lsrs	r3, r1, #16
 8007094:	fb02 3306 	mla	r3, r2, r6, r3
 8007098:	b289      	uxth	r1, r1
 800709a:	3001      	adds	r0, #1
 800709c:	eb01 4103 	add.w	r1, r1, r3, lsl #16
 80070a0:	4285      	cmp	r5, r0
 80070a2:	f84c 1b04 	str.w	r1, [ip], #4
 80070a6:	ea4f 4613 	mov.w	r6, r3, lsr #16
 80070aa:	dcec      	bgt.n	8007086 <__multadd+0x12>
 80070ac:	b30e      	cbz	r6, 80070f2 <__multadd+0x7e>
 80070ae:	68a3      	ldr	r3, [r4, #8]
 80070b0:	42ab      	cmp	r3, r5
 80070b2:	dc19      	bgt.n	80070e8 <__multadd+0x74>
 80070b4:	6861      	ldr	r1, [r4, #4]
 80070b6:	4638      	mov	r0, r7
 80070b8:	3101      	adds	r1, #1
 80070ba:	f7ff ff79 	bl	8006fb0 <_Balloc>
 80070be:	4680      	mov	r8, r0
 80070c0:	b928      	cbnz	r0, 80070ce <__multadd+0x5a>
 80070c2:	4602      	mov	r2, r0
 80070c4:	4b0c      	ldr	r3, [pc, #48]	; (80070f8 <__multadd+0x84>)
 80070c6:	480d      	ldr	r0, [pc, #52]	; (80070fc <__multadd+0x88>)
 80070c8:	21b5      	movs	r1, #181	; 0xb5
 80070ca:	f7fd ff8f 	bl	8004fec <__assert_func>
 80070ce:	6922      	ldr	r2, [r4, #16]
 80070d0:	3202      	adds	r2, #2
 80070d2:	f104 010c 	add.w	r1, r4, #12
 80070d6:	0092      	lsls	r2, r2, #2
 80070d8:	300c      	adds	r0, #12
 80070da:	f7fd ffe1 	bl	80050a0 <memcpy>
 80070de:	4621      	mov	r1, r4
 80070e0:	4638      	mov	r0, r7
 80070e2:	f7ff ffa5 	bl	8007030 <_Bfree>
 80070e6:	4644      	mov	r4, r8
 80070e8:	eb04 0385 	add.w	r3, r4, r5, lsl #2
 80070ec:	3501      	adds	r5, #1
 80070ee:	615e      	str	r6, [r3, #20]
 80070f0:	6125      	str	r5, [r4, #16]
 80070f2:	4620      	mov	r0, r4
 80070f4:	e8bd 81f0 	ldmia.w	sp!, {r4, r5, r6, r7, r8, pc}
 80070f8:	0800831c 	.word	0x0800831c
 80070fc:	08008390 	.word	0x08008390

08007100 <__hi0bits>:
 8007100:	0c03      	lsrs	r3, r0, #16
 8007102:	041b      	lsls	r3, r3, #16
 8007104:	b9d3      	cbnz	r3, 800713c <__hi0bits+0x3c>
 8007106:	0400      	lsls	r0, r0, #16
 8007108:	2310      	movs	r3, #16
 800710a:	f010 4f7f 	tst.w	r0, #4278190080	; 0xff000000
 800710e:	bf04      	itt	eq
 8007110:	0200      	lsleq	r0, r0, #8
 8007112:	3308      	addeq	r3, #8
 8007114:	f010 4f70 	tst.w	r0, #4026531840	; 0xf0000000
 8007118:	bf04      	itt	eq
 800711a:	0100      	lsleq	r0, r0, #4
 800711c:	3304      	addeq	r3, #4
 800711e:	f010 4f40 	tst.w	r0, #3221225472	; 0xc0000000
 8007122:	bf04      	itt	eq
 8007124:	0080      	lsleq	r0, r0, #2
 8007126:	3302      	addeq	r3, #2
 8007128:	2800      	cmp	r0, #0
 800712a:	db05      	blt.n	8007138 <__hi0bits+0x38>
 800712c:	f010 4f80 	tst.w	r0, #1073741824	; 0x40000000
 8007130:	f103 0301 	add.w	r3, r3, #1
 8007134:	bf08      	it	eq
 8007136:	2320      	moveq	r3, #32
 8007138:	4618      	mov	r0, r3
 800713a:	4770      	bx	lr
 800713c:	2300      	movs	r3, #0
 800713e:	e7e4      	b.n	800710a <__hi0bits+0xa>

08007140 <__lo0bits>:
 8007140:	6803      	ldr	r3, [r0, #0]
 8007142:	f013 0207 	ands.w	r2, r3, #7
 8007146:	4601      	mov	r1, r0
 8007148:	d00b      	beq.n	8007162 <__lo0bits+0x22>
 800714a:	07da      	lsls	r2, r3, #31
 800714c:	d423      	bmi.n	8007196 <__lo0bits+0x56>
 800714e:	0798      	lsls	r0, r3, #30
 8007150:	bf49      	itett	mi
 8007152:	085b      	lsrmi	r3, r3, #1
 8007154:	089b      	lsrpl	r3, r3, #2
 8007156:	2001      	movmi	r0, #1
 8007158:	600b      	strmi	r3, [r1, #0]
 800715a:	bf5c      	itt	pl
 800715c:	600b      	strpl	r3, [r1, #0]
 800715e:	2002      	movpl	r0, #2
 8007160:	4770      	bx	lr
 8007162:	b298      	uxth	r0, r3
 8007164:	b9a8      	cbnz	r0, 8007192 <__lo0bits+0x52>
 8007166:	0c1b      	lsrs	r3, r3, #16
 8007168:	2010      	movs	r0, #16
 800716a:	b2da      	uxtb	r2, r3
 800716c:	b90a      	cbnz	r2, 8007172 <__lo0bits+0x32>
 800716e:	3008      	adds	r0, #8
 8007170:	0a1b      	lsrs	r3, r3, #8
 8007172:	071a      	lsls	r2, r3, #28
 8007174:	bf04      	itt	eq
 8007176:	091b      	lsreq	r3, r3, #4
 8007178:	3004      	addeq	r0, #4
 800717a:	079a      	lsls	r2, r3, #30
 800717c:	bf04      	itt	eq
 800717e:	089b      	lsreq	r3, r3, #2
 8007180:	3002      	addeq	r0, #2
 8007182:	07da      	lsls	r2, r3, #31
 8007184:	d403      	bmi.n	800718e <__lo0bits+0x4e>
 8007186:	085b      	lsrs	r3, r3, #1
 8007188:	f100 0001 	add.w	r0, r0, #1
 800718c:	d005      	beq.n	800719a <__lo0bits+0x5a>
 800718e:	600b      	str	r3, [r1, #0]
 8007190:	4770      	bx	lr
 8007192:	4610      	mov	r0, r2
 8007194:	e7e9      	b.n	800716a <__lo0bits+0x2a>
 8007196:	2000      	movs	r0, #0
 8007198:	4770      	bx	lr
 800719a:	2020      	movs	r0, #32
 800719c:	4770      	bx	lr
	...

080071a0 <__i2b>:
 80071a0:	b510      	push	{r4, lr}
 80071a2:	460c      	mov	r4, r1
 80071a4:	2101      	movs	r1, #1
 80071a6:	f7ff ff03 	bl	8006fb0 <_Balloc>
 80071aa:	4602      	mov	r2, r0
 80071ac:	b928      	cbnz	r0, 80071ba <__i2b+0x1a>
 80071ae:	4b05      	ldr	r3, [pc, #20]	; (80071c4 <__i2b+0x24>)
 80071b0:	4805      	ldr	r0, [pc, #20]	; (80071c8 <__i2b+0x28>)
 80071b2:	f44f 71a0 	mov.w	r1, #320	; 0x140
 80071b6:	f7fd ff19 	bl	8004fec <__assert_func>
 80071ba:	2301      	movs	r3, #1
 80071bc:	6144      	str	r4, [r0, #20]
 80071be:	6103      	str	r3, [r0, #16]
 80071c0:	bd10      	pop	{r4, pc}
 80071c2:	bf00      	nop
 80071c4:	0800831c 	.word	0x0800831c
 80071c8:	08008390 	.word	0x08008390

080071cc <__multiply>:
 80071cc:	e92d 4ff0 	stmdb	sp!, {r4, r5, r6, r7, r8, r9, sl, fp, lr}
 80071d0:	4691      	mov	r9, r2
 80071d2:	690a      	ldr	r2, [r1, #16]
 80071d4:	f8d9 3010 	ldr.w	r3, [r9, #16]
 80071d8:	429a      	cmp	r2, r3
 80071da:	bfb8      	it	lt
 80071dc:	460b      	movlt	r3, r1
 80071de:	460c      	mov	r4, r1
 80071e0:	bfbc      	itt	lt
 80071e2:	464c      	movlt	r4, r9
 80071e4:	4699      	movlt	r9, r3
 80071e6:	6927      	ldr	r7, [r4, #16]
 80071e8:	f8d9 a010 	ldr.w	sl, [r9, #16]
 80071ec:	68a3      	ldr	r3, [r4, #8]
 80071ee:	6861      	ldr	r1, [r4, #4]
 80071f0:	eb07 060a 	add.w	r6, r7, sl
 80071f4:	42b3      	cmp	r3, r6
 80071f6:	b085      	sub	sp, #20
 80071f8:	bfb8      	it	lt
 80071fa:	3101      	addlt	r1, #1
 80071fc:	f7ff fed8 	bl	8006fb0 <_Balloc>
 8007200:	b930      	cbnz	r0, 8007210 <__multiply+0x44>
 8007202:	4602      	mov	r2, r0
 8007204:	4b44      	ldr	r3, [pc, #272]	; (8007318 <__multiply+0x14c>)
 8007206:	4845      	ldr	r0, [pc, #276]	; (800731c <__multiply+0x150>)
 8007208:	f240 115d 	movw	r1, #349	; 0x15d
 800720c:	f7fd feee 	bl	8004fec <__assert_func>
 8007210:	f100 0514 	add.w	r5, r0, #20
 8007214:	eb05 0886 	add.w	r8, r5, r6, lsl #2
 8007218:	462b      	mov	r3, r5
 800721a:	2200      	movs	r2, #0
 800721c:	4543      	cmp	r3, r8
 800721e:	d321      	bcc.n	8007264 <__multiply+0x98>
 8007220:	f104 0314 	add.w	r3, r4, #20
 8007224:	eb03 0787 	add.w	r7, r3, r7, lsl #2
 8007228:	f109 0314 	add.w	r3, r9, #20
 800722c:	eb03 028a 	add.w	r2, r3, sl, lsl #2
 8007230:	9202      	str	r2, [sp, #8]
 8007232:	1b3a      	subs	r2, r7, r4
 8007234:	3a15      	subs	r2, #21
 8007236:	f022 0203 	bic.w	r2, r2, #3
 800723a:	3204      	adds	r2, #4
 800723c:	f104 0115 	add.w	r1, r4, #21
 8007240:	428f      	cmp	r7, r1
 8007242:	bf38      	it	cc
 8007244:	2204      	movcc	r2, #4
 8007246:	9201      	str	r2, [sp, #4]
 8007248:	9a02      	ldr	r2, [sp, #8]
 800724a:	9303      	str	r3, [sp, #12]
 800724c:	429a      	cmp	r2, r3
 800724e:	d80c      	bhi.n	800726a <__multiply+0x9e>
 8007250:	2e00      	cmp	r6, #0
 8007252:	dd03      	ble.n	800725c <__multiply+0x90>
 8007254:	f858 3d04 	ldr.w	r3, [r8, #-4]!
 8007258:	2b00      	cmp	r3, #0
 800725a:	d05a      	beq.n	8007312 <__multiply+0x146>
 800725c:	6106      	str	r6, [r0, #16]
 800725e:	b005      	add	sp, #20
 8007260:	e8bd 8ff0 	ldmia.w	sp!, {r4, r5, r6, r7, r8, r9, sl, fp, pc}
 8007264:	f843 2b04 	str.w	r2, [r3], #4
 8007268:	e7d8      	b.n	800721c <__multiply+0x50>
 800726a:	f8b3 a000 	ldrh.w	sl, [r3]
 800726e:	f1ba 0f00 	cmp.w	sl, #0
 8007272:	d024      	beq.n	80072be <__multiply+0xf2>
 8007274:	f104 0e14 	add.w	lr, r4, #20
 8007278:	46a9      	mov	r9, r5
 800727a:	f04f 0c00 	mov.w	ip, #0
 800727e:	f85e 2b04 	ldr.w	r2, [lr], #4
 8007282:	f8d9 1000 	ldr.w	r1, [r9]
 8007286:	fa1f fb82 	uxth.w	fp, r2
 800728a:	b289      	uxth	r1, r1
 800728c:	fb0a 110b 	mla	r1, sl, fp, r1
 8007290:	ea4f 4b12 	mov.w	fp, r2, lsr #16
 8007294:	f8d9 2000 	ldr.w	r2, [r9]
 8007298:	4461      	add	r1, ip
 800729a:	ea4f 4c12 	mov.w	ip, r2, lsr #16
 800729e:	fb0a c20b 	mla	r2, sl, fp, ip
 80072a2:	eb02 4211 	add.w	r2, r2, r1, lsr #16
 80072a6:	b289      	uxth	r1, r1
 80072a8:	ea41 4102 	orr.w	r1, r1, r2, lsl #16
 80072ac:	4577      	cmp	r7, lr
 80072ae:	f849 1b04 	str.w	r1, [r9], #4
 80072b2:	ea4f 4c12 	mov.w	ip, r2, lsr #16
 80072b6:	d8e2      	bhi.n	800727e <__multiply+0xb2>
 80072b8:	9a01      	ldr	r2, [sp, #4]
 80072ba:	f845 c002 	str.w	ip, [r5, r2]
 80072be:	9a03      	ldr	r2, [sp, #12]
 80072c0:	f8b2 9002 	ldrh.w	r9, [r2, #2]
 80072c4:	3304      	adds	r3, #4
 80072c6:	f1b9 0f00 	cmp.w	r9, #0
 80072ca:	d020      	beq.n	800730e <__multiply+0x142>
 80072cc:	6829      	ldr	r1, [r5, #0]
 80072ce:	f104 0c14 	add.w	ip, r4, #20
 80072d2:	46ae      	mov	lr, r5
 80072d4:	f04f 0a00 	mov.w	sl, #0
 80072d8:	f8bc b000 	ldrh.w	fp, [ip]
 80072dc:	f8be 2002 	ldrh.w	r2, [lr, #2]
 80072e0:	fb09 220b 	mla	r2, r9, fp, r2
 80072e4:	4492      	add	sl, r2
 80072e6:	b289      	uxth	r1, r1
 80072e8:	ea41 410a 	orr.w	r1, r1, sl, lsl #16
 80072ec:	f84e 1b04 	str.w	r1, [lr], #4
 80072f0:	f85c 2b04 	ldr.w	r2, [ip], #4
 80072f4:	f8be 1000 	ldrh.w	r1, [lr]
 80072f8:	0c12      	lsrs	r2, r2, #16
 80072fa:	fb09 1102 	mla	r1, r9, r2, r1
 80072fe:	eb01 411a 	add.w	r1, r1, sl, lsr #16
 8007302:	4567      	cmp	r7, ip
 8007304:	ea4f 4a11 	mov.w	sl, r1, lsr #16
 8007308:	d8e6      	bhi.n	80072d8 <__multiply+0x10c>
 800730a:	9a01      	ldr	r2, [sp, #4]
 800730c:	50a9      	str	r1, [r5, r2]
 800730e:	3504      	adds	r5, #4
 8007310:	e79a      	b.n	8007248 <__multiply+0x7c>
 8007312:	3e01      	subs	r6, #1
 8007314:	e79c      	b.n	8007250 <__multiply+0x84>
 8007316:	bf00      	nop
 8007318:	0800831c 	.word	0x0800831c
 800731c:	08008390 	.word	0x08008390

08007320 <__pow5mult>:
 8007320:	e92d 43f8 	stmdb	sp!, {r3, r4, r5, r6, r7, r8, r9, lr}
 8007324:	4615      	mov	r5, r2
 8007326:	f012 0203 	ands.w	r2, r2, #3
 800732a:	4606      	mov	r6, r0
 800732c:	460f      	mov	r7, r1
 800732e:	d007      	beq.n	8007340 <__pow5mult+0x20>
 8007330:	4c25      	ldr	r4, [pc, #148]	; (80073c8 <__pow5mult+0xa8>)
 8007332:	3a01      	subs	r2, #1
 8007334:	2300      	movs	r3, #0
 8007336:	f854 2022 	ldr.w	r2, [r4, r2, lsl #2]
 800733a:	f7ff fe9b 	bl	8007074 <__multadd>
 800733e:	4607      	mov	r7, r0
 8007340:	10ad      	asrs	r5, r5, #2
 8007342:	d03d      	beq.n	80073c0 <__pow5mult+0xa0>
 8007344:	6a74      	ldr	r4, [r6, #36]	; 0x24
 8007346:	b97c      	cbnz	r4, 8007368 <__pow5mult+0x48>
 8007348:	2010      	movs	r0, #16
 800734a:	f7ff fe0f 	bl	8006f6c <malloc>
 800734e:	4602      	mov	r2, r0
 8007350:	6270      	str	r0, [r6, #36]	; 0x24
 8007352:	b928      	cbnz	r0, 8007360 <__pow5mult+0x40>
 8007354:	4b1d      	ldr	r3, [pc, #116]	; (80073cc <__pow5mult+0xac>)
 8007356:	481e      	ldr	r0, [pc, #120]	; (80073d0 <__pow5mult+0xb0>)
 8007358:	f44f 71d7 	mov.w	r1, #430	; 0x1ae
 800735c:	f7fd fe46 	bl	8004fec <__assert_func>
 8007360:	e9c0 4401 	strd	r4, r4, [r0, #4]
 8007364:	6004      	str	r4, [r0, #0]
 8007366:	60c4      	str	r4, [r0, #12]
 8007368:	f8d6 8024 	ldr.w	r8, [r6, #36]	; 0x24
 800736c:	f8d8 4008 	ldr.w	r4, [r8, #8]
 8007370:	b94c      	cbnz	r4, 8007386 <__pow5mult+0x66>
 8007372:	f240 2171 	movw	r1, #625	; 0x271
 8007376:	4630      	mov	r0, r6
 8007378:	f7ff ff12 	bl	80071a0 <__i2b>
 800737c:	2300      	movs	r3, #0
 800737e:	f8c8 0008 	str.w	r0, [r8, #8]
 8007382:	4604      	mov	r4, r0
 8007384:	6003      	str	r3, [r0, #0]
 8007386:	f04f 0900 	mov.w	r9, #0
 800738a:	07eb      	lsls	r3, r5, #31
 800738c:	d50a      	bpl.n	80073a4 <__pow5mult+0x84>
 800738e:	4639      	mov	r1, r7
 8007390:	4622      	mov	r2, r4
 8007392:	4630      	mov	r0, r6
 8007394:	f7ff ff1a 	bl	80071cc <__multiply>
 8007398:	4639      	mov	r1, r7
 800739a:	4680      	mov	r8, r0
 800739c:	4630      	mov	r0, r6
 800739e:	f7ff fe47 	bl	8007030 <_Bfree>
 80073a2:	4647      	mov	r7, r8
 80073a4:	106d      	asrs	r5, r5, #1
 80073a6:	d00b      	beq.n	80073c0 <__pow5mult+0xa0>
 80073a8:	6820      	ldr	r0, [r4, #0]
 80073aa:	b938      	cbnz	r0, 80073bc <__pow5mult+0x9c>
 80073ac:	4622      	mov	r2, r4
 80073ae:	4621      	mov	r1, r4
 80073b0:	4630      	mov	r0, r6
 80073b2:	f7ff ff0b 	bl	80071cc <__multiply>
 80073b6:	6020      	str	r0, [r4, #0]
 80073b8:	f8c0 9000 	str.w	r9, [r0]
 80073bc:	4604      	mov	r4, r0
 80073be:	e7e4      	b.n	800738a <__pow5mult+0x6a>
 80073c0:	4638      	mov	r0, r7
 80073c2:	e8bd 83f8 	ldmia.w	sp!, {r3, r4, r5, r6, r7, r8, r9, pc}
 80073c6:	bf00      	nop
 80073c8:	080084e0 	.word	0x080084e0
 80073cc:	080082aa 	.word	0x080082aa
 80073d0:	08008390 	.word	0x08008390

080073d4 <__lshift>:
 80073d4:	e92d 47f0 	stmdb	sp!, {r4, r5, r6, r7, r8, r9, sl, lr}
 80073d8:	460c      	mov	r4, r1
 80073da:	6849      	ldr	r1, [r1, #4]
 80073dc:	6923      	ldr	r3, [r4, #16]
 80073de:	eb03 1862 	add.w	r8, r3, r2, asr #5
 80073e2:	68a3      	ldr	r3, [r4, #8]
 80073e4:	4607      	mov	r7, r0
 80073e6:	4691      	mov	r9, r2
 80073e8:	ea4f 1a62 	mov.w	sl, r2, asr #5
 80073ec:	f108 0601 	add.w	r6, r8, #1
 80073f0:	42b3      	cmp	r3, r6
 80073f2:	db0b      	blt.n	800740c <__lshift+0x38>
 80073f4:	4638      	mov	r0, r7
 80073f6:	f7ff fddb 	bl	8006fb0 <_Balloc>
 80073fa:	4605      	mov	r5, r0
 80073fc:	b948      	cbnz	r0, 8007412 <__lshift+0x3e>
 80073fe:	4602      	mov	r2, r0
 8007400:	4b2a      	ldr	r3, [pc, #168]	; (80074ac <__lshift+0xd8>)
 8007402:	482b      	ldr	r0, [pc, #172]	; (80074b0 <__lshift+0xdc>)
 8007404:	f240 11d9 	movw	r1, #473	; 0x1d9
 8007408:	f7fd fdf0 	bl	8004fec <__assert_func>
 800740c:	3101      	adds	r1, #1
 800740e:	005b      	lsls	r3, r3, #1
 8007410:	e7ee      	b.n	80073f0 <__lshift+0x1c>
 8007412:	2300      	movs	r3, #0
 8007414:	f100 0114 	add.w	r1, r0, #20
 8007418:	f100 0210 	add.w	r2, r0, #16
 800741c:	4618      	mov	r0, r3
 800741e:	4553      	cmp	r3, sl
 8007420:	db37      	blt.n	8007492 <__lshift+0xbe>
 8007422:	6920      	ldr	r0, [r4, #16]
 8007424:	ea2a 7aea 	bic.w	sl, sl, sl, asr #31
 8007428:	f104 0314 	add.w	r3, r4, #20
 800742c:	f019 091f 	ands.w	r9, r9, #31
 8007430:	eb01 018a 	add.w	r1, r1, sl, lsl #2
 8007434:	eb03 0080 	add.w	r0, r3, r0, lsl #2
 8007438:	d02f      	beq.n	800749a <__lshift+0xc6>
 800743a:	f1c9 0e20 	rsb	lr, r9, #32
 800743e:	468a      	mov	sl, r1
 8007440:	f04f 0c00 	mov.w	ip, #0
 8007444:	681a      	ldr	r2, [r3, #0]
 8007446:	fa02 f209 	lsl.w	r2, r2, r9
 800744a:	ea42 020c 	orr.w	r2, r2, ip
 800744e:	f84a 2b04 	str.w	r2, [sl], #4
 8007452:	f853 2b04 	ldr.w	r2, [r3], #4
 8007456:	4298      	cmp	r0, r3
 8007458:	fa22 fc0e 	lsr.w	ip, r2, lr
 800745c:	d8f2      	bhi.n	8007444 <__lshift+0x70>
 800745e:	1b03      	subs	r3, r0, r4
 8007460:	3b15      	subs	r3, #21
 8007462:	f023 0303 	bic.w	r3, r3, #3
 8007466:	3304      	adds	r3, #4
 8007468:	f104 0215 	add.w	r2, r4, #21
 800746c:	4290      	cmp	r0, r2
 800746e:	bf38      	it	cc
 8007470:	2304      	movcc	r3, #4
 8007472:	f841 c003 	str.w	ip, [r1, r3]
 8007476:	f1bc 0f00 	cmp.w	ip, #0
 800747a:	d001      	beq.n	8007480 <__lshift+0xac>
 800747c:	f108 0602 	add.w	r6, r8, #2
 8007480:	3e01      	subs	r6, #1
 8007482:	4638      	mov	r0, r7
 8007484:	612e      	str	r6, [r5, #16]
 8007486:	4621      	mov	r1, r4
 8007488:	f7ff fdd2 	bl	8007030 <_Bfree>
 800748c:	4628      	mov	r0, r5
 800748e:	e8bd 87f0 	ldmia.w	sp!, {r4, r5, r6, r7, r8, r9, sl, pc}
 8007492:	f842 0f04 	str.w	r0, [r2, #4]!
 8007496:	3301      	adds	r3, #1
 8007498:	e7c1      	b.n	800741e <__lshift+0x4a>
 800749a:	3904      	subs	r1, #4
 800749c:	f853 2b04 	ldr.w	r2, [r3], #4
 80074a0:	f841 2f04 	str.w	r2, [r1, #4]!
 80074a4:	4298      	cmp	r0, r3
 80074a6:	d8f9      	bhi.n	800749c <__lshift+0xc8>
 80074a8:	e7ea      	b.n	8007480 <__lshift+0xac>
 80074aa:	bf00      	nop
 80074ac:	0800831c 	.word	0x0800831c
 80074b0:	08008390 	.word	0x08008390

080074b4 <__mcmp>:
 80074b4:	b530      	push	{r4, r5, lr}
 80074b6:	6902      	ldr	r2, [r0, #16]
 80074b8:	690c      	ldr	r4, [r1, #16]
 80074ba:	1b12      	subs	r2, r2, r4
 80074bc:	d10e      	bne.n	80074dc <__mcmp+0x28>
 80074be:	f100 0314 	add.w	r3, r0, #20
 80074c2:	3114      	adds	r1, #20
 80074c4:	eb03 0084 	add.w	r0, r3, r4, lsl #2
 80074c8:	eb01 0184 	add.w	r1, r1, r4, lsl #2
 80074cc:	f850 5d04 	ldr.w	r5, [r0, #-4]!
 80074d0:	f851 4d04 	ldr.w	r4, [r1, #-4]!
 80074d4:	42a5      	cmp	r5, r4
 80074d6:	d003      	beq.n	80074e0 <__mcmp+0x2c>
 80074d8:	d305      	bcc.n	80074e6 <__mcmp+0x32>
 80074da:	2201      	movs	r2, #1
 80074dc:	4610      	mov	r0, r2
 80074de:	bd30      	pop	{r4, r5, pc}
 80074e0:	4283      	cmp	r3, r0
 80074e2:	d3f3      	bcc.n	80074cc <__mcmp+0x18>
 80074e4:	e7fa      	b.n	80074dc <__mcmp+0x28>
 80074e6:	f04f 32ff 	mov.w	r2, #4294967295
 80074ea:	e7f7      	b.n	80074dc <__mcmp+0x28>

080074ec <__mdiff>:
 80074ec:	e92d 4ff8 	stmdb	sp!, {r3, r4, r5, r6, r7, r8, r9, sl, fp, lr}
 80074f0:	460c      	mov	r4, r1
 80074f2:	4606      	mov	r6, r0
 80074f4:	4611      	mov	r1, r2
 80074f6:	4620      	mov	r0, r4
 80074f8:	4690      	mov	r8, r2
 80074fa:	f7ff ffdb 	bl	80074b4 <__mcmp>
 80074fe:	1e05      	subs	r5, r0, #0
 8007500:	d110      	bne.n	8007524 <__mdiff+0x38>
 8007502:	4629      	mov	r1, r5
 8007504:	4630      	mov	r0, r6
 8007506:	f7ff fd53 	bl	8006fb0 <_Balloc>
 800750a:	b930      	cbnz	r0, 800751a <__mdiff+0x2e>
 800750c:	4b3a      	ldr	r3, [pc, #232]	; (80075f8 <__mdiff+0x10c>)
 800750e:	4602      	mov	r2, r0
 8007510:	f240 2132 	movw	r1, #562	; 0x232
 8007514:	4839      	ldr	r0, [pc, #228]	; (80075fc <__mdiff+0x110>)
 8007516:	f7fd fd69 	bl	8004fec <__assert_func>
 800751a:	2301      	movs	r3, #1
 800751c:	e9c0 3504 	strd	r3, r5, [r0, #16]
 8007520:	e8bd 8ff8 	ldmia.w	sp!, {r3, r4, r5, r6, r7, r8, r9, sl, fp, pc}
 8007524:	bfa4      	itt	ge
 8007526:	4643      	movge	r3, r8
 8007528:	46a0      	movge	r8, r4
 800752a:	4630      	mov	r0, r6
 800752c:	f8d8 1004 	ldr.w	r1, [r8, #4]
 8007530:	bfa6      	itte	ge
 8007532:	461c      	movge	r4, r3
 8007534:	2500      	movge	r5, #0
 8007536:	2501      	movlt	r5, #1
 8007538:	f7ff fd3a 	bl	8006fb0 <_Balloc>
 800753c:	b920      	cbnz	r0, 8007548 <__mdiff+0x5c>
 800753e:	4b2e      	ldr	r3, [pc, #184]	; (80075f8 <__mdiff+0x10c>)
 8007540:	4602      	mov	r2, r0
 8007542:	f44f 7110 	mov.w	r1, #576	; 0x240
 8007546:	e7e5      	b.n	8007514 <__mdiff+0x28>
 8007548:	f8d8 7010 	ldr.w	r7, [r8, #16]
 800754c:	6926      	ldr	r6, [r4, #16]
 800754e:	60c5      	str	r5, [r0, #12]
 8007550:	f104 0914 	add.w	r9, r4, #20
 8007554:	f108 0514 	add.w	r5, r8, #20
 8007558:	f100 0e14 	add.w	lr, r0, #20
 800755c:	eb05 0c87 	add.w	ip, r5, r7, lsl #2
 8007560:	eb09 0686 	add.w	r6, r9, r6, lsl #2
 8007564:	f108 0210 	add.w	r2, r8, #16
 8007568:	46f2      	mov	sl, lr
 800756a:	2100      	movs	r1, #0
 800756c:	f859 3b04 	ldr.w	r3, [r9], #4
 8007570:	f852 bf04 	ldr.w	fp, [r2, #4]!
 8007574:	fa1f f883 	uxth.w	r8, r3
 8007578:	fa11 f18b 	uxtah	r1, r1, fp
 800757c:	0c1b      	lsrs	r3, r3, #16
 800757e:	eba1 0808 	sub.w	r8, r1, r8
 8007582:	ebc3 431b 	rsb	r3, r3, fp, lsr #16
 8007586:	eb03 4328 	add.w	r3, r3, r8, asr #16
 800758a:	fa1f f888 	uxth.w	r8, r8
 800758e:	1419      	asrs	r1, r3, #16
 8007590:	454e      	cmp	r6, r9
 8007592:	ea48 4303 	orr.w	r3, r8, r3, lsl #16
 8007596:	f84a 3b04 	str.w	r3, [sl], #4
 800759a:	d8e7      	bhi.n	800756c <__mdiff+0x80>
 800759c:	1b33      	subs	r3, r6, r4
 800759e:	3b15      	subs	r3, #21
 80075a0:	f023 0303 	bic.w	r3, r3, #3
 80075a4:	3304      	adds	r3, #4
 80075a6:	3415      	adds	r4, #21
 80075a8:	42a6      	cmp	r6, r4
 80075aa:	bf38      	it	cc
 80075ac:	2304      	movcc	r3, #4
 80075ae:	441d      	add	r5, r3
 80075b0:	4473      	add	r3, lr
 80075b2:	469e      	mov	lr, r3
 80075b4:	462e      	mov	r6, r5
 80075b6:	4566      	cmp	r6, ip
 80075b8:	d30e      	bcc.n	80075d8 <__mdiff+0xec>
 80075ba:	f10c 0203 	add.w	r2, ip, #3
 80075be:	1b52      	subs	r2, r2, r5
 80075c0:	f022 0203 	bic.w	r2, r2, #3
 80075c4:	3d03      	subs	r5, #3
 80075c6:	45ac      	cmp	ip, r5
 80075c8:	bf38      	it	cc
 80075ca:	2200      	movcc	r2, #0
 80075cc:	441a      	add	r2, r3
 80075ce:	f852 3d04 	ldr.w	r3, [r2, #-4]!
 80075d2:	b17b      	cbz	r3, 80075f4 <__mdiff+0x108>
 80075d4:	6107      	str	r7, [r0, #16]
 80075d6:	e7a3      	b.n	8007520 <__mdiff+0x34>
 80075d8:	f856 8b04 	ldr.w	r8, [r6], #4
 80075dc:	fa11 f288 	uxtah	r2, r1, r8
 80075e0:	1414      	asrs	r4, r2, #16
 80075e2:	eb04 4418 	add.w	r4, r4, r8, lsr #16
 80075e6:	b292      	uxth	r2, r2
 80075e8:	ea42 4204 	orr.w	r2, r2, r4, lsl #16
 80075ec:	f84e 2b04 	str.w	r2, [lr], #4
 80075f0:	1421      	asrs	r1, r4, #16
 80075f2:	e7e0      	b.n	80075b6 <__mdiff+0xca>
 80075f4:	3f01      	subs	r7, #1
 80075f6:	e7ea      	b.n	80075ce <__mdiff+0xe2>
 80075f8:	0800831c 	.word	0x0800831c
 80075fc:	08008390 	.word	0x08008390

08007600 <__d2b>:
 8007600:	e92d 43f7 	stmdb	sp!, {r0, r1, r2, r4, r5, r6, r7, r8, r9, lr}
 8007604:	4689      	mov	r9, r1
 8007606:	2101      	movs	r1, #1
 8007608:	ec57 6b10 	vmov	r6, r7, d0
 800760c:	4690      	mov	r8, r2
 800760e:	f7ff fccf 	bl	8006fb0 <_Balloc>
 8007612:	4604      	mov	r4, r0
 8007614:	b930      	cbnz	r0, 8007624 <__d2b+0x24>
 8007616:	4602      	mov	r2, r0
 8007618:	4b25      	ldr	r3, [pc, #148]	; (80076b0 <__d2b+0xb0>)
 800761a:	4826      	ldr	r0, [pc, #152]	; (80076b4 <__d2b+0xb4>)
 800761c:	f240 310a 	movw	r1, #778	; 0x30a
 8007620:	f7fd fce4 	bl	8004fec <__assert_func>
 8007624:	f3c7 550a 	ubfx	r5, r7, #20, #11
 8007628:	f3c7 0313 	ubfx	r3, r7, #0, #20
 800762c:	bb35      	cbnz	r5, 800767c <__d2b+0x7c>
 800762e:	2e00      	cmp	r6, #0
 8007630:	9301      	str	r3, [sp, #4]
 8007632:	d028      	beq.n	8007686 <__d2b+0x86>
 8007634:	4668      	mov	r0, sp
 8007636:	9600      	str	r6, [sp, #0]
 8007638:	f7ff fd82 	bl	8007140 <__lo0bits>
 800763c:	9900      	ldr	r1, [sp, #0]
 800763e:	b300      	cbz	r0, 8007682 <__d2b+0x82>
 8007640:	9a01      	ldr	r2, [sp, #4]
 8007642:	f1c0 0320 	rsb	r3, r0, #32
 8007646:	fa02 f303 	lsl.w	r3, r2, r3
 800764a:	430b      	orrs	r3, r1
 800764c:	40c2      	lsrs	r2, r0
 800764e:	6163      	str	r3, [r4, #20]
 8007650:	9201      	str	r2, [sp, #4]
 8007652:	9b01      	ldr	r3, [sp, #4]
 8007654:	61a3      	str	r3, [r4, #24]
 8007656:	2b00      	cmp	r3, #0
 8007658:	bf14      	ite	ne
 800765a:	2202      	movne	r2, #2
 800765c:	2201      	moveq	r2, #1
 800765e:	6122      	str	r2, [r4, #16]
 8007660:	b1d5      	cbz	r5, 8007698 <__d2b+0x98>
 8007662:	f2a5 4533 	subw	r5, r5, #1075	; 0x433
 8007666:	4405      	add	r5, r0
 8007668:	f8c9 5000 	str.w	r5, [r9]
 800766c:	f1c0 0035 	rsb	r0, r0, #53	; 0x35
 8007670:	f8c8 0000 	str.w	r0, [r8]
 8007674:	4620      	mov	r0, r4
 8007676:	b003      	add	sp, #12
 8007678:	e8bd 83f0 	ldmia.w	sp!, {r4, r5, r6, r7, r8, r9, pc}
 800767c:	f443 1380 	orr.w	r3, r3, #1048576	; 0x100000
 8007680:	e7d5      	b.n	800762e <__d2b+0x2e>
 8007682:	6161      	str	r1, [r4, #20]
 8007684:	e7e5      	b.n	8007652 <__d2b+0x52>
 8007686:	a801      	add	r0, sp, #4
 8007688:	f7ff fd5a 	bl	8007140 <__lo0bits>
 800768c:	9b01      	ldr	r3, [sp, #4]
 800768e:	6163      	str	r3, [r4, #20]
 8007690:	2201      	movs	r2, #1
 8007692:	6122      	str	r2, [r4, #16]
 8007694:	3020      	adds	r0, #32
 8007696:	e7e3      	b.n	8007660 <__d2b+0x60>
 8007698:	eb04 0382 	add.w	r3, r4, r2, lsl #2
 800769c:	f2a0 4032 	subw	r0, r0, #1074	; 0x432
 80076a0:	f8c9 0000 	str.w	r0, [r9]
 80076a4:	6918      	ldr	r0, [r3, #16]
 80076a6:	f7ff fd2b 	bl	8007100 <__hi0bits>
 80076aa:	ebc0 1042 	rsb	r0, r0, r2, lsl #5
 80076ae:	e7df      	b.n	8007670 <__d2b+0x70>
 80076b0:	0800831c 	.word	0x0800831c
 80076b4:	08008390 	.word	0x08008390

080076b8 <_calloc_r>:
 80076b8:	b537      	push	{r0, r1, r2, r4, r5, lr}
 80076ba:	fba1 2402 	umull	r2, r4, r1, r2
 80076be:	b94c      	cbnz	r4, 80076d4 <_calloc_r+0x1c>
 80076c0:	4611      	mov	r1, r2
 80076c2:	9201      	str	r2, [sp, #4]
 80076c4:	f000 f87a 	bl	80077bc <_malloc_r>
 80076c8:	9a01      	ldr	r2, [sp, #4]
 80076ca:	4605      	mov	r5, r0
 80076cc:	b930      	cbnz	r0, 80076dc <_calloc_r+0x24>
 80076ce:	4628      	mov	r0, r5
 80076d0:	b003      	add	sp, #12
 80076d2:	bd30      	pop	{r4, r5, pc}
 80076d4:	220c      	movs	r2, #12
 80076d6:	6002      	str	r2, [r0, #0]
 80076d8:	2500      	movs	r5, #0
 80076da:	e7f8      	b.n	80076ce <_calloc_r+0x16>
 80076dc:	4621      	mov	r1, r4
 80076de:	f7fd fced 	bl	80050bc <memset>
 80076e2:	e7f4      	b.n	80076ce <_calloc_r+0x16>

080076e4 <_free_r>:
 80076e4:	b537      	push	{r0, r1, r2, r4, r5, lr}
 80076e6:	2900      	cmp	r1, #0
 80076e8:	d044      	beq.n	8007774 <_free_r+0x90>
 80076ea:	f851 3c04 	ldr.w	r3, [r1, #-4]
 80076ee:	9001      	str	r0, [sp, #4]
 80076f0:	2b00      	cmp	r3, #0
 80076f2:	f1a1 0404 	sub.w	r4, r1, #4
 80076f6:	bfb8      	it	lt
 80076f8:	18e4      	addlt	r4, r4, r3
 80076fa:	f000 fb5d 	bl	8007db8 <__malloc_lock>
 80076fe:	4a1e      	ldr	r2, [pc, #120]	; (8007778 <_free_r+0x94>)
 8007700:	9801      	ldr	r0, [sp, #4]
 8007702:	6813      	ldr	r3, [r2, #0]
 8007704:	b933      	cbnz	r3, 8007714 <_free_r+0x30>
 8007706:	6063      	str	r3, [r4, #4]
 8007708:	6014      	str	r4, [r2, #0]
 800770a:	b003      	add	sp, #12
 800770c:	e8bd 4030 	ldmia.w	sp!, {r4, r5, lr}
 8007710:	f000 bb58 	b.w	8007dc4 <__malloc_unlock>
 8007714:	42a3      	cmp	r3, r4
 8007716:	d908      	bls.n	800772a <_free_r+0x46>
 8007718:	6825      	ldr	r5, [r4, #0]
 800771a:	1961      	adds	r1, r4, r5
 800771c:	428b      	cmp	r3, r1
 800771e:	bf01      	itttt	eq
 8007720:	6819      	ldreq	r1, [r3, #0]
 8007722:	685b      	ldreq	r3, [r3, #4]
 8007724:	1949      	addeq	r1, r1, r5
 8007726:	6021      	streq	r1, [r4, #0]
 8007728:	e7ed      	b.n	8007706 <_free_r+0x22>
 800772a:	461a      	mov	r2, r3
 800772c:	685b      	ldr	r3, [r3, #4]
 800772e:	b10b      	cbz	r3, 8007734 <_free_r+0x50>
 8007730:	42a3      	cmp	r3, r4
 8007732:	d9fa      	bls.n	800772a <_free_r+0x46>
 8007734:	6811      	ldr	r1, [r2, #0]
 8007736:	1855      	adds	r5, r2, r1
 8007738:	42a5      	cmp	r5, r4
 800773a:	d10b      	bne.n	8007754 <_free_r+0x70>
 800773c:	6824      	ldr	r4, [r4, #0]
 800773e:	4421      	add	r1, r4
 8007740:	1854      	adds	r4, r2, r1
 8007742:	42a3      	cmp	r3, r4
 8007744:	6011      	str	r1, [r2, #0]
 8007746:	d1e0      	bne.n	800770a <_free_r+0x26>
 8007748:	681c      	ldr	r4, [r3, #0]
 800774a:	685b      	ldr	r3, [r3, #4]
 800774c:	6053      	str	r3, [r2, #4]
 800774e:	4421      	add	r1, r4
 8007750:	6011      	str	r1, [r2, #0]
 8007752:	e7da      	b.n	800770a <_free_r+0x26>
 8007754:	d902      	bls.n	800775c <_free_r+0x78>
 8007756:	230c      	movs	r3, #12
 8007758:	6003      	str	r3, [r0, #0]
 800775a:	e7d6      	b.n	800770a <_free_r+0x26>
 800775c:	6825      	ldr	r5, [r4, #0]
 800775e:	1961      	adds	r1, r4, r5
 8007760:	428b      	cmp	r3, r1
 8007762:	bf04      	itt	eq
 8007764:	6819      	ldreq	r1, [r3, #0]
 8007766:	685b      	ldreq	r3, [r3, #4]
 8007768:	6063      	str	r3, [r4, #4]
 800776a:	bf04      	itt	eq
 800776c:	1949      	addeq	r1, r1, r5
 800776e:	6021      	streq	r1, [r4, #0]
 8007770:	6054      	str	r4, [r2, #4]
 8007772:	e7ca      	b.n	800770a <_free_r+0x26>
 8007774:	b003      	add	sp, #12
 8007776:	bd30      	pop	{r4, r5, pc}
 8007778:	20002624 	.word	0x20002624

0800777c <sbrk_aligned>:
 800777c:	b570      	push	{r4, r5, r6, lr}
 800777e:	4e0e      	ldr	r6, [pc, #56]	; (80077b8 <sbrk_aligned+0x3c>)
 8007780:	460c      	mov	r4, r1
 8007782:	6831      	ldr	r1, [r6, #0]
 8007784:	4605      	mov	r5, r0
 8007786:	b911      	cbnz	r1, 800778e <sbrk_aligned+0x12>
 8007788:	f000 fa16 	bl	8007bb8 <_sbrk_r>
 800778c:	6030      	str	r0, [r6, #0]
 800778e:	4621      	mov	r1, r4
 8007790:	4628      	mov	r0, r5
 8007792:	f000 fa11 	bl	8007bb8 <_sbrk_r>
 8007796:	1c43      	adds	r3, r0, #1
 8007798:	d00a      	beq.n	80077b0 <sbrk_aligned+0x34>
 800779a:	1cc4      	adds	r4, r0, #3
 800779c:	f024 0403 	bic.w	r4, r4, #3
 80077a0:	42a0      	cmp	r0, r4
 80077a2:	d007      	beq.n	80077b4 <sbrk_aligned+0x38>
 80077a4:	1a21      	subs	r1, r4, r0
 80077a6:	4628      	mov	r0, r5
 80077a8:	f000 fa06 	bl	8007bb8 <_sbrk_r>
 80077ac:	3001      	adds	r0, #1
 80077ae:	d101      	bne.n	80077b4 <sbrk_aligned+0x38>
 80077b0:	f04f 34ff 	mov.w	r4, #4294967295
 80077b4:	4620      	mov	r0, r4
 80077b6:	bd70      	pop	{r4, r5, r6, pc}
 80077b8:	20002628 	.word	0x20002628

080077bc <_malloc_r>:
 80077bc:	e92d 41f0 	stmdb	sp!, {r4, r5, r6, r7, r8, lr}
 80077c0:	1ccd      	adds	r5, r1, #3
 80077c2:	f025 0503 	bic.w	r5, r5, #3
 80077c6:	3508      	adds	r5, #8
 80077c8:	2d0c      	cmp	r5, #12
 80077ca:	bf38      	it	cc
 80077cc:	250c      	movcc	r5, #12
 80077ce:	2d00      	cmp	r5, #0
 80077d0:	4607      	mov	r7, r0
 80077d2:	db01      	blt.n	80077d8 <_malloc_r+0x1c>
 80077d4:	42a9      	cmp	r1, r5
 80077d6:	d905      	bls.n	80077e4 <_malloc_r+0x28>
 80077d8:	230c      	movs	r3, #12
 80077da:	603b      	str	r3, [r7, #0]
 80077dc:	2600      	movs	r6, #0
 80077de:	4630      	mov	r0, r6
 80077e0:	e8bd 81f0 	ldmia.w	sp!, {r4, r5, r6, r7, r8, pc}
 80077e4:	4e2e      	ldr	r6, [pc, #184]	; (80078a0 <_malloc_r+0xe4>)
 80077e6:	f000 fae7 	bl	8007db8 <__malloc_lock>
 80077ea:	6833      	ldr	r3, [r6, #0]
 80077ec:	461c      	mov	r4, r3
 80077ee:	bb34      	cbnz	r4, 800783e <_malloc_r+0x82>
 80077f0:	4629      	mov	r1, r5
 80077f2:	4638      	mov	r0, r7
 80077f4:	f7ff ffc2 	bl	800777c <sbrk_aligned>
 80077f8:	1c43      	adds	r3, r0, #1
 80077fa:	4604      	mov	r4, r0
 80077fc:	d14d      	bne.n	800789a <_malloc_r+0xde>
 80077fe:	6834      	ldr	r4, [r6, #0]
 8007800:	4626      	mov	r6, r4
 8007802:	2e00      	cmp	r6, #0
 8007804:	d140      	bne.n	8007888 <_malloc_r+0xcc>
 8007806:	6823      	ldr	r3, [r4, #0]
 8007808:	4631      	mov	r1, r6
 800780a:	4638      	mov	r0, r7
 800780c:	eb04 0803 	add.w	r8, r4, r3
 8007810:	f000 f9d2 	bl	8007bb8 <_sbrk_r>
 8007814:	4580      	cmp	r8, r0
 8007816:	d13a      	bne.n	800788e <_malloc_r+0xd2>
 8007818:	6821      	ldr	r1, [r4, #0]
 800781a:	3503      	adds	r5, #3
 800781c:	1a6d      	subs	r5, r5, r1
 800781e:	f025 0503 	bic.w	r5, r5, #3
 8007822:	3508      	adds	r5, #8
 8007824:	2d0c      	cmp	r5, #12
 8007826:	bf38      	it	cc
 8007828:	250c      	movcc	r5, #12
 800782a:	4629      	mov	r1, r5
 800782c:	4638      	mov	r0, r7
 800782e:	f7ff ffa5 	bl	800777c <sbrk_aligned>
 8007832:	3001      	adds	r0, #1
 8007834:	d02b      	beq.n	800788e <_malloc_r+0xd2>
 8007836:	6823      	ldr	r3, [r4, #0]
 8007838:	442b      	add	r3, r5
 800783a:	6023      	str	r3, [r4, #0]
 800783c:	e00e      	b.n	800785c <_malloc_r+0xa0>
 800783e:	6822      	ldr	r2, [r4, #0]
 8007840:	1b52      	subs	r2, r2, r5
 8007842:	d41e      	bmi.n	8007882 <_malloc_r+0xc6>
 8007844:	2a0b      	cmp	r2, #11
 8007846:	d916      	bls.n	8007876 <_malloc_r+0xba>
 8007848:	1961      	adds	r1, r4, r5
 800784a:	42a3      	cmp	r3, r4
 800784c:	6025      	str	r5, [r4, #0]
 800784e:	bf18      	it	ne
 8007850:	6059      	strne	r1, [r3, #4]
 8007852:	6863      	ldr	r3, [r4, #4]
 8007854:	bf08      	it	eq
 8007856:	6031      	streq	r1, [r6, #0]
 8007858:	5162      	str	r2, [r4, r5]
 800785a:	604b      	str	r3, [r1, #4]
 800785c:	4638      	mov	r0, r7
 800785e:	f104 060b 	add.w	r6, r4, #11
 8007862:	f000 faaf 	bl	8007dc4 <__malloc_unlock>
 8007866:	f026 0607 	bic.w	r6, r6, #7
 800786a:	1d23      	adds	r3, r4, #4
 800786c:	1af2      	subs	r2, r6, r3
 800786e:	d0b6      	beq.n	80077de <_malloc_r+0x22>
 8007870:	1b9b      	subs	r3, r3, r6
 8007872:	50a3      	str	r3, [r4, r2]
 8007874:	e7b3      	b.n	80077de <_malloc_r+0x22>
 8007876:	6862      	ldr	r2, [r4, #4]
 8007878:	42a3      	cmp	r3, r4
 800787a:	bf0c      	ite	eq
 800787c:	6032      	streq	r2, [r6, #0]
 800787e:	605a      	strne	r2, [r3, #4]
 8007880:	e7ec      	b.n	800785c <_malloc_r+0xa0>
 8007882:	4623      	mov	r3, r4
 8007884:	6864      	ldr	r4, [r4, #4]
 8007886:	e7b2      	b.n	80077ee <_malloc_r+0x32>
 8007888:	4634      	mov	r4, r6
 800788a:	6876      	ldr	r6, [r6, #4]
 800788c:	e7b9      	b.n	8007802 <_malloc_r+0x46>
 800788e:	230c      	movs	r3, #12
 8007890:	603b      	str	r3, [r7, #0]
 8007892:	4638      	mov	r0, r7
 8007894:	f000 fa96 	bl	8007dc4 <__malloc_unlock>
 8007898:	e7a1      	b.n	80077de <_malloc_r+0x22>
 800789a:	6025      	str	r5, [r4, #0]
 800789c:	e7de      	b.n	800785c <_malloc_r+0xa0>
 800789e:	bf00      	nop
 80078a0:	20002624 	.word	0x20002624

080078a4 <_realloc_r>:
 80078a4:	e92d 41f0 	stmdb	sp!, {r4, r5, r6, r7, r8, lr}
 80078a8:	4680      	mov	r8, r0
 80078aa:	4614      	mov	r4, r2
 80078ac:	460e      	mov	r6, r1
 80078ae:	b921      	cbnz	r1, 80078ba <_realloc_r+0x16>
 80078b0:	e8bd 41f0 	ldmia.w	sp!, {r4, r5, r6, r7, r8, lr}
 80078b4:	4611      	mov	r1, r2
 80078b6:	f7ff bf81 	b.w	80077bc <_malloc_r>
 80078ba:	b92a      	cbnz	r2, 80078c8 <_realloc_r+0x24>
 80078bc:	f7ff ff12 	bl	80076e4 <_free_r>
 80078c0:	4625      	mov	r5, r4
 80078c2:	4628      	mov	r0, r5
 80078c4:	e8bd 81f0 	ldmia.w	sp!, {r4, r5, r6, r7, r8, pc}
 80078c8:	f000 fa82 	bl	8007dd0 <_malloc_usable_size_r>
 80078cc:	4284      	cmp	r4, r0
 80078ce:	4607      	mov	r7, r0
 80078d0:	d802      	bhi.n	80078d8 <_realloc_r+0x34>
 80078d2:	ebb4 0f50 	cmp.w	r4, r0, lsr #1
 80078d6:	d812      	bhi.n	80078fe <_realloc_r+0x5a>
 80078d8:	4621      	mov	r1, r4
 80078da:	4640      	mov	r0, r8
 80078dc:	f7ff ff6e 	bl	80077bc <_malloc_r>
 80078e0:	4605      	mov	r5, r0
 80078e2:	2800      	cmp	r0, #0
 80078e4:	d0ed      	beq.n	80078c2 <_realloc_r+0x1e>
 80078e6:	42bc      	cmp	r4, r7
 80078e8:	4622      	mov	r2, r4
 80078ea:	4631      	mov	r1, r6
 80078ec:	bf28      	it	cs
 80078ee:	463a      	movcs	r2, r7
 80078f0:	f7fd fbd6 	bl	80050a0 <memcpy>
 80078f4:	4631      	mov	r1, r6
 80078f6:	4640      	mov	r0, r8
 80078f8:	f7ff fef4 	bl	80076e4 <_free_r>
 80078fc:	e7e1      	b.n	80078c2 <_realloc_r+0x1e>
 80078fe:	4635      	mov	r5, r6
 8007900:	e7df      	b.n	80078c2 <_realloc_r+0x1e>

08007902 <__ssputs_r>:
 8007902:	e92d 47f0 	stmdb	sp!, {r4, r5, r6, r7, r8, r9, sl, lr}
 8007906:	688e      	ldr	r6, [r1, #8]
 8007908:	429e      	cmp	r6, r3
 800790a:	4682      	mov	sl, r0
 800790c:	460c      	mov	r4, r1
 800790e:	4690      	mov	r8, r2
 8007910:	461f      	mov	r7, r3
 8007912:	d838      	bhi.n	8007986 <__ssputs_r+0x84>
 8007914:	898a      	ldrh	r2, [r1, #12]
 8007916:	f412 6f90 	tst.w	r2, #1152	; 0x480
 800791a:	d032      	beq.n	8007982 <__ssputs_r+0x80>
 800791c:	6825      	ldr	r5, [r4, #0]
 800791e:	6909      	ldr	r1, [r1, #16]
 8007920:	eba5 0901 	sub.w	r9, r5, r1
 8007924:	6965      	ldr	r5, [r4, #20]
 8007926:	eb05 0545 	add.w	r5, r5, r5, lsl #1
 800792a:	eb05 75d5 	add.w	r5, r5, r5, lsr #31
 800792e:	3301      	adds	r3, #1
 8007930:	444b      	add	r3, r9
 8007932:	106d      	asrs	r5, r5, #1
 8007934:	429d      	cmp	r5, r3
 8007936:	bf38      	it	cc
 8007938:	461d      	movcc	r5, r3
 800793a:	0553      	lsls	r3, r2, #21
 800793c:	d531      	bpl.n	80079a2 <__ssputs_r+0xa0>
 800793e:	4629      	mov	r1, r5
 8007940:	f7ff ff3c 	bl	80077bc <_malloc_r>
 8007944:	4606      	mov	r6, r0
 8007946:	b950      	cbnz	r0, 800795e <__ssputs_r+0x5c>
 8007948:	230c      	movs	r3, #12
 800794a:	f8ca 3000 	str.w	r3, [sl]
 800794e:	89a3      	ldrh	r3, [r4, #12]
 8007950:	f043 0340 	orr.w	r3, r3, #64	; 0x40
 8007954:	81a3      	strh	r3, [r4, #12]
 8007956:	f04f 30ff 	mov.w	r0, #4294967295
 800795a:	e8bd 87f0 	ldmia.w	sp!, {r4, r5, r6, r7, r8, r9, sl, pc}
 800795e:	6921      	ldr	r1, [r4, #16]
 8007960:	464a      	mov	r2, r9
 8007962:	f7fd fb9d 	bl	80050a0 <memcpy>
 8007966:	89a3      	ldrh	r3, [r4, #12]
 8007968:	f423 6390 	bic.w	r3, r3, #1152	; 0x480
 800796c:	f043 0380 	orr.w	r3, r3, #128	; 0x80
 8007970:	81a3      	strh	r3, [r4, #12]
 8007972:	6126      	str	r6, [r4, #16]
 8007974:	6165      	str	r5, [r4, #20]
 8007976:	444e      	add	r6, r9
 8007978:	eba5 0509 	sub.w	r5, r5, r9
 800797c:	6026      	str	r6, [r4, #0]
 800797e:	60a5      	str	r5, [r4, #8]
 8007980:	463e      	mov	r6, r7
 8007982:	42be      	cmp	r6, r7
 8007984:	d900      	bls.n	8007988 <__ssputs_r+0x86>
 8007986:	463e      	mov	r6, r7
 8007988:	6820      	ldr	r0, [r4, #0]
 800798a:	4632      	mov	r2, r6
 800798c:	4641      	mov	r1, r8
 800798e:	f7ff faf5 	bl	8006f7c <memmove>
 8007992:	68a3      	ldr	r3, [r4, #8]
 8007994:	1b9b      	subs	r3, r3, r6
 8007996:	60a3      	str	r3, [r4, #8]
 8007998:	6823      	ldr	r3, [r4, #0]
 800799a:	4433      	add	r3, r6
 800799c:	6023      	str	r3, [r4, #0]
 800799e:	2000      	movs	r0, #0
 80079a0:	e7db      	b.n	800795a <__ssputs_r+0x58>
 80079a2:	462a      	mov	r2, r5
 80079a4:	f7ff ff7e 	bl	80078a4 <_realloc_r>
 80079a8:	4606      	mov	r6, r0
 80079aa:	2800      	cmp	r0, #0
 80079ac:	d1e1      	bne.n	8007972 <__ssputs_r+0x70>
 80079ae:	6921      	ldr	r1, [r4, #16]
 80079b0:	4650      	mov	r0, sl
 80079b2:	f7ff fe97 	bl	80076e4 <_free_r>
 80079b6:	e7c7      	b.n	8007948 <__ssputs_r+0x46>

080079b8 <_svfiprintf_r>:
 80079b8:	e92d 4ff0 	stmdb	sp!, {r4, r5, r6, r7, r8, r9, sl, fp, lr}
 80079bc:	4698      	mov	r8, r3
 80079be:	898b      	ldrh	r3, [r1, #12]
 80079c0:	061b      	lsls	r3, r3, #24
 80079c2:	b09d      	sub	sp, #116	; 0x74
 80079c4:	4607      	mov	r7, r0
 80079c6:	460d      	mov	r5, r1
 80079c8:	4614      	mov	r4, r2
 80079ca:	d50e      	bpl.n	80079ea <_svfiprintf_r+0x32>
 80079cc:	690b      	ldr	r3, [r1, #16]
 80079ce:	b963      	cbnz	r3, 80079ea <_svfiprintf_r+0x32>
 80079d0:	2140      	movs	r1, #64	; 0x40
 80079d2:	f7ff fef3 	bl	80077bc <_malloc_r>
 80079d6:	6028      	str	r0, [r5, #0]
 80079d8:	6128      	str	r0, [r5, #16]
 80079da:	b920      	cbnz	r0, 80079e6 <_svfiprintf_r+0x2e>
 80079dc:	230c      	movs	r3, #12
 80079de:	603b      	str	r3, [r7, #0]
 80079e0:	f04f 30ff 	mov.w	r0, #4294967295
 80079e4:	e0d1      	b.n	8007b8a <_svfiprintf_r+0x1d2>
 80079e6:	2340      	movs	r3, #64	; 0x40
 80079e8:	616b      	str	r3, [r5, #20]
 80079ea:	2300      	movs	r3, #0
 80079ec:	9309      	str	r3, [sp, #36]	; 0x24
 80079ee:	2320      	movs	r3, #32
 80079f0:	f88d 3029 	strb.w	r3, [sp, #41]	; 0x29
 80079f4:	f8cd 800c 	str.w	r8, [sp, #12]
 80079f8:	2330      	movs	r3, #48	; 0x30
 80079fa:	f8df 81a8 	ldr.w	r8, [pc, #424]	; 8007ba4 <_svfiprintf_r+0x1ec>
 80079fe:	f88d 302a 	strb.w	r3, [sp, #42]	; 0x2a
 8007a02:	f04f 0901 	mov.w	r9, #1
 8007a06:	4623      	mov	r3, r4
 8007a08:	469a      	mov	sl, r3
 8007a0a:	f813 2b01 	ldrb.w	r2, [r3], #1
 8007a0e:	b10a      	cbz	r2, 8007a14 <_svfiprintf_r+0x5c>
 8007a10:	2a25      	cmp	r2, #37	; 0x25
 8007a12:	d1f9      	bne.n	8007a08 <_svfiprintf_r+0x50>
 8007a14:	ebba 0b04 	subs.w	fp, sl, r4
 8007a18:	d00b      	beq.n	8007a32 <_svfiprintf_r+0x7a>
 8007a1a:	465b      	mov	r3, fp
 8007a1c:	4622      	mov	r2, r4
 8007a1e:	4629      	mov	r1, r5
 8007a20:	4638      	mov	r0, r7
 8007a22:	f7ff ff6e 	bl	8007902 <__ssputs_r>
 8007a26:	3001      	adds	r0, #1
 8007a28:	f000 80aa 	beq.w	8007b80 <_svfiprintf_r+0x1c8>
 8007a2c:	9a09      	ldr	r2, [sp, #36]	; 0x24
 8007a2e:	445a      	add	r2, fp
 8007a30:	9209      	str	r2, [sp, #36]	; 0x24
 8007a32:	f89a 3000 	ldrb.w	r3, [sl]
 8007a36:	2b00      	cmp	r3, #0
 8007a38:	f000 80a2 	beq.w	8007b80 <_svfiprintf_r+0x1c8>
 8007a3c:	2300      	movs	r3, #0
 8007a3e:	f04f 32ff 	mov.w	r2, #4294967295
 8007a42:	e9cd 2305 	strd	r2, r3, [sp, #20]
 8007a46:	f10a 0a01 	add.w	sl, sl, #1
 8007a4a:	9304      	str	r3, [sp, #16]
 8007a4c:	9307      	str	r3, [sp, #28]
 8007a4e:	f88d 3053 	strb.w	r3, [sp, #83]	; 0x53
 8007a52:	931a      	str	r3, [sp, #104]	; 0x68
 8007a54:	4654      	mov	r4, sl
 8007a56:	2205      	movs	r2, #5
 8007a58:	f814 1b01 	ldrb.w	r1, [r4], #1
 8007a5c:	4851      	ldr	r0, [pc, #324]	; (8007ba4 <_svfiprintf_r+0x1ec>)
 8007a5e:	f7f8 fbbf 	bl	80001e0 <memchr>
 8007a62:	9a04      	ldr	r2, [sp, #16]
 8007a64:	b9d8      	cbnz	r0, 8007a9e <_svfiprintf_r+0xe6>
 8007a66:	06d0      	lsls	r0, r2, #27
 8007a68:	bf44      	itt	mi
 8007a6a:	2320      	movmi	r3, #32
 8007a6c:	f88d 3053 	strbmi.w	r3, [sp, #83]	; 0x53
 8007a70:	0711      	lsls	r1, r2, #28
 8007a72:	bf44      	itt	mi
 8007a74:	232b      	movmi	r3, #43	; 0x2b
 8007a76:	f88d 3053 	strbmi.w	r3, [sp, #83]	; 0x53
 8007a7a:	f89a 3000 	ldrb.w	r3, [sl]
 8007a7e:	2b2a      	cmp	r3, #42	; 0x2a
 8007a80:	d015      	beq.n	8007aae <_svfiprintf_r+0xf6>
 8007a82:	9a07      	ldr	r2, [sp, #28]
 8007a84:	4654      	mov	r4, sl
 8007a86:	2000      	movs	r0, #0
 8007a88:	f04f 0c0a 	mov.w	ip, #10
 8007a8c:	4621      	mov	r1, r4
 8007a8e:	f811 3b01 	ldrb.w	r3, [r1], #1
 8007a92:	3b30      	subs	r3, #48	; 0x30
 8007a94:	2b09      	cmp	r3, #9
 8007a96:	d94e      	bls.n	8007b36 <_svfiprintf_r+0x17e>
 8007a98:	b1b0      	cbz	r0, 8007ac8 <_svfiprintf_r+0x110>
 8007a9a:	9207      	str	r2, [sp, #28]
 8007a9c:	e014      	b.n	8007ac8 <_svfiprintf_r+0x110>
 8007a9e:	eba0 0308 	sub.w	r3, r0, r8
 8007aa2:	fa09 f303 	lsl.w	r3, r9, r3
 8007aa6:	4313      	orrs	r3, r2
 8007aa8:	9304      	str	r3, [sp, #16]
 8007aaa:	46a2      	mov	sl, r4
 8007aac:	e7d2      	b.n	8007a54 <_svfiprintf_r+0x9c>
 8007aae:	9b03      	ldr	r3, [sp, #12]
 8007ab0:	1d19      	adds	r1, r3, #4
 8007ab2:	681b      	ldr	r3, [r3, #0]
 8007ab4:	9103      	str	r1, [sp, #12]
 8007ab6:	2b00      	cmp	r3, #0
 8007ab8:	bfbb      	ittet	lt
 8007aba:	425b      	neglt	r3, r3
 8007abc:	f042 0202 	orrlt.w	r2, r2, #2
 8007ac0:	9307      	strge	r3, [sp, #28]
 8007ac2:	9307      	strlt	r3, [sp, #28]
 8007ac4:	bfb8      	it	lt
 8007ac6:	9204      	strlt	r2, [sp, #16]
 8007ac8:	7823      	ldrb	r3, [r4, #0]
 8007aca:	2b2e      	cmp	r3, #46	; 0x2e
 8007acc:	d10c      	bne.n	8007ae8 <_svfiprintf_r+0x130>
 8007ace:	7863      	ldrb	r3, [r4, #1]
 8007ad0:	2b2a      	cmp	r3, #42	; 0x2a
 8007ad2:	d135      	bne.n	8007b40 <_svfiprintf_r+0x188>
 8007ad4:	9b03      	ldr	r3, [sp, #12]
 8007ad6:	1d1a      	adds	r2, r3, #4
 8007ad8:	681b      	ldr	r3, [r3, #0]
 8007ada:	9203      	str	r2, [sp, #12]
 8007adc:	2b00      	cmp	r3, #0
 8007ade:	bfb8      	it	lt
 8007ae0:	f04f 33ff 	movlt.w	r3, #4294967295
 8007ae4:	3402      	adds	r4, #2
 8007ae6:	9305      	str	r3, [sp, #20]
 8007ae8:	f8df a0c8 	ldr.w	sl, [pc, #200]	; 8007bb4 <_svfiprintf_r+0x1fc>
 8007aec:	7821      	ldrb	r1, [r4, #0]
 8007aee:	2203      	movs	r2, #3
 8007af0:	4650      	mov	r0, sl
 8007af2:	f7f8 fb75 	bl	80001e0 <memchr>
 8007af6:	b140      	cbz	r0, 8007b0a <_svfiprintf_r+0x152>
 8007af8:	2340      	movs	r3, #64	; 0x40
 8007afa:	eba0 000a 	sub.w	r0, r0, sl
 8007afe:	fa03 f000 	lsl.w	r0, r3, r0
 8007b02:	9b04      	ldr	r3, [sp, #16]
 8007b04:	4303      	orrs	r3, r0
 8007b06:	3401      	adds	r4, #1
 8007b08:	9304      	str	r3, [sp, #16]
 8007b0a:	f814 1b01 	ldrb.w	r1, [r4], #1
 8007b0e:	4826      	ldr	r0, [pc, #152]	; (8007ba8 <_svfiprintf_r+0x1f0>)
 8007b10:	f88d 1028 	strb.w	r1, [sp, #40]	; 0x28
 8007b14:	2206      	movs	r2, #6
 8007b16:	f7f8 fb63 	bl	80001e0 <memchr>
 8007b1a:	2800      	cmp	r0, #0
 8007b1c:	d038      	beq.n	8007b90 <_svfiprintf_r+0x1d8>
 8007b1e:	4b23      	ldr	r3, [pc, #140]	; (8007bac <_svfiprintf_r+0x1f4>)
 8007b20:	bb1b      	cbnz	r3, 8007b6a <_svfiprintf_r+0x1b2>
 8007b22:	9b03      	ldr	r3, [sp, #12]
 8007b24:	3307      	adds	r3, #7
 8007b26:	f023 0307 	bic.w	r3, r3, #7
 8007b2a:	3308      	adds	r3, #8
 8007b2c:	9303      	str	r3, [sp, #12]
 8007b2e:	9b09      	ldr	r3, [sp, #36]	; 0x24
 8007b30:	4433      	add	r3, r6
 8007b32:	9309      	str	r3, [sp, #36]	; 0x24
 8007b34:	e767      	b.n	8007a06 <_svfiprintf_r+0x4e>
 8007b36:	fb0c 3202 	mla	r2, ip, r2, r3
 8007b3a:	460c      	mov	r4, r1
 8007b3c:	2001      	movs	r0, #1
 8007b3e:	e7a5      	b.n	8007a8c <_svfiprintf_r+0xd4>
 8007b40:	2300      	movs	r3, #0
 8007b42:	3401      	adds	r4, #1
 8007b44:	9305      	str	r3, [sp, #20]
 8007b46:	4619      	mov	r1, r3
 8007b48:	f04f 0c0a 	mov.w	ip, #10
 8007b4c:	4620      	mov	r0, r4
 8007b4e:	f810 2b01 	ldrb.w	r2, [r0], #1
 8007b52:	3a30      	subs	r2, #48	; 0x30
 8007b54:	2a09      	cmp	r2, #9
 8007b56:	d903      	bls.n	8007b60 <_svfiprintf_r+0x1a8>
 8007b58:	2b00      	cmp	r3, #0
 8007b5a:	d0c5      	beq.n	8007ae8 <_svfiprintf_r+0x130>
 8007b5c:	9105      	str	r1, [sp, #20]
 8007b5e:	e7c3      	b.n	8007ae8 <_svfiprintf_r+0x130>
 8007b60:	fb0c 2101 	mla	r1, ip, r1, r2
 8007b64:	4604      	mov	r4, r0
 8007b66:	2301      	movs	r3, #1
 8007b68:	e7f0      	b.n	8007b4c <_svfiprintf_r+0x194>
 8007b6a:	ab03      	add	r3, sp, #12
 8007b6c:	9300      	str	r3, [sp, #0]
 8007b6e:	462a      	mov	r2, r5
 8007b70:	4b0f      	ldr	r3, [pc, #60]	; (8007bb0 <_svfiprintf_r+0x1f8>)
 8007b72:	a904      	add	r1, sp, #16
 8007b74:	4638      	mov	r0, r7
 8007b76:	f7fd fca3 	bl	80054c0 <_printf_float>
 8007b7a:	1c42      	adds	r2, r0, #1
 8007b7c:	4606      	mov	r6, r0
 8007b7e:	d1d6      	bne.n	8007b2e <_svfiprintf_r+0x176>
 8007b80:	89ab      	ldrh	r3, [r5, #12]
 8007b82:	065b      	lsls	r3, r3, #25
 8007b84:	f53f af2c 	bmi.w	80079e0 <_svfiprintf_r+0x28>
 8007b88:	9809      	ldr	r0, [sp, #36]	; 0x24
 8007b8a:	b01d      	add	sp, #116	; 0x74
 8007b8c:	e8bd 8ff0 	ldmia.w	sp!, {r4, r5, r6, r7, r8, r9, sl, fp, pc}
 8007b90:	ab03      	add	r3, sp, #12
 8007b92:	9300      	str	r3, [sp, #0]
 8007b94:	462a      	mov	r2, r5
 8007b96:	4b06      	ldr	r3, [pc, #24]	; (8007bb0 <_svfiprintf_r+0x1f8>)
 8007b98:	a904      	add	r1, sp, #16
 8007b9a:	4638      	mov	r0, r7
 8007b9c:	f7fd ff34 	bl	8005a08 <_printf_i>
 8007ba0:	e7eb      	b.n	8007b7a <_svfiprintf_r+0x1c2>
 8007ba2:	bf00      	nop
 8007ba4:	08008258 	.word	0x08008258
 8007ba8:	08008262 	.word	0x08008262
 8007bac:	080054c1 	.word	0x080054c1
 8007bb0:	08007903 	.word	0x08007903
 8007bb4:	0800825e 	.word	0x0800825e

08007bb8 <_sbrk_r>:
 8007bb8:	b538      	push	{r3, r4, r5, lr}
 8007bba:	4d06      	ldr	r5, [pc, #24]	; (8007bd4 <_sbrk_r+0x1c>)
 8007bbc:	2300      	movs	r3, #0
 8007bbe:	4604      	mov	r4, r0
 8007bc0:	4608      	mov	r0, r1
 8007bc2:	602b      	str	r3, [r5, #0]
 8007bc4:	f7f9 fd20 	bl	8001608 <_sbrk>
 8007bc8:	1c43      	adds	r3, r0, #1
 8007bca:	d102      	bne.n	8007bd2 <_sbrk_r+0x1a>
 8007bcc:	682b      	ldr	r3, [r5, #0]
 8007bce:	b103      	cbz	r3, 8007bd2 <_sbrk_r+0x1a>
 8007bd0:	6023      	str	r3, [r4, #0]
 8007bd2:	bd38      	pop	{r3, r4, r5, pc}
 8007bd4:	2000262c 	.word	0x2000262c

08007bd8 <_raise_r>:
 8007bd8:	291f      	cmp	r1, #31
 8007bda:	b538      	push	{r3, r4, r5, lr}
 8007bdc:	4604      	mov	r4, r0
 8007bde:	460d      	mov	r5, r1
 8007be0:	d904      	bls.n	8007bec <_raise_r+0x14>
 8007be2:	2316      	movs	r3, #22
 8007be4:	6003      	str	r3, [r0, #0]
 8007be6:	f04f 30ff 	mov.w	r0, #4294967295
 8007bea:	bd38      	pop	{r3, r4, r5, pc}
 8007bec:	6c42      	ldr	r2, [r0, #68]	; 0x44
 8007bee:	b112      	cbz	r2, 8007bf6 <_raise_r+0x1e>
 8007bf0:	f852 3021 	ldr.w	r3, [r2, r1, lsl #2]
 8007bf4:	b94b      	cbnz	r3, 8007c0a <_raise_r+0x32>
 8007bf6:	4620      	mov	r0, r4
 8007bf8:	f000 f830 	bl	8007c5c <_getpid_r>
 8007bfc:	462a      	mov	r2, r5
 8007bfe:	4601      	mov	r1, r0
 8007c00:	4620      	mov	r0, r4
 8007c02:	e8bd 4038 	ldmia.w	sp!, {r3, r4, r5, lr}
 8007c06:	f000 b817 	b.w	8007c38 <_kill_r>
 8007c0a:	2b01      	cmp	r3, #1
 8007c0c:	d00a      	beq.n	8007c24 <_raise_r+0x4c>
 8007c0e:	1c59      	adds	r1, r3, #1
 8007c10:	d103      	bne.n	8007c1a <_raise_r+0x42>
 8007c12:	2316      	movs	r3, #22
 8007c14:	6003      	str	r3, [r0, #0]
 8007c16:	2001      	movs	r0, #1
 8007c18:	e7e7      	b.n	8007bea <_raise_r+0x12>
 8007c1a:	2400      	movs	r4, #0
 8007c1c:	f842 4025 	str.w	r4, [r2, r5, lsl #2]
 8007c20:	4628      	mov	r0, r5
 8007c22:	4798      	blx	r3
 8007c24:	2000      	movs	r0, #0
 8007c26:	e7e0      	b.n	8007bea <_raise_r+0x12>

08007c28 <raise>:
 8007c28:	4b02      	ldr	r3, [pc, #8]	; (8007c34 <raise+0xc>)
 8007c2a:	4601      	mov	r1, r0
 8007c2c:	6818      	ldr	r0, [r3, #0]
 8007c2e:	f7ff bfd3 	b.w	8007bd8 <_raise_r>
 8007c32:	bf00      	nop
 8007c34:	20000098 	.word	0x20000098

08007c38 <_kill_r>:
 8007c38:	b538      	push	{r3, r4, r5, lr}
 8007c3a:	4d07      	ldr	r5, [pc, #28]	; (8007c58 <_kill_r+0x20>)
 8007c3c:	2300      	movs	r3, #0
 8007c3e:	4604      	mov	r4, r0
 8007c40:	4608      	mov	r0, r1
 8007c42:	4611      	mov	r1, r2
 8007c44:	602b      	str	r3, [r5, #0]
 8007c46:	f7f9 fca9 	bl	800159c <_kill>
 8007c4a:	1c43      	adds	r3, r0, #1
 8007c4c:	d102      	bne.n	8007c54 <_kill_r+0x1c>
 8007c4e:	682b      	ldr	r3, [r5, #0]
 8007c50:	b103      	cbz	r3, 8007c54 <_kill_r+0x1c>
 8007c52:	6023      	str	r3, [r4, #0]
 8007c54:	bd38      	pop	{r3, r4, r5, pc}
 8007c56:	bf00      	nop
 8007c58:	2000262c 	.word	0x2000262c

08007c5c <_getpid_r>:
 8007c5c:	f7f9 bc9c 	b.w	8001598 <_getpid>

08007c60 <__sread>:
 8007c60:	b510      	push	{r4, lr}
 8007c62:	460c      	mov	r4, r1
 8007c64:	f9b1 100e 	ldrsh.w	r1, [r1, #14]
 8007c68:	f000 f8ba 	bl	8007de0 <_read_r>
 8007c6c:	2800      	cmp	r0, #0
 8007c6e:	bfab      	itete	ge
 8007c70:	6d63      	ldrge	r3, [r4, #84]	; 0x54
 8007c72:	89a3      	ldrhlt	r3, [r4, #12]
 8007c74:	181b      	addge	r3, r3, r0
 8007c76:	f423 5380 	biclt.w	r3, r3, #4096	; 0x1000
 8007c7a:	bfac      	ite	ge
 8007c7c:	6563      	strge	r3, [r4, #84]	; 0x54
 8007c7e:	81a3      	strhlt	r3, [r4, #12]
 8007c80:	bd10      	pop	{r4, pc}

08007c82 <__swrite>:
 8007c82:	e92d 41f0 	stmdb	sp!, {r4, r5, r6, r7, r8, lr}
 8007c86:	461f      	mov	r7, r3
 8007c88:	898b      	ldrh	r3, [r1, #12]
 8007c8a:	05db      	lsls	r3, r3, #23
 8007c8c:	4605      	mov	r5, r0
 8007c8e:	460c      	mov	r4, r1
 8007c90:	4616      	mov	r6, r2
 8007c92:	d505      	bpl.n	8007ca0 <__swrite+0x1e>
 8007c94:	f9b1 100e 	ldrsh.w	r1, [r1, #14]
 8007c98:	2302      	movs	r3, #2
 8007c9a:	2200      	movs	r2, #0
 8007c9c:	f000 f868 	bl	8007d70 <_lseek_r>
 8007ca0:	89a3      	ldrh	r3, [r4, #12]
 8007ca2:	f9b4 100e 	ldrsh.w	r1, [r4, #14]
 8007ca6:	f423 5380 	bic.w	r3, r3, #4096	; 0x1000
 8007caa:	81a3      	strh	r3, [r4, #12]
 8007cac:	4632      	mov	r2, r6
 8007cae:	463b      	mov	r3, r7
 8007cb0:	4628      	mov	r0, r5
 8007cb2:	e8bd 41f0 	ldmia.w	sp!, {r4, r5, r6, r7, r8, lr}
 8007cb6:	f000 b817 	b.w	8007ce8 <_write_r>

08007cba <__sseek>:
 8007cba:	b510      	push	{r4, lr}
 8007cbc:	460c      	mov	r4, r1
 8007cbe:	f9b1 100e 	ldrsh.w	r1, [r1, #14]
 8007cc2:	f000 f855 	bl	8007d70 <_lseek_r>
 8007cc6:	1c43      	adds	r3, r0, #1
 8007cc8:	89a3      	ldrh	r3, [r4, #12]
 8007cca:	bf15      	itete	ne
 8007ccc:	6560      	strne	r0, [r4, #84]	; 0x54
 8007cce:	f423 5380 	biceq.w	r3, r3, #4096	; 0x1000
 8007cd2:	f443 5380 	orrne.w	r3, r3, #4096	; 0x1000
 8007cd6:	81a3      	strheq	r3, [r4, #12]
 8007cd8:	bf18      	it	ne
 8007cda:	81a3      	strhne	r3, [r4, #12]
 8007cdc:	bd10      	pop	{r4, pc}

08007cde <__sclose>:
 8007cde:	f9b1 100e 	ldrsh.w	r1, [r1, #14]
 8007ce2:	f000 b813 	b.w	8007d0c <_close_r>
	...

08007ce8 <_write_r>:
 8007ce8:	b538      	push	{r3, r4, r5, lr}
 8007cea:	4d07      	ldr	r5, [pc, #28]	; (8007d08 <_write_r+0x20>)
 8007cec:	4604      	mov	r4, r0
 8007cee:	4608      	mov	r0, r1
 8007cf0:	4611      	mov	r1, r2
 8007cf2:	2200      	movs	r2, #0
 8007cf4:	602a      	str	r2, [r5, #0]
 8007cf6:	461a      	mov	r2, r3
 8007cf8:	f7f9 fc6c 	bl	80015d4 <_write>
 8007cfc:	1c43      	adds	r3, r0, #1
 8007cfe:	d102      	bne.n	8007d06 <_write_r+0x1e>
 8007d00:	682b      	ldr	r3, [r5, #0]
 8007d02:	b103      	cbz	r3, 8007d06 <_write_r+0x1e>
 8007d04:	6023      	str	r3, [r4, #0]
 8007d06:	bd38      	pop	{r3, r4, r5, pc}
 8007d08:	2000262c 	.word	0x2000262c

08007d0c <_close_r>:
 8007d0c:	b538      	push	{r3, r4, r5, lr}
 8007d0e:	4d06      	ldr	r5, [pc, #24]	; (8007d28 <_close_r+0x1c>)
 8007d10:	2300      	movs	r3, #0
 8007d12:	4604      	mov	r4, r0
 8007d14:	4608      	mov	r0, r1
 8007d16:	602b      	str	r3, [r5, #0]
 8007d18:	f7f9 fc6a 	bl	80015f0 <_close>
 8007d1c:	1c43      	adds	r3, r0, #1
 8007d1e:	d102      	bne.n	8007d26 <_close_r+0x1a>
 8007d20:	682b      	ldr	r3, [r5, #0]
 8007d22:	b103      	cbz	r3, 8007d26 <_close_r+0x1a>
 8007d24:	6023      	str	r3, [r4, #0]
 8007d26:	bd38      	pop	{r3, r4, r5, pc}
 8007d28:	2000262c 	.word	0x2000262c

08007d2c <_fstat_r>:
 8007d2c:	b538      	push	{r3, r4, r5, lr}
 8007d2e:	4d07      	ldr	r5, [pc, #28]	; (8007d4c <_fstat_r+0x20>)
 8007d30:	2300      	movs	r3, #0
 8007d32:	4604      	mov	r4, r0
 8007d34:	4608      	mov	r0, r1
 8007d36:	4611      	mov	r1, r2
 8007d38:	602b      	str	r3, [r5, #0]
 8007d3a:	f7f9 fc5c 	bl	80015f6 <_fstat>
 8007d3e:	1c43      	adds	r3, r0, #1
 8007d40:	d102      	bne.n	8007d48 <_fstat_r+0x1c>
 8007d42:	682b      	ldr	r3, [r5, #0]
 8007d44:	b103      	cbz	r3, 8007d48 <_fstat_r+0x1c>
 8007d46:	6023      	str	r3, [r4, #0]
 8007d48:	bd38      	pop	{r3, r4, r5, pc}
 8007d4a:	bf00      	nop
 8007d4c:	2000262c 	.word	0x2000262c

08007d50 <_isatty_r>:
 8007d50:	b538      	push	{r3, r4, r5, lr}
 8007d52:	4d06      	ldr	r5, [pc, #24]	; (8007d6c <_isatty_r+0x1c>)
 8007d54:	2300      	movs	r3, #0
 8007d56:	4604      	mov	r4, r0
 8007d58:	4608      	mov	r0, r1
 8007d5a:	602b      	str	r3, [r5, #0]
 8007d5c:	f7f9 fc50 	bl	8001600 <_isatty>
 8007d60:	1c43      	adds	r3, r0, #1
 8007d62:	d102      	bne.n	8007d6a <_isatty_r+0x1a>
 8007d64:	682b      	ldr	r3, [r5, #0]
 8007d66:	b103      	cbz	r3, 8007d6a <_isatty_r+0x1a>
 8007d68:	6023      	str	r3, [r4, #0]
 8007d6a:	bd38      	pop	{r3, r4, r5, pc}
 8007d6c:	2000262c 	.word	0x2000262c

08007d70 <_lseek_r>:
 8007d70:	b538      	push	{r3, r4, r5, lr}
 8007d72:	4d07      	ldr	r5, [pc, #28]	; (8007d90 <_lseek_r+0x20>)
 8007d74:	4604      	mov	r4, r0
 8007d76:	4608      	mov	r0, r1
 8007d78:	4611      	mov	r1, r2
 8007d7a:	2200      	movs	r2, #0
 8007d7c:	602a      	str	r2, [r5, #0]
 8007d7e:	461a      	mov	r2, r3
 8007d80:	f7f9 fc40 	bl	8001604 <_lseek>
 8007d84:	1c43      	adds	r3, r0, #1
 8007d86:	d102      	bne.n	8007d8e <_lseek_r+0x1e>
 8007d88:	682b      	ldr	r3, [r5, #0]
 8007d8a:	b103      	cbz	r3, 8007d8e <_lseek_r+0x1e>
 8007d8c:	6023      	str	r3, [r4, #0]
 8007d8e:	bd38      	pop	{r3, r4, r5, pc}
 8007d90:	2000262c 	.word	0x2000262c

08007d94 <__ascii_mbtowc>:
 8007d94:	b082      	sub	sp, #8
 8007d96:	b901      	cbnz	r1, 8007d9a <__ascii_mbtowc+0x6>
 8007d98:	a901      	add	r1, sp, #4
 8007d9a:	b142      	cbz	r2, 8007dae <__ascii_mbtowc+0x1a>
 8007d9c:	b14b      	cbz	r3, 8007db2 <__ascii_mbtowc+0x1e>
 8007d9e:	7813      	ldrb	r3, [r2, #0]
 8007da0:	600b      	str	r3, [r1, #0]
 8007da2:	7812      	ldrb	r2, [r2, #0]
 8007da4:	1e10      	subs	r0, r2, #0
 8007da6:	bf18      	it	ne
 8007da8:	2001      	movne	r0, #1
 8007daa:	b002      	add	sp, #8
 8007dac:	4770      	bx	lr
 8007dae:	4610      	mov	r0, r2
 8007db0:	e7fb      	b.n	8007daa <__ascii_mbtowc+0x16>
 8007db2:	f06f 0001 	mvn.w	r0, #1
 8007db6:	e7f8      	b.n	8007daa <__ascii_mbtowc+0x16>

08007db8 <__malloc_lock>:
 8007db8:	4801      	ldr	r0, [pc, #4]	; (8007dc0 <__malloc_lock+0x8>)
 8007dba:	f7ff b870 	b.w	8006e9e <__retarget_lock_acquire_recursive>
 8007dbe:	bf00      	nop
 8007dc0:	20002620 	.word	0x20002620

08007dc4 <__malloc_unlock>:
 8007dc4:	4801      	ldr	r0, [pc, #4]	; (8007dcc <__malloc_unlock+0x8>)
 8007dc6:	f7ff b86b 	b.w	8006ea0 <__retarget_lock_release_recursive>
 8007dca:	bf00      	nop
 8007dcc:	20002620 	.word	0x20002620

08007dd0 <_malloc_usable_size_r>:
 8007dd0:	f851 3c04 	ldr.w	r3, [r1, #-4]
 8007dd4:	1f18      	subs	r0, r3, #4
 8007dd6:	2b00      	cmp	r3, #0
 8007dd8:	bfbc      	itt	lt
 8007dda:	580b      	ldrlt	r3, [r1, r0]
 8007ddc:	18c0      	addlt	r0, r0, r3
 8007dde:	4770      	bx	lr

08007de0 <_read_r>:
 8007de0:	b538      	push	{r3, r4, r5, lr}
 8007de2:	4d07      	ldr	r5, [pc, #28]	; (8007e00 <_read_r+0x20>)
 8007de4:	4604      	mov	r4, r0
 8007de6:	4608      	mov	r0, r1
 8007de8:	4611      	mov	r1, r2
 8007dea:	2200      	movs	r2, #0
 8007dec:	602a      	str	r2, [r5, #0]
 8007dee:	461a      	mov	r2, r3
 8007df0:	f7f9 fbe2 	bl	80015b8 <_read>
 8007df4:	1c43      	adds	r3, r0, #1
 8007df6:	d102      	bne.n	8007dfe <_read_r+0x1e>
 8007df8:	682b      	ldr	r3, [r5, #0]
 8007dfa:	b103      	cbz	r3, 8007dfe <_read_r+0x1e>
 8007dfc:	6023      	str	r3, [r4, #0]
 8007dfe:	bd38      	pop	{r3, r4, r5, pc}
 8007e00:	2000262c 	.word	0x2000262c

08007e04 <__ascii_wctomb>:
 8007e04:	b149      	cbz	r1, 8007e1a <__ascii_wctomb+0x16>
 8007e06:	2aff      	cmp	r2, #255	; 0xff
 8007e08:	bf85      	ittet	hi
 8007e0a:	238a      	movhi	r3, #138	; 0x8a
 8007e0c:	6003      	strhi	r3, [r0, #0]
 8007e0e:	700a      	strbls	r2, [r1, #0]
 8007e10:	f04f 30ff 	movhi.w	r0, #4294967295
 8007e14:	bf98      	it	ls
 8007e16:	2001      	movls	r0, #1
 8007e18:	4770      	bx	lr
 8007e1a:	4608      	mov	r0, r1
 8007e1c:	4770      	bx	lr
	...

08007e20 <_init>:
 8007e20:	b5f8      	push	{r3, r4, r5, r6, r7, lr}
 8007e22:	bf00      	nop
 8007e24:	bcf8      	pop	{r3, r4, r5, r6, r7}
 8007e26:	bc08      	pop	{r3}
 8007e28:	469e      	mov	lr, r3
 8007e2a:	4770      	bx	lr

08007e2c <_fini>:
 8007e2c:	b5f8      	push	{r3, r4, r5, r6, r7, lr}
 8007e2e:	bf00      	nop
 8007e30:	bcf8      	pop	{r3, r4, r5, r6, r7}
 8007e32:	bc08      	pop	{r3}
 8007e34:	469e      	mov	lr, r3
 8007e36:	4770      	bx	lr
